 PhysXCommon_64

 Timestamp is 67b35b8e (Mon Feb 17 16:53:50 2025)

 Preferred load address is 0000000180000000

 Start         Length     Name                   Class
 0001:00000000 000037d0H .text$di                CODE
 0001:000037d0 00226e70H .text$mn                CODE
 0001:0022a640 00000040H .text$mn$00             CODE
 0001:0022a680 00000a70H .text$mn$21             CODE
 0001:0022b0f0 00000690H .text$x                 CODE
 0001:0022b780 0000000fH .text$yd                CODE
 0002:00000000 00000280H .idata$5                DATA
 0002:00000280 00000038H .00cfg                  DATA
 0002:000002b8 00000008H .CRT$XCA                DATA
 0002:000002c0 00001b20H .CRT$XCU                DATA
 0002:00001de0 00000008H .CRT$XCZ                DATA
 0002:00001de8 00000008H .CRT$XIA                DATA
 0002:00001df0 00000018H .CRT$XIC                DATA
 0002:00001e08 00000008H .CRT$XIZ                DATA
 0002:00001e10 00000008H .CRT$XPA                DATA
 0002:00001e18 00000010H .CRT$XPX                DATA
 0002:00001e28 00000008H .CRT$XPXA               DATA
 0002:00001e30 00000008H .CRT$XPZ                DATA
 0002:00001e38 00000008H .CRT$XTA                DATA
 0002:00001e40 00000010H .CRT$XTZ                DATA
 0002:00001e48 00000000H .gehcont$y              DATA
 0002:00001e48 00000000H .gfids$y                DATA
 0002:00001e50 000114b0H .rdata                  DATA
 0002:00013300 00000180H .rdata$00               DATA
 0002:00013480 00000000H .rdata$CastGuardVftablesA DATA
 0002:00013480 00000000H .rdata$CastGuardVftablesC DATA
 0002:00013480 0000043cH .rdata$r                DATA
 0002:000138bc 00000250H .rdata$voltmd           DATA
 0002:00013b0c 0000046cH .rdata$zzzdbg           DATA
 0002:00013f78 00000008H .rtc$IAA                DATA
 0002:00013f80 00000008H .rtc$IZZ                DATA
 0002:00013f88 00000008H .rtc$TAA                DATA
 0002:00013f90 00000008H .rtc$TZZ                DATA
 0002:00013f98 000162e0H .xdata                  DATA
 0002:0002a278 00000084H .xdata$x                DATA
 0002:0002a2fc 00000020H .didat$2                DATA
 0002:0002a31c 00000024H .didat$3                DATA
 0002:0002a340 000000c8H .didat$4                DATA
 0002:0002a408 00000418H .didat$6                DATA
 0002:0002a820 000001e0H .didat$7                DATA
 0002:0002aa00 0000c8c4H .edata                  DATA
 0002:000372c4 00000014H .idata$2                DATA
 0002:000372d8 00000018H .idata$3                DATA
 0002:000372f0 00000280H .idata$4                DATA
 0002:00037570 000005beH .idata$6                DATA
 0003:00000000 00001cb0H .data                   DATA
 0003:00001cb0 00001278H .data$r                 DATA
 0003:00002f28 000000f0H .data$rs                DATA
 0003:00003018 000000c8H .didat$5                DATA
 0003:000030e0 000048ccH .bss                    DATA
 0004:00000000 0000cfc0H .pdata                  DATA
 0005:00000000 00002208H _RDATA                  DATA
 0006:00000000 000000a0H .rsrc$01                DATA
 0006:000000a0 000004b0H .rsrc$02                DATA

  Address         Publics by Value              Rva+Base               Lib:Object

 0000:00000000       __AbsoluteZero             0000000000000000     <absolute>
 0000:00000000       ___safe_se_handler_count   0000000000000000     <absolute>
 0000:00000000       ___safe_se_handler_table   0000000000000000     <absolute>
 0000:00000000       __arm64x_extra_rfe_table   0000000000000000     <absolute>
 0000:00000000       __arm64x_extra_rfe_table_size 0000000000000000     <absolute>
 0000:00000000       __arm64x_native_entrypoint 0000000000000000     <absolute>
 0000:00000000       __arm64x_redirection_metadata 0000000000000000     <absolute>
 0000:00000000       __arm64x_redirection_metadata_count 0000000000000000     <absolute>
 0000:00000000       __dynamic_value_reloc_table 0000000000000000     <absolute>
 0000:00000000       __enclave_config           0000000000000000     <absolute>
 0000:00000000       __guard_check_icall_a64n_fptr 0000000000000000     <absolute>
 0000:00000000       __guard_eh_cont_count      0000000000000000     <absolute>
 0000:00000000       __guard_eh_cont_table      0000000000000000     <absolute>
 0000:00000000       __guard_fids_count         0000000000000000     <absolute>
 0000:00000000       __guard_fids_table         0000000000000000     <absolute>
 0000:00000000       __guard_iat_count          0000000000000000     <absolute>
 0000:00000000       __guard_iat_table          0000000000000000     <absolute>
 0000:00000000       __guard_longjmp_count      0000000000000000     <absolute>
 0000:00000000       __guard_longjmp_table      0000000000000000     <absolute>
 0000:00000000       __hybrid_auxiliary_delayload_iat 0000000000000000     <absolute>
 0000:00000000       __hybrid_auxiliary_delayload_iat_copy 0000000000000000     <absolute>
 0000:00000000       __hybrid_auxiliary_iat     0000000000000000     <absolute>
 0000:00000000       __hybrid_auxiliary_iat_copy 0000000000000000     <absolute>
 0000:00000000       __hybrid_code_map          0000000000000000     <absolute>
 0000:00000000       __hybrid_code_map_count    0000000000000000     <absolute>
 0000:00000000       __hybrid_image_info_bitfield 0000000000000000     <absolute>
 0000:00000000       __x64_code_ranges_to_entry_points 0000000000000000     <absolute>
 0000:00000000       __x64_code_ranges_to_entry_points_count 0000000000000000     <absolute>
 0000:00000100       __guard_flags              0000000000000100     <absolute>
 0000:00000000       __ImageBase                0000000180000000     <linker-defined>
 0001:000037d0       ??0PtrTable@Cm@physx@@QEAA@W4PxEMPTY@2@@Z 00000001800047d0 f i CmPtrTable.obj
 0001:000037f0       ??0PtrTable@Cm@physx@@QEAA@XZ 00000001800047f0 f   CmPtrTable.obj
 0001:00003800       ??1AABBTreeBuildNode@Gu@physx@@QEAA@XZ 0000000180004800 f   GuMeshFactory.obj
 0001:00003800       ??1BigConvexDataBuilder@physx@@QEAA@XZ 0000000180004800 f   GuCookingBigConvexDataBuilder.obj
 0001:00003800       ??1Box@Gu@physx@@QEAA@XZ   0000000180004800 f   GuBox.obj
 0001:00003800       ??1HeightFieldData@Gu@physx@@QEAA@XZ 0000000180004800 f   GuCCTSweepTests.obj
 0001:00003800       ??1PtrTable@Cm@physx@@QEAA@XZ 0000000180004800 f   CmPtrTable.obj
 0001:00003800       ?build@CompanionPrunerIncremental@@UEAAXXZ 0000000180004800 f   GuSecondaryPruner.obj
 0001:00003800       ?checkTreeLeaf@IncrementalAABBTree@Gu@physx@@QEAAXPEAVIncrementalAABBTreeNode@23@I@Z 0000000180004800 f   GuIncrementalAABBTree.obj
 0001:00003800       ?execute@?$PxThreadT@V?$PxReflectionAllocator@VPxThreadImpl@physx@@@physx@@@physx@@UEAAXXZ 0000000180004800 f   GuSDF.obj
 0001:00003800       ?execute@PxRunnable@physx@@UEAAXXZ 0000000180004800 f   GuSDF.obj
 0001:00003800       ?merge@BucketPruner@Gu@physx@@UEAAXPEBX@Z 0000000180004800 f   GuBucketPruner.obj
 0001:00003800       ?merge@IncrementalAABBPruner@Gu@physx@@UEAAXPEBX@Z 0000000180004800 f   GuIncrementalAABBPruner.obj
 0001:00003800       ?onMeshIndexFormatChange@TriangleMeshBuilder@physx@@UEAAXXZ 0000000180004800 f   GuCookingTriangleMesh.obj
 0001:00003800       ?profile@Callback@RTree@Gu@physx@@UEAAXXZ 0000000180004800 f   GuMidphaseRTree.obj
 0001:00003800       ?purge@BucketPruner@Gu@physx@@UEAAXXZ 0000000180004800 f   GuBucketPruner.obj
 0001:00003800       ?requiresObjects@ConvexMesh@Gu@physx@@UEAAXAEAVPxProcessPxBaseCallback@3@@Z 0000000180004800 f   GuConvexMesh.obj
 0001:00003800       ?requiresObjects@DeformableVolumeMesh@Gu@physx@@UEAAXAEAVPxProcessPxBaseCallback@3@@Z 0000000180004800 f   GuTetrahedronMesh.obj
 0001:00003800       ?requiresObjects@HeightField@Gu@physx@@UEAAXAEAVPxProcessPxBaseCallback@3@@Z 0000000180004800 f   GuHeightField.obj
 0001:00003800       ?requiresObjects@TriangleMesh@Gu@physx@@UEAAXAEAVPxProcessPxBaseCallback@3@@Z 0000000180004800 f   GuTriangleMesh.obj
 0001:00003800       ?swapIndex@CompanionPrunerAABBTree@@UEAAXII@Z 0000000180004800 f   GuSecondaryPruner.obj
 0001:00003800       ?swapIndex@CompanionPrunerBucket@@UEAAXII@Z 0000000180004800 f   GuSecondaryPruner.obj
 0001:00003800       ?timeStampChange@CompanionPrunerAABBTree@@UEAAXXZ 0000000180004800 f   GuSecondaryPruner.obj
 0001:00003800       ?timeStampChange@CompanionPrunerBucket@@UEAAXXZ 0000000180004800 f   GuSecondaryPruner.obj
 0001:00003800       ?visualize@BasePruner@Gu@physx@@UEBAXAEAVPxRenderOutput@3@II@Z 0000000180004800 f   GuIncrementalAABBPruner.obj
 0001:00003800       _guard_check_icall_nop     0000000180004800 f   LIBCMT:guard_support.obj
 0001:00003810       ??4AABBTreeBounds@Gu@physx@@QEAAAEAV012@AEBV012@@Z 0000000180004810 f i GuMeshFactory.obj
 0001:00003810       ??4CmModuleUpdateLoader@Cm@physx@@QEAAAEAV012@AEBV012@@Z 0000000180004810 f i CmWindowsModuleUpdateLoader.obj
 0001:00003810       ??4PtrTable@Cm@physx@@QEAAAEAU012@AEBU012@@Z 0000000180004810 f i CmPtrTable.obj
 0001:00003820       ?add@PtrTable@Cm@physx@@QEAAXPEAXAEAVPtrTableStorageManager@23@@Z 0000000180004820 f   CmPtrTable.obj
 0001:000038e0       ?clear@PtrTable@Cm@physx@@QEAAXAEAVPtrTableStorageManager@23@@Z 00000001800048e0 f   CmPtrTable.obj
 0001:00003950       ?exportExtraData@PtrTable@Cm@physx@@QEAAXAEAVPxSerializationContext@3@@Z 0000000180004950 f   CmPtrTable.obj
 0001:000039a0       ?find@PtrTable@Cm@physx@@QEBAIPEBX@Z 00000001800049a0 f   CmPtrTable.obj
 0001:000039d0       ?getBinaryMetaData@PtrTable@Cm@physx@@SAXAEAVPxOutputStream@3@@Z 00000001800049d0 f   CmPtrTable.obj
 0001:00003bd0       ?getCount@PtrTable@Cm@physx@@QEBAIXZ 0000000180004bd0 f i CmPtrTable.obj
 0001:00003be0       ?getPtrs@PtrTable@Cm@physx@@QEAAPEAPEAXXZ 0000000180004be0 f i CmPtrTable.obj
 0001:00003be0       ?getPtrs@PtrTable@Cm@physx@@QEBAPEBQEAXXZ 0000000180004be0 f i CmPtrTable.obj
 0001:00003bf0       ?importExtraData@PtrTable@Cm@physx@@QEAAXAEAVPxDeserializationContext@3@@Z 0000000180004bf0 f   CmPtrTable.obj
 0001:00003c20       ?realloc@PtrTable@Cm@physx@@AEAAXIIAEAVPtrTableStorageManager@23@@Z 0000000180004c20 f   CmPtrTable.obj
 0001:00003cd0       ?replaceWithLast@PtrTable@Cm@physx@@QEAAXIAEAVPtrTableStorageManager@23@@Z 0000000180004cd0 f   CmPtrTable.obj
 0001:00003dd0       ??_ECollection@Cm@physx@@UEAAPEAXI@Z 0000000180004dd0 f i CmCollection.obj
 0001:00003dd0       ??_GCollection@Cm@physx@@UEAAPEAXI@Z 0000000180004dd0 f i CmCollection.obj
 0001:00003e80       ??_EPxCollection@physx@@MEAAPEAXI@Z 0000000180004e80 f i CmCollection.obj
 0001:00003e80       ??_GPxCollection@physx@@MEAAPEAXI@Z 0000000180004e80 f i CmCollection.obj
 0001:00003eb0       ?add@Collection@Cm@physx@@UEAAXAEAVPxBase@3@_K@Z 0000000180004eb0 f   CmCollection.obj
 0001:00003fa0       ?add@Collection@Cm@physx@@UEAAXAEAVPxCollection@3@@Z 0000000180004fa0 f   CmCollection.obj
 0001:00004140       ?addId@Collection@Cm@physx@@UEAAXAEAVPxBase@3@_K@Z 0000000180005140 f   CmCollection.obj
 0001:00004270       ?contains@Collection@Cm@physx@@UEBA_NAEAVPxBase@3@@Z 0000000180005270 f   CmCollection.obj
 0001:00004320       ?create@?$PxHashBase@V?$PxPair@$$CB_KPEAVPxBase@physx@@@physx@@_KU?$PxHash@_K@2@UGetKey@?$PxHashMapBase@_KPEAVPxBase@physx@@U?$PxHash@_K@2@VPxAllocator@2@@2@VPxAllocator@2@$00@physx@@QEAAPEAV?$PxPair@$$CB_KPEAVPxBase@physx@@@2@AEB_KAEA_N@Z 0000000180005320 f i CmCollection.obj
 0001:00004320       ?create@?$PxHashBase@V?$PxPair@QEAVPxBase@physx@@_K@physx@@PEAVPxBase@2@U?$PxHash@PEAVPxBase@physx@@@2@UGetKey@?$PxHashMapBase@PEAVPxBase@physx@@_KU?$PxHash@PEAVPxBase@physx@@@2@VPxAllocator@2@@2@VPxAllocator@2@$00@physx@@QEAAPEAV?$PxPair@QEAVPxBase@physx@@_K@2@AEBQEAVPxBase@2@AEA_N@Z 0000000180005320 f i CmCollection.obj
 0001:000044b0       ?erase@?$PxHashBase@V?$PxPair@$$CB_KPEAVPxBase@physx@@@physx@@_KU?$PxHash@_K@2@UGetKey@?$PxHashMapBase@_KPEAVPxBase@physx@@U?$PxHash@_K@2@VPxAllocator@2@@2@VPxAllocator@2@$00@physx@@QEAA_NAEB_K@Z 00000001800054b0 f i CmCollection.obj
 0001:000044b0       ?erase@?$PxHashBase@V?$PxPair@QEAVPxBase@physx@@_K@physx@@PEAVPxBase@2@U?$PxHash@PEAVPxBase@physx@@@2@UGetKey@?$PxHashMapBase@PEAVPxBase@physx@@_KU?$PxHash@PEAVPxBase@physx@@@2@VPxAllocator@2@@2@VPxAllocator@2@$00@physx@@QEAA_NAEBQEAVPxBase@2@@Z 00000001800054b0 f i CmCollection.obj
 0001:00004650       ?find@?$PxHashMapBase@_KPEAVPxBase@physx@@U?$PxHash@_K@2@VPxAllocator@2@@physx@@QEBAPEBV?$PxPair@$$CB_KPEAVPxBase@physx@@@2@AEB_K@Z 0000000180005650 f i CmCollection.obj
 0001:000046f0       ?find@Collection@Cm@physx@@UEBAPEAVPxBase@3@_K@Z 00000001800056f0 f   CmCollection.obj
 0001:00004720       ?getId@Collection@Cm@physx@@UEBA_KAEBVPxBase@3@@Z 0000000180005720 f   CmCollection.obj
 0001:000047d0       ?getIds@Collection@Cm@physx@@UEBAIPEA_KII@Z 00000001800057d0 f   CmCollection.obj
 0001:000048a0       ?getNbIds@Collection@Cm@physx@@UEBAIXZ 00000001800058a0 f   CmCollection.obj
 0001:000048b0       ?getNbObjects@Collection@Cm@physx@@UEBAIXZ 00000001800058b0 f   CmCollection.obj
 0001:000048c0       ?getObject@Collection@Cm@physx@@UEBAAEAVPxBase@3@I@Z 00000001800058c0 f   CmCollection.obj
 0001:000048d0       ?getObjects@Collection@Cm@physx@@UEBAIPEAPEAVPxBase@3@II@Z 00000001800058d0 f   CmCollection.obj
 0001:00004910       ?release@Collection@Cm@physx@@UEAAXXZ 0000000180005910 f i CmCollection.obj
 0001:00004930       ?remove@Collection@Cm@physx@@UEAAXAEAVPxBase@3@@Z 0000000180005930 f   CmCollection.obj
 0001:00004a20       ?remove@Collection@Cm@physx@@UEAAXAEAVPxCollection@3@@Z 0000000180005a20 f   CmCollection.obj
 0001:00004b30       ?removeId@Collection@Cm@physx@@UEAAX_K@Z 0000000180005b30 f   CmCollection.obj
 0001:00004bb0       ?reserveInternal@?$PxHashBase@V?$PxPair@$$CB_KPEAVPxBase@physx@@@physx@@_KU?$PxHash@_K@2@UGetKey@?$PxHashMapBase@_KPEAVPxBase@physx@@U?$PxHash@_K@2@VPxAllocator@2@@2@VPxAllocator@2@$00@physx@@AEAAXI@Z 0000000180005bb0 f i CmCollection.obj
 0001:00004bb0       ?reserveInternal@?$PxHashBase@V?$PxPair@QEAVPxBase@physx@@_K@physx@@PEAVPxBase@2@U?$PxHash@PEAVPxBase@physx@@@2@UGetKey@?$PxHashMapBase@PEAVPxBase@physx@@_KU?$PxHash@PEAVPxBase@physx@@@2@VPxAllocator@2@@2@VPxAllocator@2@$00@physx@@AEAAXI@Z 0000000180005bb0 f i CmCollection.obj
 0001:00004d90       PxCreateCollection         0000000180005d90 f   CmCollection.obj
 0001:00004e90       ??0RadixSort@Cm@physx@@QEAA@XZ 0000000180005e90 f   CmRadixSort.obj
 0001:00004ec0       ??0RadixSortBuffered@Cm@physx@@QEAA@XZ 0000000180005ec0 f   CmRadixSort.obj
 0001:00004ef0       ??1RadixSort@Cm@physx@@UEAA@XZ 0000000180005ef0 f   CmRadixSort.obj
 0001:00004f00       ??1RadixSortBuffered@Cm@physx@@UEAA@XZ 0000000180005f00 f   CmRadixSort.obj
 0001:00004f30       ??_ERadixSort@Cm@physx@@UEAAPEAXI@Z 0000000180005f30 f i CmRadixSort.obj
 0001:00004fc0       ??_ERadixSortBuffered@Cm@physx@@UEAAPEAXI@Z 0000000180005fc0 f i CmRadixSort.obj
 0001:000050b0       ?CheckResize@RadixSortBuffered@Cm@physx@@AEAAXI@Z 00000001800060b0 f i CmRadixSort.obj
 0001:000050f0       ?GetNbHits@RadixSort@Cm@physx@@QEBAIXZ 00000001800060f0 f i CmRadixSort.obj
 0001:00005100       ?GetNbTotalCalls@RadixSort@Cm@physx@@QEBAIXZ 0000000180006100 f i CmRadixSort.obj
 0001:00005110       ?GetRanks@RadixSort@Cm@physx@@QEBAPEBIXZ 0000000180006110 f i CmRadixSort.obj
 0001:00005110       ?getGridModelInvMass@DeformableVolumeAuxData@Gu@physx@@UEAAPEAMXZ 0000000180006110 f i GuTetrahedronMesh.obj
 0001:00005110       ?getHeightField@HeightFieldUtil@Gu@physx@@QEBAAEBVHeightField@23@XZ 0000000180006110 f i GuCCTSweepTests.obj
 0001:00005110       ?getSimulationMesh@DeformableVolumeMesh@Gu@physx@@UEAAPEAVPxTetrahedronMesh@3@XZ 0000000180006110 f i GuTetrahedronMesh.obj
 0001:00005110       ?getSimulationMesh@DeformableVolumeMesh@Gu@physx@@UEBAPEBVPxTetrahedronMesh@3@XZ 0000000180006110 f i GuTetrahedronMesh.obj
 0001:00005120       ?GetRecyclable@RadixSort@Cm@physx@@QEBAPEAIXZ 0000000180006120 f i CmRadixSort.obj
 0001:00005120       ?GetValencies@BigConvexData@physx@@QEBAPEBUValency@Gu@2@XZ 0000000180006120 f i GuMetaData.obj
 0001:00005120       ?getCollisionMesh@DeformableVolumeMesh@Gu@physx@@UEAAPEAVPxTetrahedronMesh@3@XZ 0000000180006120 f i GuTetrahedronMesh.obj
 0001:00005120       ?getCollisionMesh@DeformableVolumeMesh@Gu@physx@@UEBAPEBVPxTetrahedronMesh@3@XZ 0000000180006120 f i GuTetrahedronMesh.obj
 0001:00005120       ?getHeightFieldGeometry@HeightFieldUtil@Gu@physx@@QEBAAEBVPxHeightFieldGeometry@3@XZ 0000000180006120 f i GuCCTSweepTests.obj
 0001:00005120       ?getObjects@PruningPool@Gu@physx@@QEBAPEAUPrunerPayload@23@XZ 0000000180006120 f i GuIncrementalAABBPrunerCore.obj
 0001:00005120       ?getPos@AABBTreeBuildNode@Gu@physx@@QEBAPEBV123@XZ 0000000180006120 f i GuMeshFactory.obj
 0001:00005120       ?getVertices@TetrahedronMesh@Gu@physx@@UEBAPEBV?$PxVec3T@M@3@XZ 0000000180006120 f i GuTetrahedronMesh.obj
 0001:00005120       ?getVertices@TriangleMesh@Gu@physx@@UEBAPEBV?$PxVec3T@M@3@XZ 0000000180006120 f i GuTriangleMesh.obj
 0001:00005130       ?Resize@RadixSortBuffered@Cm@physx@@AEAA_NI@Z 0000000180006130 f   CmRadixSort.obj
 0001:00005230       ?SetBuffers@RadixSort@Cm@physx@@QEAA_NPEAI00PEAPEAI@Z 0000000180006230 f   CmRadixSort.obj
 0001:00005270       ?Sort@RadixSort@Cm@physx@@QEAAAEAV123@PEBIIW4RadixHint@23@@Z 0000000180006270 f   CmRadixSort.obj
 0001:00005920       ?Sort@RadixSort@Cm@physx@@QEAAAEAV123@PEBMI@Z 0000000180006920 f   CmRadixSort.obj
 0001:000060b0       ?Sort@RadixSortBuffered@Cm@physx@@QEAAAEAV123@PEBIIW4RadixHint@23@@Z 00000001800070b0 f   CmRadixSort.obj
 0001:00006150       ?Sort@RadixSortBuffered@Cm@physx@@QEAAAEAV123@PEBMI@Z 0000000180007150 f   CmRadixSort.obj
 0001:000061e0       ?invalidateRanks@RadixSort@Cm@physx@@QEAAXXZ 00000001800071e0 f i CmRadixSort.obj
 0001:000061f0       ?reset@RadixSortBuffered@Cm@physx@@QEAAXXZ 00000001800071f0 f   CmRadixSort.obj
 0001:00006270       ?ReadHeader@Cm@physx@@YA_NEEEEAEAIAEA_NAEAVPxInputStream@2@@Z 0000000180007270 f   CmSerialize.obj
 0001:000063d0       ?ReadIndices@Cm@physx@@YAXGIPEAGAEAVPxInputStream@2@_N@Z 00000001800073d0 f   CmSerialize.obj
 0001:00006560       ?StoreIndices@Cm@physx@@YAXGIPEBGAEAVPxOutputStream@2@_N@Z 0000000180007560 f   CmSerialize.obj
 0001:00006650       ?WriteHeader@Cm@physx@@YA_NEEEEI_NAEAVPxOutputStream@2@@Z 0000000180007650 f   CmSerialize.obj
 0001:00006780       ?computeMaxIndex@physx@@YAGPEBGI@Z 0000000180007780 f   CmSerialize.obj
 0001:000067b0       ?computeMaxIndex@physx@@YAIPEBII@Z 00000001800077b0 f   CmSerialize.obj
 0001:000067e0       ?readByteBuffer@physx@@YAXPEAEIAEAVPxInputStream@1@@Z 00000001800077e0 f   CmSerialize.obj
 0001:000067e0       ?writeByteBuffer@physx@@YAXPEBEIAEAVPxOutputStream@1@@Z 00000001800077e0 f   CmSerialize.obj
 0001:00006800       ?readChunk@physx@@YAXAEAC000AEAVPxInputStream@1@@Z 0000000180007800 f   CmSerialize.obj
 0001:00006880       ?readDword@physx@@YAI_NAEAVPxInputStream@1@@Z 0000000180007880 f   CmSerialize.obj
 0001:000068e0       ?readFloat@physx@@YAM_NAEAVPxInputStream@1@@Z 00000001800078e0 f   CmSerialize.obj
 0001:00006940       ?readFloatBuffer@physx@@YA_NPEAMI_NAEAVPxInputStream@1@@Z 0000000180007940 f   CmSerialize.obj
 0001:000069c0       ?readHeader@physx@@YA_NCCCCAEAIAEA_NAEAVPxInputStream@1@@Z 00000001800079c0 f   CmSerialize.obj
 0001:00006b10       ?readIndices@physx@@YAXIIPEAIAEAVPxInputStream@1@_N@Z 0000000180007b10 f   CmSerialize.obj
 0001:00006c40       ?readWord@physx@@YAG_NAEAVPxInputStream@1@@Z 0000000180007c40 f   CmSerialize.obj
 0001:00006c80       ?readWordBuffer@physx@@YAXPEAGI_NAEAVPxInputStream@1@@Z 0000000180007c80 f   CmSerialize.obj
 0001:00006cf0       ?storeIndices@physx@@YAXIIPEBIAEAVPxOutputStream@1@_N@Z 0000000180007cf0 f   CmSerialize.obj
 0001:00006e80       ?writeDword@physx@@YAXI_NAEAVPxOutputStream@1@@Z 0000000180007e80 f   CmSerialize.obj
 0001:00006ed0       ?writeFloat@physx@@YAXM_NAEAVPxOutputStream@1@@Z 0000000180007ed0 f   CmSerialize.obj
 0001:00006f20       ?writeFloatBuffer@physx@@YAXPEBMI_NAEAVPxOutputStream@1@@Z 0000000180007f20 f   CmSerialize.obj
 0001:00006fc0       ?writeHeader@physx@@YA_NCCCCI_NAEAVPxOutputStream@1@@Z 0000000180007fc0 f   CmSerialize.obj
 0001:000070f0       ?writeWord@physx@@YAXG_NAEAVPxOutputStream@1@@Z 00000001800080f0 f   CmSerialize.obj
 0001:00007130       ?writeWordBuffer@physx@@YAXPEBGI_NAEAVPxOutputStream@1@@Z 0000000180008130 f   CmSerialize.obj
 0001:000071b0       ??6PxRenderOutput@physx@@QEAAAEAV01@AEBV?$PxTransformT@M@1@@Z 00000001800081b0 f i CmVisualization.obj
 0001:00007330       ??6PxRenderOutput@physx@@QEAAAEAV01@AEBV?$PxVec3T@M@1@@Z 0000000180008330 f i CmVisualization.obj
 0001:00007630       ?renderOutputDebugArrow@Cm@physx@@YAXAEAVPxRenderOutput@2@AEBUPxDebugArrow@2@@Z 0000000180008630 f   CmVisualization.obj
 0001:000079d0       ?renderOutputDebugBasis@Cm@physx@@YAXAEAVPxRenderOutput@2@AEBUPxDebugBasis@2@@Z 00000001800089d0 f   CmVisualization.obj
 0001:00007f40       ?renderOutputDebugBox@Cm@physx@@YAXAEAVPxRenderOutput@2@AEBVPxBounds3@2@@Z 0000000180008f40 f   CmVisualization.obj
 0001:000081b0       ?renderOutputDebugCircle@Cm@physx@@YAXAEAVPxRenderOutput@2@IM@Z 00000001800091b0 f   CmVisualization.obj
 0001:00008290       ?visualizeAngularLimit@Cm@physx@@YAXAEAVPxRenderOutput@2@MAEBV?$PxTransformT@M@2@MM@Z 0000000180009290 f   CmVisualization.obj
 0001:00008420       ?visualizeDoubleCone@Cm@physx@@YAXAEAVPxRenderOutput@2@MAEBV?$PxTransformT@M@2@M@Z 0000000180009420 f   CmVisualization.obj
 0001:00008640       ?visualizeJointFrames@Cm@physx@@YAXAEAVPxRenderOutput@2@MAEBV?$PxTransformT@M@2@1@Z 0000000180009640 f   CmVisualization.obj
 0001:00009330       ?visualizeLimitCone@Cm@physx@@YAXAEAVPxRenderOutput@2@MAEBV?$PxTransformT@M@2@MM@Z 000000018000a330 f   CmVisualization.obj
 0001:00009570       ?visualizeLinearLimit@Cm@physx@@YAXAEAVPxRenderOutput@2@MAEBV?$PxTransformT@M@2@1M@Z 000000018000a570 f   CmVisualization.obj
 0001:00009b50       ??0CmModuleUpdateLoader@Cm@physx@@QEAA@PEBD@Z 000000018000ab50 f   CmWindowsModuleUpdateLoader.obj
 0001:00009b90       ??1CmModuleUpdateLoader@Cm@physx@@QEAA@XZ 000000018000ab90 f   CmWindowsModuleUpdateLoader.obj
 0001:00009bc0       ?LoadModule@CmModuleUpdateLoader@Cm@physx@@QEAAPEAUHINSTANCE__@@PEBD0@Z 000000018000abc0 f   CmWindowsModuleUpdateLoader.obj
 0001:00009c30       __local_stdio_printf_options 000000018000ac30 f i CmWindowsModuleUpdateLoader.obj
 0001:00009c40       printf                     000000018000ac40 f i CmWindowsModuleUpdateLoader.obj
 0001:00009ca0       ?commonDelayHook@@YAP6A_JXZIPEAUDelayLoadInfo@@@Z 000000018000aca0 f   CmWindowsDelayLoadHook.obj
 0001:00009d80       PxSetPhysXCommonDelayLoadHook 000000018000ad80 f   CmWindowsDelayLoadHook.obj
 0001:00009d90       ??0?$PxQuatT@M@physx@@QEAA@AEBV?$PxMat33T@M@1@@Z 000000018000ad90 f i GuBox.obj
 0001:00009fa0       ??0Box@Gu@physx@@QEAA@AEBV012@@Z 000000018000afa0 f i GuBox.obj
 0001:00009fa0       ??4Box@Gu@physx@@QEAAAEBV012@AEBV012@@Z 000000018000afa0 f i GuBox.obj
 0001:0000a000       ??0Box@Gu@physx@@QEAA@AEBV?$PxVec3T@M@2@0AEBV?$PxMat33T@M@2@@Z 000000018000b000 f i GuBox.obj
 0001:0000a070       ??0?$PxVec3T@M@physx@@QEAA@XZ 000000018000b070 f i GuCCTSweepTests.obj
 0001:0000a070       ??0?$PxVec3T@N@physx@@QEAA@XZ 000000018000b070 f i GuOverlapTests.obj
 0001:0000a070       ??0?$PxVec4T@N@physx@@QEAA@XZ 000000018000b070 f i GuContactConvexCoreMesh.obj
 0001:0000a070       ??0AABBTreeBuildNode@Gu@physx@@QEAA@XZ 000000018000b070 f i GuMeshFactory.obj
 0001:0000a070       ??0BigConvexData@physx@@QEAA@W4PxEMPTY@1@@Z 000000018000b070 f i GuMetaData.obj
 0001:0000a070       ??0Box@Gu@physx@@QEAA@XZ   000000018000b070 f i GuBox.obj
 0001:0000a070       ??0HeightFieldData@Gu@physx@@QEAA@W4PxEMPTY@2@@Z 000000018000b070 f i GuCCTSweepTests.obj
 0001:0000a070       ?getAABB@AABBTreeBuildNode@Gu@physx@@QEBAAEBVPxBounds3@3@XZ 000000018000b070 f i GuMeshFactory.obj
 0001:0000a070       ?getPaddedBounds@HeightFieldData@Gu@physx@@QEBAAEBVCenterExtentsPadded@23@XZ 000000018000b070 f i GuCCTSweepTests.obj
 0001:0000a080       ?computeAABBExtent@Box@Gu@physx@@QEBA?AV?$PxVec3T@M@3@XZ 000000018000b080 f i GuBox.obj
 0001:0000a140       ?computeBoxPoints@Box@Gu@physx@@QEBAXPEIAV?$PxVec3T@M@3@@Z 000000018000b140 f i GuBox.obj
 0001:0000a180       ?computeOBBPoints@Gu@physx@@YAXPEIAV?$PxVec3T@M@2@AEBV32@1111@Z 000000018000b180 f   GuBox.obj
 0001:0000a400       ?create@Box@Gu@physx@@QEAAXAEBVCapsule@23@@Z 000000018000b400 f   GuBox.obj
 0001:0000a640       ?getBoxEdges@Gu@physx@@YAPEBEXZ 000000018000b640 f   GuBox.obj
 0001:0000a650       ?getTransform@Box@Gu@physx@@QEBA?AV?$PxTransformT@M@3@XZ 000000018000b650 f i GuBox.obj
 0001:0000a6b0       ?isValid@Box@Gu@physx@@QEBA_NXZ 000000018000b6b0 f i GuBox.obj
 0001:0000a6d0       ?rotate@Box@Gu@physx@@QEBA?AV?$PxVec3T@M@3@AEBV43@@Z 000000018000b6d0 f i GuBox.obj
 0001:0000a760       ?rotateInv@Box@Gu@physx@@QEBA?AV?$PxVec3T@M@3@AEBV43@@Z 000000018000b760 f i GuBox.obj
 0001:0000a7f0       ?setAxes@Box@Gu@physx@@QEAAXAEBV?$PxVec3T@M@3@00@Z 000000018000b7f0 f i GuBox.obj
 0001:0000a830       ?setEmpty@Box@Gu@physx@@QEAAXXZ 000000018000b830 f i GuBox.obj
 0001:0000a870       ?transform@Box@Gu@physx@@QEBA?AV?$PxVec3T@M@3@AEBV43@@Z 000000018000b870 f i GuBox.obj
 0001:0000a910       ?PxComputeBasisVectors@physx@@YAXAEBV?$PxVec3T@M@1@0AEAV21@11@Z 000000018000b910 f i GuCapsule.obj
 0001:0000aac0       ?computeBoxAroundCapsule@Gu@physx@@YAXAEBVCapsule@12@AEAVBox@12@@Z 000000018000bac0 f   GuCapsule.obj
 0001:0000ac10       ??0HeightFieldData@Gu@physx@@QEAA@$$QEAU012@@Z 000000018000bc10 f i GuCCTSweepTests.obj
 0001:0000ac10       ??0HeightFieldData@Gu@physx@@QEAA@AEBU012@@Z 000000018000bc10 f i GuCCTSweepTests.obj
 0001:0000ac10       ??4HeightFieldData@Gu@physx@@QEAAAEAU012@$$QEAU012@@Z 000000018000bc10 f i GuCCTSweepTests.obj
 0001:0000ac10       ??4HeightFieldData@Gu@physx@@QEAAAEAU012@AEBU012@@Z 000000018000bc10 f i GuCCTSweepTests.obj
 0001:0000ac70       ??0HeightFieldData@Gu@physx@@QEAA@XZ 000000018000bc70 f i GuCCTSweepTests.obj
 0001:0000ac80       ??0HeightFieldTraceUtil@Gu@physx@@QEAA@AEBVPxHeightFieldGeometry@2@@Z 000000018000bc80 f i GuCCTSweepTests.obj
 0001:0000ac80       ??0HeightFieldUtil@Gu@physx@@QEAA@AEBVPxHeightFieldGeometry@2@@Z 000000018000bc80 f i GuCCTSweepTests.obj
 0001:0000acc0       ??4AABBTreeBuildParams@Gu@physx@@QEAAAEAV012@AEBV012@@Z 000000018000bcc0 f i GuMeshFactory.obj
 0001:0000acc0       ??4HeightFieldTraceUtil@Gu@physx@@QEAAAEAV012@$$QEAV012@@Z 000000018000bcc0 f i GuCCTSweepTests.obj
 0001:0000acc0       ??4HeightFieldTraceUtil@Gu@physx@@QEAAAEAV012@AEBV012@@Z 000000018000bcc0 f i GuCCTSweepTests.obj
 0001:0000acc0       ??4HeightFieldUtil@Gu@physx@@QEAAAEAV012@AEBV012@@Z 000000018000bcc0 f i GuCCTSweepTests.obj
 0001:0000ace0       ??4HeightFieldUtil@Gu@physx@@QEAAAEAV012@$$QEAV012@@Z 000000018000bce0 f i GuCCTSweepTests.obj
 0001:0000ad40       ??_EEntityReport@Gu@physx@@UEAAPEAXI@Z 000000018000bd40 f i GuSweepsHF.obj
 0001:0000ad40       ??_EOverlapCallback@PxBVH@physx@@UEAAPEAXI@Z 000000018000bd40 f i GuQuerySystem.obj
 0001:0000ad40       ??_EOverlapReport@Gu@physx@@UEAAPEAXI@Z 000000018000bd40 f i GuCCTSweepTests.obj
 0001:0000ad40       ??_ERaycastCallback@PxBVH@physx@@UEAAPEAXI@Z 000000018000bd40 f i GuQuerySystem.obj
 0001:0000ad40       ??_ERemapCallback@RTreeCooker@physx@@UEAAPEAXI@Z 000000018000bd40 f i GuCookingTriangleMesh.obj
 0001:0000ad40       ??_GEntityReport@Gu@physx@@UEAAPEAXI@Z 000000018000bd40 f i GuSweepsHF.obj
 0001:0000ad40       ??_GOverlapCallback@PxBVH@physx@@UEAAPEAXI@Z 000000018000bd40 f i GuQuerySystem.obj
 0001:0000ad40       ??_GOverlapReport@Gu@physx@@UEAAPEAXI@Z 000000018000bd40 f i GuCCTSweepTests.obj
 0001:0000ad40       ??_GRaycastCallback@PxBVH@physx@@UEAAPEAXI@Z 000000018000bd40 f i GuQuerySystem.obj
 0001:0000ad40       ??_GRemapCallback@RTreeCooker@physx@@UEAAPEAXI@Z 000000018000bd40 f i GuCookingTriangleMesh.obj
 0001:0000ad70       ??_H@YAXPEAX_K1P6APEAX0@Z@Z 000000018000bd70 f i GuCCTSweepTests.obj
 0001:0000adc0       ?ceilUp@HeightFieldTraceUtil@Gu@physx@@SAMM@Z 000000018000bdc0 f i GuCCTSweepTests.obj
 0001:0000ae00       ?floorDown@HeightFieldTraceUtil@Gu@physx@@SAMM@Z 000000018000be00 f i GuCCTSweepTests.obj
 0001:0000ae40       ?getHeightAtShapePoint@HeightFieldUtil@Gu@physx@@QEBAMMM@Z 000000018000be40 f i GuCCTSweepTests.obj
 0001:0000aea0       ?getHeightInternal2@HeightField@Gu@physx@@QEBAMIMM@Z 000000018000bea0 f i GuCCTSweepTests.obj
 0001:0000b010       ?getNormalAtShapePoint@HeightFieldUtil@Gu@physx@@QEBA?AV?$PxVec3T@M@3@MM@Z 000000018000c010 f i GuCCTSweepTests.obj
 0001:0000b0d0       ?getNormal_2@HeightField@Gu@physx@@QEBA?AV?$PxVec3T@M@3@IMMMMM@Z 000000018000c0d0 f i GuCCTSweepTests.obj
 0001:0000b1b0       ?getOneOverColumnScale@HeightFieldUtil@Gu@physx@@QEBAMXZ 000000018000c1b0 f i GuCCTSweepTests.obj
 0001:0000b1c0       ?getOneOverHeightScale@HeightFieldUtil@Gu@physx@@QEBAMXZ 000000018000c1c0 f i GuCCTSweepTests.obj
 0001:0000b1d0       ?getOneOverRowScale@HeightFieldUtil@Gu@physx@@QEBAMXZ 000000018000c1d0 f i GuCCTSweepTests.obj
 0001:0000b1e0       ?hf2shapen@HeightFieldUtil@Gu@physx@@QEBA?AV?$PxVec3T@M@3@AEBV43@@Z 000000018000c1e0 f i GuCCTSweepTests.obj
 0001:0000b1e0       ?shape2hfp@HeightFieldUtil@Gu@physx@@QEBA?AV?$PxVec3T@M@3@AEBV43@@Z 000000018000c1e0 f i GuCCTSweepTests.obj
 0001:0000b220       ?hf2shapep@HeightFieldUtil@Gu@physx@@QEBA?AV?$PxVec3T@M@3@AEBV43@@Z 000000018000c220 f i GuCCTSweepTests.obj
 0001:0000b260       ?hf2worldn@HeightFieldUtil@Gu@physx@@QEBA?AV?$PxVec3T@M@3@AEBV?$PxTransformT@M@3@AEBV43@@Z 000000018000c260 f i GuCCTSweepTests.obj
 0001:0000b3d0       ?hf2worldp@HeightFieldUtil@Gu@physx@@QEBA?AV?$PxVec3T@M@3@AEBV?$PxTransformT@M@3@AEBV43@@Z 000000018000c3d0 f i GuCCTSweepTests.obj
 0001:0000b550       ?overlapAABBTriangles0to1@HeightFieldUtil@Gu@physx@@QEBAXAEBV?$PxTransformT@M@3@AEBVPxBounds3@3@AEAVOverlapReport@23@I@Z 000000018000c550 f i GuCCTSweepTests.obj
 0001:0000b8c0       ?overlapAABBTriangles@HeightFieldUtil@Gu@physx@@QEBAXAEBV?$PxTransformT@M@3@0AEBVPxBounds3@3@AEAVOverlapReport@23@I@Z 000000018000c8c0 f i GuCCTSweepTests.obj
 0001:0000bed0       ?overlapAABBTriangles@HeightFieldUtil@Gu@physx@@QEBAXAEBV?$PxTransformT@M@3@AEBVPxBounds3@3@AEAVOverlapReport@23@I@Z 000000018000ced0 f i GuCCTSweepTests.obj
 0001:0000c590       ?sweepBoxTriangles_Precise@Gu@physx@@YA_NIPEBVPxTriangle@2@_NAEBVPxBoxGeometry@2@AEBV?$PxTransformT@M@2@AEBV?$PxVec3T@M@2@MAEAUPxGeomSweepHit@2@PEBIMV?$PxFlags@W4Enum@PxHitFlag@physx@@G@2@@Z 000000018000d590 f   GuCCTSweepTests.obj
 0001:0000d360       ?sweepBox_BoxGeom_Precise@@YA_NAEBVPxGeometry@physx@@AEBV?$PxTransformT@M@2@AEBVPxBoxGeometry@2@1AEBVBox@Gu@2@AEBV?$PxVec3T@M@2@MAEAUPxGeomSweepHit@2@V?$PxFlags@W4Enum@PxHitFlag@physx@@G@2@MPEAUPxQueryThreadContext@2@@Z 000000018000e360 f   GuCCTSweepTests.obj
 0001:0000d520       ?sweepBox_CapsuleGeom_Precise@@YA_NAEBVPxGeometry@physx@@AEBV?$PxTransformT@M@2@AEBVPxBoxGeometry@2@1AEBVBox@Gu@2@AEBV?$PxVec3T@M@2@MAEAUPxGeomSweepHit@2@V?$PxFlags@W4Enum@PxHitFlag@physx@@G@2@MPEAUPxQueryThreadContext@2@@Z 000000018000e520 f   GuCCTSweepTests.obj
 0001:0000d8f0       ?sweepBox_HeightFieldGeom_Precise@@YA_NAEBVPxGeometry@physx@@AEBV?$PxTransformT@M@2@AEBVPxBoxGeometry@2@1AEBVBox@Gu@2@AEBV?$PxVec3T@M@2@MAEAUPxGeomSweepHit@2@V?$PxFlags@W4Enum@PxHitFlag@physx@@G@2@MPEAUPxQueryThreadContext@2@@Z 000000018000e8f0 f   GuCCTSweepTests.obj
 0001:0000e0f0       ?sweepBox_SphereGeom_Precise@@YA_NAEBVPxGeometry@physx@@AEBV?$PxTransformT@M@2@AEBVPxBoxGeometry@2@1AEBVBox@Gu@2@AEBV?$PxVec3T@M@2@MAEAUPxGeomSweepHit@2@V?$PxFlags@W4Enum@PxHitFlag@physx@@G@2@MPEAUPxQueryThreadContext@2@@Z 000000018000f0f0 f   GuCCTSweepTests.obj
 0001:0000e3c0       ?sweepCapsule_BoxGeom_Precise@@YA_NAEBVPxGeometry@physx@@AEBV?$PxTransformT@M@2@AEBVPxCapsuleGeometry@2@1AEBVCapsule@Gu@2@AEBV?$PxVec3T@M@2@MAEAUPxGeomSweepHit@2@V?$PxFlags@W4Enum@PxHitFlag@physx@@G@2@MPEAUPxQueryThreadContext@2@@Z 000000018000f3c0 f   GuCCTSweepTests.obj
 0001:0000ea20       ??0?$CacheMap@UCachedEdge@Gu@physx@@$0IA@@Gu@physx@@QEAA@XZ 000000018000fa20 f i GuGeometryQuery.obj
 0001:0000eae0       ??0?$CacheMap@UCachedVertex@Gu@physx@@$0IA@@Gu@physx@@QEAA@XZ 000000018000fae0 f i GuGeometryQuery.obj
 0001:0000eba0       ??0MultiplePersistentContactManifold@Gu@physx@@QEAA@XZ 000000018000fba0 f i GuGeometryQuery.obj
 0001:0000ec00       ??0PCMMeshContactGeneration@Gu@physx@@QEAA@AEBT__m128@@0AEBVPxTransformV@aos@2@1AEAVMultiplePersistentContactManifold@12@AEAVPxContactBuffer@2@PEAV?$PxInlineArray@I$0DMA@V?$PxReflectionAllocator@I@physx@@@2@PEAVPxRenderOutput@2@@Z 000000018000fc00 f i GuGeometryQuery.obj
 0001:0000f530       ??4MultiplePersistentContactManifold@Gu@physx@@QEAAAEAV012@$$QEAV012@@Z 0000000180010530 f i GuGeometryQuery.obj
 0001:0000f840       ??4MultiplePersistentContactManifold@Gu@physx@@QEAAAEAV012@AEBV012@@Z 0000000180010840 f i GuGeometryQuery.obj
 0001:0000f860       ??_E?$SupportLocalImpl@VBoxV@Gu@physx@@@Gu@physx@@UEAAPEAXI@Z 0000000180010860 f i GuGeometryQuery.obj
 0001:0000f860       ??_E?$SupportLocalImpl@VConvexHullNoScaleV@Gu@physx@@@Gu@physx@@UEAAPEAXI@Z 0000000180010860 f i GuMTD.obj
 0001:0000f860       ??_E?$SupportLocalImpl@VConvexHullV@Gu@physx@@@Gu@physx@@UEAAPEAXI@Z 0000000180010860 f i GuGeometryQuery.obj
 0001:0000f860       ??_E?$SupportLocalImpl@VTriangleV@Gu@physx@@@Gu@physx@@UEAAPEAXI@Z 0000000180010860 f i GuPCMContactConvexCommon.obj
 0001:0000f860       ??_G?$SupportLocalImpl@VBoxV@Gu@physx@@@Gu@physx@@UEAAPEAXI@Z 0000000180010860 f i GuGeometryQuery.obj
 0001:0000f860       ??_G?$SupportLocalImpl@VConvexHullNoScaleV@Gu@physx@@@Gu@physx@@UEAAPEAXI@Z 0000000180010860 f i GuMTD.obj
 0001:0000f860       ??_G?$SupportLocalImpl@VConvexHullV@Gu@physx@@@Gu@physx@@UEAAPEAXI@Z 0000000180010860 f i GuGeometryQuery.obj
 0001:0000f860       ??_G?$SupportLocalImpl@VTriangleV@Gu@physx@@@Gu@physx@@UEAAPEAXI@Z 0000000180010860 f i GuPCMContactConvexCommon.obj
 0001:0000f890       ??_ESupportLocal@Gu@physx@@UEAAPEAXI@Z 0000000180010890 f i GuGeometryQuery.obj
 0001:0000f890       ??_GSupportLocal@Gu@physx@@UEAAPEAXI@Z 0000000180010890 f i GuGeometryQuery.obj
 0001:0000f8c0       ?clearManifold@MultiplePersistentContactManifold@Gu@physx@@QEAAXXZ 00000001800108c0 f i GuGeometryQuery.obj
 0001:0000f920       ?computeGeomBounds@PxGeometryQuery@physx@@SAXAEAVPxBounds3@2@AEBVPxGeometry@2@AEBV?$PxTransformT@M@2@MMV?$PxFlags@W4Enum@PxGeometryQueryFlag@physx@@I@2@@Z 0000000180010920 f   GuGeometryQuery.obj
 0001:0000f9a0       ?computePenetration@PxGeometryQuery@physx@@SA_NAEAV?$PxVec3T@M@2@AEAMAEBVPxGeometry@2@AEBV?$PxTransformT@M@2@23V?$PxFlags@W4Enum@PxGeometryQueryFlag@physx@@I@2@@Z 00000001800109a0 f   GuGeometryQuery.obj
 0001:0000fb10       ?doSupport@?$SupportLocalImpl@VBoxV@Gu@physx@@@Gu@physx@@UEBA?AT__m128@@AEBT4@@Z 0000000180010b10 f i GuGeometryQuery.obj
 0001:0000fb40       ?doSupport@?$SupportLocalImpl@VBoxV@Gu@physx@@@Gu@physx@@UEBAXAEBT__m128@@AEAT4@1@Z 0000000180010b40 f i GuGeometryQuery.obj
 0001:0000fb90       ?doSupport@?$SupportLocalImpl@VConvexHullV@Gu@physx@@@Gu@physx@@UEBA?AT__m128@@AEBT4@@Z 0000000180010b90 f i GuGeometryQuery.obj
 0001:0000fc70       ?doSupport@?$SupportLocalImpl@VConvexHullV@Gu@physx@@@Gu@physx@@UEBAXAEBT__m128@@AEAT4@1@Z 0000000180010c70 f i GuGeometryQuery.obj
 0001:0000ffd0       ?generateTriangleContacts@PxGeometryQuery@physx@@SA_NAEBVPxGeometry@2@AEBV?$PxTransformT@M@2@QEBV?$PxVec3T@M@2@IMMMAEAVPxContactBuffer@2@@Z 0000000180010fd0 f   GuGeometryQuery.obj
 0001:000119d0       ?getEmptyManifold@MultiplePersistentContactManifold@Gu@physx@@QEAAPEAVSinglePersistentContactManifold@23@XZ 00000001800129d0 f i GuGeometryQuery.obj
 0001:000119f0       ?getManifold@MultiplePersistentContactManifold@Gu@physx@@QEAAPEAVSinglePersistentContactManifold@23@I@Z 00000001800129f0 f i GuGeometryQuery.obj
 0001:000119f0       ?getManifold@MultiplePersistentContactManifold@Gu@physx@@QEBAPEBVSinglePersistentContactManifold@23@I@Z 00000001800129f0 f i GuGeometryQuery.obj
 0001:00011a10       ?getUniqueID@PxCustomGeometry@physx@@SAIXZ 0000000180012a10 f   GuGeometryQuery.obj
 0001:00011a30       ?hillClimbing@ConvexHullV@Gu@physx@@QEBAIAEBT__m128@@@Z 0000000180012a30 f i GuGeometryQuery.obj
 0001:00011c60       ?initialize@MultiplePersistentContactManifold@Gu@physx@@QEAAXXZ 0000000180012c60 f i GuGeometryQuery.obj
 0001:00011cc0       ?invalidate@MultiplePersistentContactManifold@Gu@physx@@QEBAIAEBVPxTransformV@aos@3@AEBT__m128@@1@Z 0000000180012cc0 f i GuGeometryQuery.obj
 0001:00011d30       ?invalidate@MultiplePersistentContactManifold@Gu@physx@@QEBAIAEBVPxTransformV@aos@3@AEBT__m128@@@Z 0000000180012d30 f i GuGeometryQuery.obj
 0001:00011da0       ?isUnit@?$PxQuatT@M@physx@@QEBA_NXZ 0000000180012da0 f i GuGeometryQuery.obj
 0001:00011e60       ?isValid@PxGeometryQuery@physx@@SA_NAEBVPxGeometry@2@@Z 0000000180012e60 f   GuGeometryQuery.obj
 0001:00012170       ?maxTransformPositionDelta@MultiplePersistentContactManifold@Gu@physx@@QEBA?AT__m128@@AEBT4@@Z 0000000180013170 f i GuGeometryQuery.obj
 0001:000121b0       ?maxTransformQuatDelta@MultiplePersistentContactManifold@Gu@physx@@QEBA?AT__m128@@AEBT4@@Z 00000001800131b0 f i GuGeometryQuery.obj
 0001:000121f0       ?overlap@PxGeometryQuery@physx@@SA_NAEBVPxGeometry@2@AEBV?$PxTransformT@M@2@01V?$PxFlags@W4Enum@PxGeometryQueryFlag@physx@@I@2@PEAUPxQueryThreadContext@2@@Z 00000001800131f0 f   GuGeometryQuery.obj
 0001:000122c0       ?pointDistance@PxGeometryQuery@physx@@SAMAEBV?$PxVec3T@M@2@AEBVPxGeometry@2@AEBV?$PxTransformT@M@2@PEAV32@PEAIV?$PxFlags@W4Enum@PxGeometryQueryFlag@physx@@I@2@@Z 00000001800132c0 f   GuGeometryQuery.obj
 0001:00012a50       ?populateVerts@?$SupportLocalImpl@VBoxV@Gu@physx@@@Gu@physx@@UEBAXPEBEIPEBV?$PxVec3T@M@3@PEAT__m128@@@Z 0000000180013a50 f i GuGeometryQuery.obj
 0001:00012a90       ?populateVerts@?$SupportLocalImpl@VConvexHullV@Gu@physx@@@Gu@physx@@UEBAXPEBEIPEBV?$PxVec3T@M@3@PEAT__m128@@@Z 0000000180013a90 f i GuGeometryQuery.obj
 0001:00012af0       ?raycast@PxGeometryQuery@physx@@SAIAEBV?$PxVec3T@M@2@0AEBVPxGeometry@2@AEBV?$PxTransformT@M@2@MV?$PxFlags@W4Enum@PxHitFlag@physx@@G@2@IPEIAUPxGeomRaycastHit@2@IV?$PxFlags@W4Enum@PxGeometryQueryFlag@physx@@I@2@PEAUPxQueryThreadContext@2@@Z 0000000180013af0 f   GuGeometryQuery.obj
 0001:00012bf0       ?reduceManifoldContactsInDifferentPatches@MultiplePersistentContactManifold@Gu@physx@@QEBAIPEAPEAUPCMContactPatch@23@IPEAVMeshPersistentContact@23@IAEBT__m128@@@Z 0000000180013bf0 f i GuGeometryQuery.obj
 0001:00012d60       ?refineContactPatchConnective@MultiplePersistentContactManifold@Gu@physx@@QEBAXPEAPEAUPCMContactPatch@23@IPEAVMeshPersistentContact@23@AEBT__m128@@@Z 0000000180013d60 f i GuGeometryQuery.obj
 0001:00012e50       ?refreshManifold@MultiplePersistentContactManifold@Gu@physx@@QEAAXAEBVPxMatTransformV@aos@3@AEBT__m128@@1@Z 0000000180013e50 f i GuGeometryQuery.obj
 0001:00012f50       ?setRelativeTransform@MultiplePersistentContactManifold@Gu@physx@@QEAAXAEBVPxTransformV@aos@3@@Z 0000000180013f50 f i GuGeometryQuery.obj
 0001:00012f60       ?supportVertexIndex@ConvexHullV@Gu@physx@@QEBAIAEBT__m128@@@Z 0000000180013f60 f i GuGeometryQuery.obj
 0001:000131c0       ?sweep@PxGeometryQuery@physx@@SA_NAEBV?$PxVec3T@M@2@MAEBVPxGeometry@2@AEBV?$PxTransformT@M@2@12AEAUPxGeomSweepHit@2@V?$PxFlags@W4Enum@PxHitFlag@physx@@G@2@MV?$PxFlags@W4Enum@PxGeometryQueryFlag@physx@@I@2@PEAUPxQueryThreadContext@2@@Z 00000001800141c0 f   GuGeometryQuery.obj
 0001:00013600       ?computeBoxPoints@Gu@physx@@YAXAEBVPxBounds3@2@PEIAV?$PxVec3T@M@2@@Z 0000000180014600 f   GuInternal.obj
 0001:000136a0       ?computeSweptBox@Gu@physx@@YAXAEAVBox@12@AEBV?$PxVec3T@M@2@1AEBV?$PxMat33T@M@2@1M@Z 00000001800146a0 f   GuInternal.obj
 0001:00013bb0       ?getPlane@Gu@physx@@YA?AVPxPlane@2@AEBV?$PxTransformT@M@2@@Z 0000000180014bb0 f   GuInternal.obj
 0001:00013c60       ??_ECallbackRaycast@RTree@Gu@physx@@UEAAPEAXI@Z 0000000180014c60 f i GuMidphaseRTree.obj
 0001:00013c60       ??_ECallbackRefit@RTree@Gu@physx@@UEAAPEAXI@Z 0000000180014c60 f i GuTriangleMeshRTree.obj
 0001:00013c60       ??_EPxInsertionCallback@physx@@MEAAPEAXI@Z 0000000180014c60 f i GuMeshFactory.obj
 0001:00013c60       ??_GCallbackRaycast@RTree@Gu@physx@@UEAAPEAXI@Z 0000000180014c60 f i GuMidphaseRTree.obj
 0001:00013c60       ??_GCallbackRefit@RTree@Gu@physx@@UEAAPEAXI@Z 0000000180014c60 f i GuTriangleMeshRTree.obj
 0001:00013c60       ??_GPxInsertionCallback@physx@@MEAAPEAXI@Z 0000000180014c60 f i GuMeshFactory.obj
 0001:00014030       ??$copy@V?$PxReflectionAllocator@USlab@NodeAllocator@Gu@physx@@@physx@@@?$PxArray@USlab@NodeAllocator@Gu@physx@@V?$PxReflectionAllocator@USlab@NodeAllocator@Gu@physx@@@4@@physx@@IEAAXAEBV01@@Z 0000000180015030 f i GuMeshFactory.obj
 0001:000140f0       ??$localSupport@$0A@@ConvexCore@Gu@physx@@YA?AV?$PxVec3T@M@2@AEBV32@PEBX@Z 00000001800150f0 f i GuOverlapTests.obj
 0001:000140f0       ??0AABBTreeBounds@Gu@physx@@QEAA@XZ 00000001800150f0 f i GuMeshFactory.obj
 0001:00014100       ??0AABBTreeBuildNode@Gu@physx@@QEAA@AEBV012@@Z 0000000180015100 f i GuMeshFactory.obj
 0001:00014100       ??4AABBTreeBuildNode@Gu@physx@@QEAAAEAV012@AEBV012@@Z 0000000180015100 f i GuMeshFactory.obj
 0001:00014140       ??0AABBTreeBuildParams@Gu@physx@@QEAA@IIPEBVAABBTreeBounds@12@W4BVHBuildStrategy@12@@Z 0000000180015140 f i GuMeshFactory.obj
 0001:00014160       ??0MeshFactory@Gu@physx@@QEAA@XZ 0000000180015160 f   GuMeshFactory.obj
 0001:00014360       ??0NodeAllocator@Gu@physx@@QEAA@AEBV012@@Z 0000000180015360 f i GuMeshFactory.obj
 0001:000143a0       ??0TriangleMeshData@Gu@physx@@QEAA@XZ 00000001800153a0 f i GuMeshFactory.obj
 0001:000144c0       ??1AABBTreeBounds@Gu@physx@@QEAA@XZ 00000001800154c0 f i GuMeshFactory.obj
 0001:000144d0       ??1AABBTreeBuildParams@Gu@physx@@QEAA@XZ 00000001800154d0 f i GuMeshFactory.obj
 0001:000144d0       ?reset@AABBTreeBuildParams@Gu@physx@@QEAAXXZ 00000001800154d0 f i GuMeshFactory.obj
 0001:00014520       ??1CollisionMeshMappingData@Gu@physx@@UEAA@XZ 0000000180015520 f i GuMeshFactory.obj
 0001:00014670       ??1DeformableVolumeCollisionData@Gu@physx@@UEAA@XZ 0000000180015670 f i GuMeshFactory.obj
 0001:000147b0       ??1DeformableVolumeSimulationData@Gu@physx@@UEAA@XZ 00000001800157b0 f i GuMeshFactory.obj
 0001:000148d0       ??1MeshDataBase@Gu@physx@@UEAA@XZ 00000001800158d0 f i GuMeshFactory.obj
 0001:00014a10       ??1MeshFactory@Gu@physx@@MEAA@XZ 0000000180015a10 f   GuMeshFactory.obj
 0001:00014b50       ??1RTreeTriangleData@Gu@physx@@UEAA@XZ 0000000180015b50 f i GuMeshFactory.obj
 0001:00014bc0       ??1TetrahedronMeshData@Gu@physx@@QEAA@XZ 0000000180015bc0 f i GuMeshFactory.obj
 0001:00014c50       ??1TriangleMeshData@Gu@physx@@UEAA@XZ 0000000180015c50 f i GuMeshFactory.obj
 0001:00014d80       ??4NodeAllocator@Gu@physx@@QEAAAEAV012@AEBV012@@Z 0000000180015d80 f i GuMeshFactory.obj
 0001:00014e30       ??_EMeshFactory@Gu@physx@@MEAAPEAXI@Z 0000000180015e30 f i GuMeshFactory.obj
 0001:00014f50       ??_FAABBTreeBuildParams@Gu@physx@@QEAAXXZ 0000000180015f50 f i GuMeshFactory.obj
 0001:00014f70       ??_EBV4TriangleData@Gu@physx@@UEAAPEAXI@Z 0000000180015f70 f i GuMeshFactory.obj
 0001:00014f70       ??_GBV4TriangleData@Gu@physx@@UEAAPEAXI@Z 0000000180015f70 f i GuMeshFactory.obj
 0001:00015000       ??_ECollisionMeshMappingData@Gu@physx@@UEAAPEAXI@Z 0000000180016000 f i GuMeshFactory.obj
 0001:00015000       ??_GCollisionMeshMappingData@Gu@physx@@UEAAPEAXI@Z 0000000180016000 f i GuMeshFactory.obj
 0001:00015070       ??_EDeformableVolumeCollisionData@Gu@physx@@UEAAPEAXI@Z 0000000180016070 f i GuMeshFactory.obj
 0001:00015070       ??_GDeformableVolumeCollisionData@Gu@physx@@UEAAPEAXI@Z 0000000180016070 f i GuMeshFactory.obj
 0001:000150e0       ??_EDeformableVolumeSimulationData@Gu@physx@@UEAAPEAXI@Z 00000001800160e0 f i GuMeshFactory.obj
 0001:000150e0       ??_GDeformableVolumeSimulationData@Gu@physx@@UEAAPEAXI@Z 00000001800160e0 f i GuMeshFactory.obj
 0001:00015150       ??_EMeshDataBase@Gu@physx@@UEAAPEAXI@Z 0000000180016150 f i GuMeshFactory.obj
 0001:00015150       ??_GMeshDataBase@Gu@physx@@UEAAPEAXI@Z 0000000180016150 f i GuMeshFactory.obj
 0001:000151c0       ??_EPxCollisionMeshMappingData@physx@@UEAAPEAXI@Z 00000001800161c0 f i GuMeshFactory.obj
 0001:000151c0       ??_GPxCollisionMeshMappingData@physx@@UEAAPEAXI@Z 00000001800161c0 f i GuMeshFactory.obj
 0001:00015210       ??_ERTreeTriangleData@Gu@physx@@UEAAPEAXI@Z 0000000180016210 f i GuMeshFactory.obj
 0001:00015210       ??_GRTreeTriangleData@Gu@physx@@UEAAPEAXI@Z 0000000180016210 f i GuMeshFactory.obj
 0001:000152c0       ??_ETriangleMeshData@Gu@physx@@UEAAPEAXI@Z 00000001800162c0 f i GuMeshFactory.obj
 0001:000152c0       ??_GTriangleMeshData@Gu@physx@@UEAAPEAXI@Z 00000001800162c0 f i GuMeshFactory.obj
 0001:00015330       ??_V@YAXPEAX_K@Z           0000000180016330 f i LIBCMT:delete_array_size.obj
 0001:00015330       ?__global_delete@@YAXPEAX_K@Z 0000000180016330 f i GuMeshFactory.obj
 0001:00015340       ?addBVH@MeshFactory@Gu@physx@@QEAAXPEAVBVH@23@_N@Z 0000000180016340 f   GuMeshFactory.obj
 0001:000153c0       ?addConvexMesh@MeshFactory@Gu@physx@@QEAAXPEAVConvexMesh@23@_N@Z 00000001800163c0 f   GuMeshFactory.obj
 0001:00015440       ?addDeformableVolumeMesh@MeshFactory@Gu@physx@@QEAAXPEAVDeformableVolumeMesh@23@_N@Z 0000000180016440 f   GuMeshFactory.obj
 0001:000154c0       ?addFactoryListener@MeshFactory@Gu@physx@@QEAAXAEAVMeshFactoryListener@23@@Z 00000001800164c0 f   GuMeshFactory.obj
 0001:00015530       ?addHeightField@MeshFactory@Gu@physx@@QEAAXPEAVHeightField@23@_N@Z 0000000180016530 f   GuMeshFactory.obj
 0001:000155b0       ?addTetrahedronMesh@MeshFactory@Gu@physx@@QEAAXPEAVTetrahedronMesh@23@_N@Z 00000001800165b0 f   GuMeshFactory.obj
 0001:00015630       ?addTriangleMesh@MeshFactory@Gu@physx@@QEAAXPEAVTriangleMesh@23@_N@Z 0000000180016630 f   GuMeshFactory.obj
 0001:000156b0       ?allocate@?$PxArray@USlab@NodeAllocator@Gu@physx@@V?$PxReflectionAllocator@USlab@NodeAllocator@Gu@physx@@@4@@physx@@IEAAPEAUSlab@NodeAllocator@Gu@2@IPEAI@Z 00000001800166b0 f i GuMeshFactory.obj
 0001:00015740       ?allocateAdjacencies@TriangleMeshData@Gu@physx@@QEAAPEAIXZ 0000000180016740 f i GuMeshFactory.obj
 0001:000157b0       ?allocateExtraTrigData@TriangleMeshData@Gu@physx@@QEAAPEAEXZ 00000001800167b0 f i GuMeshFactory.obj
 0001:00015820       ?allocateFaceRemap@TriangleMeshData@Gu@physx@@QEAAPEAIXZ 0000000180016820 f i GuMeshFactory.obj
 0001:00015890       ?allocateGridModelData@DeformableVolumeSimulationData@Gu@physx@@QEAAXIIIIIII@Z 0000000180016890 f i GuMeshFactory.obj
 0001:00015b00       ?allocateMaterials@TetrahedronMeshData@Gu@physx@@QEAAPEAGXZ 0000000180016b00 f i GuMeshFactory.obj
 0001:00015b70       ?allocateMaterials@TriangleMeshData@Gu@physx@@QEAAPEAGXZ 0000000180016b70 f i GuMeshFactory.obj
 0001:00015be0       ?allocateTetrahedrons@TetrahedronMeshData@Gu@physx@@QEAAXII@Z 0000000180016be0 f i GuMeshFactory.obj
 0001:00015c70       ?allocateTriangles@TriangleMeshData@Gu@physx@@QEAAPEAXI_NI@Z 0000000180016c70 f i GuMeshFactory.obj
 0001:00015d60       ?allocateVertices@MeshDataBase@Gu@physx@@QEAAPEAV?$PxVec3T@M@3@I@Z 0000000180016d60 f i GuMeshFactory.obj
 0001:00015dd0       ?allocateVertices@TetrahedronMeshData@Gu@physx@@QEAAPEAV?$PxVec3T@M@3@II@Z 0000000180016dd0 f i GuMeshFactory.obj
 0001:00015e70       ?allocatemappingData@CollisionMeshMappingData@Gu@physx@@QEAAXIIII@Z 0000000180016e70 f i GuMeshFactory.obj
 0001:00016050       ?create@?$PxHashBase@PEAVBVH@Gu@physx@@PEAV123@U?$PxHash@PEAVBVH@Gu@physx@@@3@UGetKey@?$PxHashSetBase@PEAVBVH@Gu@physx@@U?$PxHash@PEAVBVH@Gu@physx@@@3@VPxAllocator@3@$00@3@VPxAllocator@3@$00@physx@@QEAAPEAPEAVBVH@Gu@2@AEBQEAV342@AEA_N@Z 0000000180017050 f i GuMeshFactory.obj
 0001:00016050       ?create@?$PxHashBase@PEAVConvexMesh@Gu@physx@@PEAV123@U?$PxHash@PEAVConvexMesh@Gu@physx@@@3@UGetKey@?$PxHashSetBase@PEAVConvexMesh@Gu@physx@@U?$PxHash@PEAVConvexMesh@Gu@physx@@@3@VPxAllocator@3@$00@3@VPxAllocator@3@$00@physx@@QEAAPEAPEAVConvexMesh@Gu@2@AEBQEAV342@AEA_N@Z 0000000180017050 f i GuMeshFactory.obj
 0001:00016050       ?create@?$PxHashBase@PEAVDeformableVolumeMesh@Gu@physx@@PEAV123@U?$PxHash@PEAVDeformableVolumeMesh@Gu@physx@@@3@UGetKey@?$PxHashSetBase@PEAVDeformableVolumeMesh@Gu@physx@@U?$PxHash@PEAVDeformableVolumeMesh@Gu@physx@@@3@VPxAllocator@3@$00@3@VPxAllocator@3@$00@physx@@QEAAPEAPEAVDeformableVolumeMesh@Gu@2@AEBQEAV342@AEA_N@Z 0000000180017050 f i GuMeshFactory.obj
 0001:00016050       ?create@?$PxHashBase@PEAVHeightField@Gu@physx@@PEAV123@U?$PxHash@PEAVHeightField@Gu@physx@@@3@UGetKey@?$PxHashSetBase@PEAVHeightField@Gu@physx@@U?$PxHash@PEAVHeightField@Gu@physx@@@3@VPxAllocator@3@$00@3@VPxAllocator@3@$00@physx@@QEAAPEAPEAVHeightField@Gu@2@AEBQEAV342@AEA_N@Z 0000000180017050 f i GuMeshFactory.obj
 0001:00016050       ?create@?$PxHashBase@PEAVTetrahedronMesh@Gu@physx@@PEAV123@U?$PxHash@PEAVTetrahedronMesh@Gu@physx@@@3@UGetKey@?$PxHashSetBase@PEAVTetrahedronMesh@Gu@physx@@U?$PxHash@PEAVTetrahedronMesh@Gu@physx@@@3@VPxAllocator@3@$00@3@VPxAllocator@3@$00@physx@@QEAAPEAPEAVTetrahedronMesh@Gu@2@AEBQEAV342@AEA_N@Z 0000000180017050 f i GuMeshFactory.obj
 0001:00016050       ?create@?$PxHashBase@PEAVTriangleMesh@Gu@physx@@PEAV123@U?$PxHash@PEAVTriangleMesh@Gu@physx@@@3@UGetKey@?$PxHashSetBase@PEAVTriangleMesh@Gu@physx@@U?$PxHash@PEAVTriangleMesh@Gu@physx@@@3@VPxAllocator@3@$00@3@VPxAllocator@3@$00@physx@@QEAAPEAPEAVTriangleMesh@Gu@2@AEBQEAV342@AEA_N@Z 0000000180017050 f i GuMeshFactory.obj
 0001:000161e0       ?createBVH@MeshFactory@Gu@physx@@IEAAPEAVPxBVH@3@AEAVBVHData@23@@Z 00000001800171e0 f   GuMeshFactory.obj
 0001:000162d0       ?createBVH@MeshFactory@Gu@physx@@QEAAPEAVPxBVH@3@AEAVPxInputStream@3@@Z 00000001800172d0 f   GuMeshFactory.obj
 0001:000163f0       ?createBVH@MeshFactory@Gu@physx@@QEAAPEAVPxBVH@3@PEAX@Z 00000001800173f0 f   GuMeshFactory.obj
 0001:00016400       ?createConvexMesh@MeshFactory@Gu@physx@@IEAAPEAVPxConvexMesh@3@AEAUConvexHullInitData@23@@Z 0000000180017400 f   GuMeshFactory.obj
 0001:000164f0       ?createConvexMesh@MeshFactory@Gu@physx@@QEAAPEAVPxConvexMesh@3@AEAVPxInputStream@3@@Z 00000001800174f0 f   GuMeshFactory.obj
 0001:00016610       ?createConvexMesh@MeshFactory@Gu@physx@@QEAAPEAVPxConvexMesh@3@PEAX@Z 0000000180017610 f   GuMeshFactory.obj
 0001:00016620       ?createDeformableVolumeMesh@MeshFactory@Gu@physx@@IEAAPEAVPxDeformableVolumeMesh@3@AEAVDeformableVolumeMeshData@23@@Z 0000000180017620 f   GuMeshFactory.obj
 0001:00016710       ?createDeformableVolumeMesh@MeshFactory@Gu@physx@@QEAAPEAVPxDeformableVolumeMesh@3@AEAVPxInputStream@3@@Z 0000000180017710 f   GuMeshFactory.obj
 0001:00016d00       ?createDeformableVolumeMesh@MeshFactory@Gu@physx@@QEAAPEAVPxDeformableVolumeMesh@3@PEAX@Z 0000000180017d00 f   GuMeshFactory.obj
 0001:00016d10       ?createHeightField@MeshFactory@Gu@physx@@QEAAPEAVPxHeightField@3@AEAVPxInputStream@3@@Z 0000000180017d10 f   GuMeshFactory.obj
 0001:00016e30       ?createHeightField@MeshFactory@Gu@physx@@QEAAPEAVPxHeightField@3@PEAX@Z 0000000180017e30 f   GuMeshFactory.obj
 0001:00016f20       ?createTetrahedronMesh@MeshFactory@Gu@physx@@IEAAPEAVPxTetrahedronMesh@3@AEAVTetrahedronMeshData@23@@Z 0000000180017f20 f   GuMeshFactory.obj
 0001:00017010       ?createTetrahedronMesh@MeshFactory@Gu@physx@@QEAAPEAVPxTetrahedronMesh@3@AEAVPxInputStream@3@@Z 0000000180018010 f   GuMeshFactory.obj
 0001:00017080       ?createTetrahedronMesh@MeshFactory@Gu@physx@@QEAAPEAVPxTetrahedronMesh@3@PEAX@Z 0000000180018080 f   GuMeshFactory.obj
 0001:00017090       ?createTriangleMesh@MeshFactory@Gu@physx@@IEAAPEAVPxTriangleMesh@3@AEAVTriangleMeshData@23@@Z 0000000180018090 f   GuMeshFactory.obj
 0001:00017210       ?createTriangleMesh@MeshFactory@Gu@physx@@QEAAPEAVPxTriangleMesh@3@AEAVPxInputStream@3@@Z 0000000180018210 f   GuMeshFactory.obj
 0001:00017270       ?createTriangleMesh@MeshFactory@Gu@physx@@QEAAPEAVPxTriangleMesh@3@PEAX@Z 0000000180018270 f   GuMeshFactory.obj
 0001:00017280       ?erase@?$PxHashBase@PEAVBVH@Gu@physx@@PEAV123@U?$PxHash@PEAVBVH@Gu@physx@@@3@UGetKey@?$PxHashSetBase@PEAVBVH@Gu@physx@@U?$PxHash@PEAVBVH@Gu@physx@@@3@VPxAllocator@3@$00@3@VPxAllocator@3@$00@physx@@QEAA_NAEBQEAVBVH@Gu@2@@Z 0000000180018280 f i GuMeshFactory.obj
 0001:00017280       ?erase@?$PxHashBase@PEAVConvexMesh@Gu@physx@@PEAV123@U?$PxHash@PEAVConvexMesh@Gu@physx@@@3@UGetKey@?$PxHashSetBase@PEAVConvexMesh@Gu@physx@@U?$PxHash@PEAVConvexMesh@Gu@physx@@@3@VPxAllocator@3@$00@3@VPxAllocator@3@$00@physx@@QEAA_NAEBQEAVConvexMesh@Gu@2@@Z 0000000180018280 f i GuMeshFactory.obj
 0001:00017280       ?erase@?$PxHashBase@PEAVDeformableVolumeMesh@Gu@physx@@PEAV123@U?$PxHash@PEAVDeformableVolumeMesh@Gu@physx@@@3@UGetKey@?$PxHashSetBase@PEAVDeformableVolumeMesh@Gu@physx@@U?$PxHash@PEAVDeformableVolumeMesh@Gu@physx@@@3@VPxAllocator@3@$00@3@VPxAllocator@3@$00@physx@@QEAA_NAEBQEAVDeformableVolumeMesh@Gu@2@@Z 0000000180018280 f i GuMeshFactory.obj
 0001:00017280       ?erase@?$PxHashBase@PEAVHeightField@Gu@physx@@PEAV123@U?$PxHash@PEAVHeightField@Gu@physx@@@3@UGetKey@?$PxHashSetBase@PEAVHeightField@Gu@physx@@U?$PxHash@PEAVHeightField@Gu@physx@@@3@VPxAllocator@3@$00@3@VPxAllocator@3@$00@physx@@QEAA_NAEBQEAVHeightField@Gu@2@@Z 0000000180018280 f i GuMeshFactory.obj
 0001:00017280       ?erase@?$PxHashBase@PEAVTetrahedronMesh@Gu@physx@@PEAV123@U?$PxHash@PEAVTetrahedronMesh@Gu@physx@@@3@UGetKey@?$PxHashSetBase@PEAVTetrahedronMesh@Gu@physx@@U?$PxHash@PEAVTetrahedronMesh@Gu@physx@@@3@VPxAllocator@3@$00@3@VPxAllocator@3@$00@physx@@QEAA_NAEBQEAVTetrahedronMesh@Gu@2@@Z 0000000180018280 f i GuMeshFactory.obj
 0001:00017280       ?erase@?$PxHashBase@PEAVTriangleMesh@Gu@physx@@PEAV123@U?$PxHash@PEAVTriangleMesh@Gu@physx@@@3@UGetKey@?$PxHashSetBase@PEAVTriangleMesh@Gu@physx@@U?$PxHash@PEAVTriangleMesh@Gu@physx@@@3@VPxAllocator@3@$00@3@VPxAllocator@3@$00@physx@@QEAA_NAEBQEAVTriangleMesh@Gu@2@@Z 0000000180018280 f i GuMeshFactory.obj
 0001:00017400       ?getBVHs@MeshFactory@Gu@physx@@QEBAIPEAPEAVPxBVH@3@II@Z 0000000180018400 f   GuMeshFactory.obj
 0001:000174a0       ?getBounds@AABBTreeBounds@Gu@physx@@QEAAPEAVPxBounds3@3@XZ 00000001800184a0 f i GuMeshFactory.obj
 0001:000174a0       ?getBounds@AABBTreeBounds@Gu@physx@@QEBAPEBVPxBounds3@3@XZ 00000001800184a0 f i GuMeshFactory.obj
 0001:000174b0       ?getConvexMeshes@MeshFactory@Gu@physx@@QEBAIPEAPEAVPxConvexMesh@3@II@Z 00000001800184b0 f   GuMeshFactory.obj
 0001:00017550       ?getDeformableVolumeMeshes@MeshFactory@Gu@physx@@QEBAIPEAPEAVPxDeformableVolumeMesh@3@II@Z 0000000180018550 f   GuMeshFactory.obj
 0001:000175f0       ?getHeightFields@MeshFactory@Gu@physx@@QEBAIPEAPEAVPxHeightField@3@II@Z 00000001800185f0 f   GuMeshFactory.obj
 0001:00017690       ?getNbBVHs@MeshFactory@Gu@physx@@QEBAIXZ 0000000180018690 f   GuMeshFactory.obj
 0001:000176d0       ?getNbConvexMeshes@MeshFactory@Gu@physx@@QEBAIXZ 00000001800186d0 f   GuMeshFactory.obj
 0001:00017710       ?getNbDeformableVolumeMeshes@MeshFactory@Gu@physx@@QEBAIXZ 0000000180018710 f   GuMeshFactory.obj
 0001:00017750       ?getNbHeightFields@MeshFactory@Gu@physx@@QEBAIXZ 0000000180018750 f   GuMeshFactory.obj
 0001:00017790       ?getNbPrimitives@AABBTreeBuildNode@Gu@physx@@QEBAIXZ 0000000180018790 f i GuMeshFactory.obj
 0001:00017790       ?getNbRuntimePrimitives@AABBTreeBuildNode@Gu@physx@@QEBAIXZ 0000000180018790 f i GuMeshFactory.obj
 0001:000177a0       ?getNbTetrahedronMeshes@MeshFactory@Gu@physx@@QEBAIXZ 00000001800187a0 f   GuMeshFactory.obj
 0001:000177e0       ?getNbTriangleMeshes@MeshFactory@Gu@physx@@QEBAIXZ 00000001800187e0 f   GuMeshFactory.obj
 0001:00017820       ?getNeg@AABBTreeBuildNode@Gu@physx@@QEBAPEBV123@XZ 0000000180018820 f i GuMeshFactory.obj
 0001:00017840       ?getPrimitives@AABBTreeBuildNode@Gu@physx@@QEAAPEAIPEAI@Z 0000000180018840 f i GuMeshFactory.obj
 0001:00017840       ?getPrimitives@AABBTreeBuildNode@Gu@physx@@QEBAPEBIPEBI@Z 0000000180018840 f i GuMeshFactory.obj
 0001:00017850       ?getTetrahedronMeshes@MeshFactory@Gu@physx@@QEBAIPEAPEAVPxTetrahedronMesh@3@II@Z 0000000180018850 f   GuMeshFactory.obj
 0001:000178e0       ?getTriangleMeshes@MeshFactory@Gu@physx@@QEBAIPEAPEAVPxTriangleMesh@3@II@Z 00000001800188e0 f   GuMeshFactory.obj
 0001:00017970       ?growAndPushBack@?$PxArray@PEAVMeshFactoryListener@Gu@physx@@V?$PxReflectionAllocator@PEAVMeshFactoryListener@Gu@physx@@@3@@physx@@IEAAAEAPEAVMeshFactoryListener@Gu@2@AEBQEAV342@@Z 0000000180018970 f i GuMeshFactory.obj
 0001:00017a90       ?isLeaf@AABBTreeBuildNode@Gu@physx@@QEBA_NXZ 0000000180018a90 f i GuMeshFactory.obj
 0001:00019540       ?moveFrom@AABBTreeBounds@Gu@physx@@QEAAXAEAV123@@Z 000000018001a540 f i GuMeshFactory.obj
 0001:00019550       ?notifyFactoryListener@MeshFactory@Gu@physx@@QEAAXPEBVPxBase@3@G@Z 000000018001a550 f   GuMeshFactory.obj
 0001:000195c0       ?ownsMemory@AABBTreeBounds@Gu@physx@@QEBA_NXZ 000000018001a5c0 f i GuMeshFactory.obj
 0001:000198a0       ?recreate@?$PxArray@USlab@NodeAllocator@Gu@physx@@V?$PxReflectionAllocator@USlab@NodeAllocator@Gu@physx@@@4@@physx@@IEAAXI@Z 000000018001a8a0 f i GuMeshFactory.obj
 0001:00019990       ?release@CollisionMeshMappingData@Gu@physx@@UEAAXXZ 000000018001a990 f i GuMeshFactory.obj
 0001:000199b0       ?release@MeshFactory@Gu@physx@@QEAAXXZ 000000018001a9b0 f   GuMeshFactory.obj
 0001:00019ab0       ?remove@MeshFactory@Gu@physx@@QEAA_NAEAVPxBase@3@@Z 000000018001aab0 f   GuMeshFactory.obj
 0001:00019bb0       ?removeBVH@MeshFactory@Gu@physx@@QEAA_NAEAVPxBVH@3@@Z 000000018001abb0 f   GuMeshFactory.obj
 0001:00019c00       ?removeConvexMesh@MeshFactory@Gu@physx@@QEAA_NAEAVPxConvexMesh@3@@Z 000000018001ac00 f   GuMeshFactory.obj
 0001:00019c50       ?removeDeformableVolumeMesh@MeshFactory@Gu@physx@@QEAA_NAEAVPxDeformableVolumeMesh@3@@Z 000000018001ac50 f   GuMeshFactory.obj
 0001:00019ca0       ?removeFactoryListener@MeshFactory@Gu@physx@@QEAAXAEAVMeshFactoryListener@23@@Z 000000018001aca0 f   GuMeshFactory.obj
 0001:00019d30       ?removeHeightField@MeshFactory@Gu@physx@@QEAA_NAEAVPxHeightField@3@@Z 000000018001ad30 f   GuMeshFactory.obj
 0001:00019d80       ?removeTetrahedronMesh@MeshFactory@Gu@physx@@QEAA_NAEAVPxTetrahedronMesh@3@@Z 000000018001ad80 f   GuMeshFactory.obj
 0001:00019dd0       ?removeTriangleMesh@MeshFactory@Gu@physx@@QEAA_NAEAVPxTriangleMesh@3@@Z 000000018001add0 f   GuMeshFactory.obj
 0001:00019e20       ?reserveInternal@?$PxHashBase@PEAVBVH@Gu@physx@@PEAV123@U?$PxHash@PEAVBVH@Gu@physx@@@3@UGetKey@?$PxHashSetBase@PEAVBVH@Gu@physx@@U?$PxHash@PEAVBVH@Gu@physx@@@3@VPxAllocator@3@$00@3@VPxAllocator@3@$00@physx@@AEAAXI@Z 000000018001ae20 f i GuMeshFactory.obj
 0001:00019e20       ?reserveInternal@?$PxHashBase@PEAVConvexMesh@Gu@physx@@PEAV123@U?$PxHash@PEAVConvexMesh@Gu@physx@@@3@UGetKey@?$PxHashSetBase@PEAVConvexMesh@Gu@physx@@U?$PxHash@PEAVConvexMesh@Gu@physx@@@3@VPxAllocator@3@$00@3@VPxAllocator@3@$00@physx@@AEAAXI@Z 000000018001ae20 f i GuMeshFactory.obj
 0001:00019e20       ?reserveInternal@?$PxHashBase@PEAVDeformableVolumeMesh@Gu@physx@@PEAV123@U?$PxHash@PEAVDeformableVolumeMesh@Gu@physx@@@3@UGetKey@?$PxHashSetBase@PEAVDeformableVolumeMesh@Gu@physx@@U?$PxHash@PEAVDeformableVolumeMesh@Gu@physx@@@3@VPxAllocator@3@$00@3@VPxAllocator@3@$00@physx@@AEAAXI@Z 000000018001ae20 f i GuMeshFactory.obj
 0001:00019e20       ?reserveInternal@?$PxHashBase@PEAVHeightField@Gu@physx@@PEAV123@U?$PxHash@PEAVHeightField@Gu@physx@@@3@UGetKey@?$PxHashSetBase@PEAVHeightField@Gu@physx@@U?$PxHash@PEAVHeightField@Gu@physx@@@3@VPxAllocator@3@$00@3@VPxAllocator@3@$00@physx@@AEAAXI@Z 000000018001ae20 f i GuMeshFactory.obj
 0001:00019e20       ?reserveInternal@?$PxHashBase@PEAVTetrahedronMesh@Gu@physx@@PEAV123@U?$PxHash@PEAVTetrahedronMesh@Gu@physx@@@3@UGetKey@?$PxHashSetBase@PEAVTetrahedronMesh@Gu@physx@@U?$PxHash@PEAVTetrahedronMesh@Gu@physx@@@3@VPxAllocator@3@$00@3@VPxAllocator@3@$00@physx@@AEAAXI@Z 000000018001ae20 f i GuMeshFactory.obj
 0001:00019e20       ?reserveInternal@?$PxHashBase@PEAVTriangleMesh@Gu@physx@@PEAV123@U?$PxHash@PEAVTriangleMesh@Gu@physx@@@3@UGetKey@?$PxHashSetBase@PEAVTriangleMesh@Gu@physx@@U?$PxHash@PEAVTriangleMesh@Gu@physx@@@3@VPxAllocator@3@$00@3@VPxAllocator@3@$00@physx@@AEAAXI@Z 000000018001ae20 f i GuMeshFactory.obj
 0001:00019ff0       ?setBounds@AABBTreeBounds@Gu@physx@@QEAAXPEAVPxBounds3@3@@Z 000000018001aff0 f i GuMeshFactory.obj
 0001:0001a000       ?setNbRunTimePrimitives@AABBTreeBuildNode@Gu@physx@@QEAAXI@Z 000000018001b000 f i GuMeshFactory.obj
 0001:0001a010       ?takeOwnership@AABBTreeBounds@Gu@physx@@QEAAXXZ 000000018001b010 f i GuMeshFactory.obj
 0001:0001a020       getInsertionCallback       000000018001b020 f   GuMeshFactory.obj
 0001:0001a030       ??4BigConvexData@physx@@QEAAAEAV01@AEBV01@@Z 000000018001b030 f i GuMetaData.obj
 0001:0001a050       ?GetAdjacentVerts@BigConvexData@physx@@QEBAPEBEXZ 000000018001b050 f i GuMetaData.obj
 0001:0001a050       ?getDeformableVolumeAuxData@DeformableVolumeMesh@Gu@physx@@UEAAPEAVPxDeformableVolumeAuxData@3@XZ 000000018001b050 f i GuTetrahedronMesh.obj
 0001:0001a050       ?getDeformableVolumeAuxData@DeformableVolumeMesh@Gu@physx@@UEBAPEBVPxDeformableVolumeAuxData@3@XZ 000000018001b050 f i GuTetrahedronMesh.obj
 0001:0001a050       ?getTransforms@PruningPool@Gu@physx@@QEAAPEAV?$PxTransformT@M@3@XZ 000000018001b050 f i GuIncrementalAABBPrunerCore.obj
 0001:0001a050       ?getTransforms@PruningPool@Gu@physx@@QEBAPEBV?$PxTransformT@M@3@XZ 000000018001b050 f i GuIncrementalAABBPrunerCore.obj
 0001:0001a050       ?getTriangles@TriangleMesh@Gu@physx@@UEBAPEBXXZ 000000018001b050 f i GuTriangleMesh.obj
 0001:0001a060       ?GetNbNeighbors@BigConvexData@physx@@QEBAGI@Z 000000018001b060 f i GuMetaData.obj
 0001:0001a060       ?GetValency@BigConvexData@physx@@QEBAGI@Z 000000018001b060 f i GuMetaData.obj
 0001:0001a070       ?GetNbSamples@BigConvexData@physx@@QEBAIXZ 000000018001b070 f i GuMetaData.obj
 0001:0001a080       ?GetNbVerts@BigConvexData@physx@@QEBAIXZ 000000018001b080 f i GuMetaData.obj
 0001:0001a080       ?getNbVertices@TetrahedronMesh@Gu@physx@@UEBAIXZ 000000018001b080 f i GuTetrahedronMesh.obj
 0001:0001a080       ?getNbVertices@TriangleMesh@Gu@physx@@UEBAIXZ 000000018001b080 f i GuTriangleMesh.obj
 0001:0001a080       ?length@pcharNode@@UEBAHXZ 000000018001b080 f i libvcruntime:undname.obj
 0001:0001a080       ?raw_length@pcharNode@@UEBAHXZ 000000018001b080 f i libvcruntime:undname.obj
 0001:0001a090       ?GetNeighbors@BigConvexData@physx@@QEBAPEBEI@Z 000000018001b090 f i GuMetaData.obj
 0001:0001a0a0       ?GetOffset@BigConvexData@physx@@QEBAGI@Z 000000018001b0a0 f i GuMetaData.obj
 0001:0001a0b0       ?GetSubdiv@BigConvexData@physx@@QEBAIXZ 000000018001b0b0 f i GuMetaData.obj
 0001:0001a0c0       ?getBinaryMetaData@BV4Tree@Gu@physx@@SAXAEAVPxOutputStream@3@@Z 000000018001b0c0 f   GuMetaData.obj
 0001:0001a680       ?getBinaryMetaData@BV4TriangleMesh@Gu@physx@@SAXAEAVPxOutputStream@3@@Z 000000018001b680 f   GuMetaData.obj
 0001:0001aa20       ?getBinaryMetaData@BigConvexData@physx@@SAXAEAVPxOutputStream@2@@Z 000000018001ba20 f   GuMetaData.obj
 0001:0001ad00       ?getBinaryMetaData@ConvexMesh@Gu@physx@@SAXAEAVPxOutputStream@3@@Z 000000018001bd00 f   GuMetaData.obj
 0001:0001b3b0       ?getBinaryMetaData@HeightField@Gu@physx@@SAXAEAVPxOutputStream@3@@Z 000000018001c3b0 f   GuMetaData.obj
 0001:0001b7c0       ?getBinaryMetaData@RTree@Gu@physx@@SAXAEAVPxOutputStream@3@@Z 000000018001c7c0 f   GuMetaData.obj
 0001:0001bb10       ?getBinaryMetaData@RTreeTriangleMesh@Gu@physx@@SAXAEAVPxOutputStream@3@@Z 000000018001cb10 f   GuMetaData.obj
 0001:0001bc00       ?getBinaryMetaData@SDF@Gu@physx@@SAXAEAVPxOutputStream@3@@Z 000000018001cc00 f   GuMetaData.obj
 0001:0001c100       ?getBinaryMetaData@TriangleMesh@Gu@physx@@SAXAEAVPxOutputStream@3@@Z 000000018001d100 f   GuMetaData.obj
 0001:0001d860       ?doSupport@?$SupportLocalImpl@VConvexHullNoScaleV@Gu@physx@@@Gu@physx@@UEBA?AT__m128@@AEBT4@@Z 000000018001e860 f i GuMTD.obj
 0001:0001d8b0       ?doSupport@?$SupportLocalImpl@VConvexHullNoScaleV@Gu@physx@@@Gu@physx@@UEBAXAEBT__m128@@AEAT4@1@Z 000000018001e8b0 f i GuMTD.obj
 0001:0001da30       ?populateVerts@?$SupportLocalImpl@VConvexHullNoScaleV@Gu@physx@@@Gu@physx@@UEBAXPEBEIPEBV?$PxVec3T@M@3@PEAT__m128@@@Z 000000018001ea30 f i GuMTD.obj
 0001:0001da70       ?getInternalData@TriangleMesh@Gu@physx@@UEBA_NAEAUPxTriangleMeshInternalData@3@_N@Z 000000018001ea70 f   GuTriangleMesh.obj
 0001:0001da70       ?isDynamic@Pruner@Gu@physx@@UEBA_NXZ 000000018001ea70 f   GuIncrementalAABBPruner.obj
 0001:0001ef90       ??$gjk@U?$LocalConvex@VCapsuleV@Gu@physx@@@Gu@physx@@U?$LocalConvex@VConvexHullV@Gu@physx@@@23@@Gu@physx@@YA?AW4GjkStatus@01@AEBU?$LocalConvex@VCapsuleV@Gu@physx@@@01@AEBU?$LocalConvex@VConvexHullV@Gu@physx@@@01@AEBT__m128@@2AEAT5@333@Z 000000018001ff90 f i GuMTD.obj
 0001:0001fc00       ??_E?$LocalConvex@UCustomConvexV@@@Gu@physx@@UEAAPEAXI@Z 0000000180020c00 f i GuGjkQuery.obj
 0001:0001fc00       ??_E?$LocalConvex@UPointConvexV@@@Gu@physx@@UEAAPEAXI@Z 0000000180020c00 f i GuGjkQuery.obj
 0001:0001fc00       ??_E?$LocalConvex@VBoxV@Gu@physx@@@Gu@physx@@UEAAPEAXI@Z 0000000180020c00 f i GuSweepTests.obj
 0001:0001fc00       ??_E?$LocalConvex@VCapsuleV@Gu@physx@@@Gu@physx@@UEAAPEAXI@Z 0000000180020c00 f i GuMTD.obj
 0001:0001fc00       ??_E?$LocalConvex@VConvexHullNoScaleV@Gu@physx@@@Gu@physx@@UEAAPEAXI@Z 0000000180020c00 f i GuPCMContactBoxConvex.obj
 0001:0001fc00       ??_E?$LocalConvex@VConvexHullV@Gu@physx@@@Gu@physx@@UEAAPEAXI@Z 0000000180020c00 f i GuMTD.obj
 0001:0001fc00       ??_E?$LocalConvex@VTetrahedronV@Gu@physx@@@Gu@physx@@UEAAPEAXI@Z 0000000180020c00 f i GuCookingTetrahedronMesh.obj
 0001:0001fc00       ??_E?$LocalConvex@VTriangleV@Gu@physx@@@Gu@physx@@UEAAPEAXI@Z 0000000180020c00 f i GuSweepTests.obj
 0001:0001fc00       ??_EGjkConvex@Gu@physx@@UEAAPEAXI@Z 0000000180020c00 f i GuMTD.obj
 0001:0001fc00       ??_G?$LocalConvex@UCustomConvexV@@@Gu@physx@@UEAAPEAXI@Z 0000000180020c00 f i GuGjkQuery.obj
 0001:0001fc00       ??_G?$LocalConvex@UPointConvexV@@@Gu@physx@@UEAAPEAXI@Z 0000000180020c00 f i GuGjkQuery.obj
 0001:0001fc00       ??_G?$LocalConvex@VBoxV@Gu@physx@@@Gu@physx@@UEAAPEAXI@Z 0000000180020c00 f i GuSweepTests.obj
 0001:0001fc00       ??_G?$LocalConvex@VCapsuleV@Gu@physx@@@Gu@physx@@UEAAPEAXI@Z 0000000180020c00 f i GuMTD.obj
 0001:0001fc00       ??_G?$LocalConvex@VConvexHullNoScaleV@Gu@physx@@@Gu@physx@@UEAAPEAXI@Z 0000000180020c00 f i GuPCMContactBoxConvex.obj
 0001:0001fc00       ??_G?$LocalConvex@VConvexHullV@Gu@physx@@@Gu@physx@@UEAAPEAXI@Z 0000000180020c00 f i GuMTD.obj
 0001:0001fc00       ??_G?$LocalConvex@VTetrahedronV@Gu@physx@@@Gu@physx@@UEAAPEAXI@Z 0000000180020c00 f i GuCookingTetrahedronMesh.obj
 0001:0001fc00       ??_G?$LocalConvex@VTriangleV@Gu@physx@@@Gu@physx@@UEAAPEAXI@Z 0000000180020c00 f i GuSweepTests.obj
 0001:0001fc00       ??_GGjkConvex@Gu@physx@@UEAAPEAXI@Z 0000000180020c00 f i GuMTD.obj
 0001:00024650       ?getCenter@?$LocalConvex@UCustomConvexV@@@Gu@physx@@UEBA?AT__m128@@XZ 0000000180025650 f i GuGjkQuery.obj
 0001:00024650       ?getCenter@?$LocalConvex@UPointConvexV@@@Gu@physx@@UEBA?AT__m128@@XZ 0000000180025650 f i GuGjkQuery.obj
 0001:00024650       ?getCenter@?$LocalConvex@VBoxV@Gu@physx@@@Gu@physx@@UEBA?AT__m128@@XZ 0000000180025650 f i GuSweepTests.obj
 0001:00024650       ?getCenter@?$LocalConvex@VCapsuleV@Gu@physx@@@Gu@physx@@UEBA?AT__m128@@XZ 0000000180025650 f i GuMTD.obj
 0001:00024650       ?getCenter@?$LocalConvex@VConvexHullNoScaleV@Gu@physx@@@Gu@physx@@UEBA?AT__m128@@XZ 0000000180025650 f i GuPCMContactBoxConvex.obj
 0001:00024650       ?getCenter@?$LocalConvex@VConvexHullV@Gu@physx@@@Gu@physx@@UEBA?AT__m128@@XZ 0000000180025650 f i GuMTD.obj
 0001:00024650       ?getCenter@?$LocalConvex@VTetrahedronV@Gu@physx@@@Gu@physx@@UEBA?AT__m128@@XZ 0000000180025650 f i GuCookingTetrahedronMesh.obj
 0001:00024650       ?getCenter@?$LocalConvex@VTriangleV@Gu@physx@@@Gu@physx@@UEBA?AT__m128@@XZ 0000000180025650 f i GuSweepTests.obj
 0001:00024660       ?getSweepMargin@?$LocalConvex@VCapsuleV@Gu@physx@@@Gu@physx@@UEBA?AT__m128@@XZ 0000000180025660 f i GuMTD.obj
 0001:00024660       ?getSweepMargin@?$RelativeConvex@VCapsuleV@Gu@physx@@@Gu@physx@@UEBA?AT__m128@@XZ 0000000180025660 f i GuCCDSweepPrimitives.obj
 0001:00024670       ?getSweepMargin@?$LocalConvex@UCustomConvexV@@@Gu@physx@@UEBA?AT__m128@@XZ 0000000180025670 f i GuGjkQuery.obj
 0001:00024670       ?getSweepMargin@?$LocalConvex@UPointConvexV@@@Gu@physx@@UEBA?AT__m128@@XZ 0000000180025670 f i GuGjkQuery.obj
 0001:00024670       ?getSweepMargin@?$LocalConvex@VBoxV@Gu@physx@@@Gu@physx@@UEBA?AT__m128@@XZ 0000000180025670 f i GuSweepTests.obj
 0001:00024670       ?getSweepMargin@?$LocalConvex@VConvexHullNoScaleV@Gu@physx@@@Gu@physx@@UEBA?AT__m128@@XZ 0000000180025670 f i GuPCMContactBoxConvex.obj
 0001:00024670       ?getSweepMargin@?$LocalConvex@VConvexHullV@Gu@physx@@@Gu@physx@@UEBA?AT__m128@@XZ 0000000180025670 f i GuMTD.obj
 0001:00024670       ?getSweepMargin@?$RelativeConvex@UCustomConvexV@@@Gu@physx@@UEBA?AT__m128@@XZ 0000000180025670 f i GuGjkQuery.obj
 0001:00024670       ?getSweepMargin@?$RelativeConvex@VBoxV@Gu@physx@@@Gu@physx@@UEBA?AT__m128@@XZ 0000000180025670 f i GuOverlapTests.obj
 0001:00024670       ?getSweepMargin@?$RelativeConvex@VConvexHullNoScaleV@Gu@physx@@@Gu@physx@@UEBA?AT__m128@@XZ 0000000180025670 f i GuPCMContactConvexConvex.obj
 0001:00024670       ?getSweepMargin@?$RelativeConvex@VConvexHullV@Gu@physx@@@Gu@physx@@UEBA?AT__m128@@XZ 0000000180025670 f i GuOverlapTests.obj
 0001:00024690       ?getSweepMargin@GjkConvex@Gu@physx@@UEBA?AT__m128@@XZ 0000000180025690 f i GuMTD.obj
 0001:000246b0       ?pointConvexDistance@@YA_NAEAV?$PxVec3T@M@physx@@0AEAMAEBV12@PEBVConvexMesh@Gu@2@AEBVPxMeshScale@2@AEBUPxTransformPadded@2@@Z 00000001800256b0 f   GuMTD.obj
 0001:00025430       ?support@?$LocalConvex@VCapsuleV@Gu@physx@@@Gu@physx@@UEBA?AT__m128@@AEBT4@@Z 0000000180026430 f i GuMTD.obj
 0001:00025490       ?support@?$LocalConvex@VCapsuleV@Gu@physx@@@Gu@physx@@UEBA?AT__m128@@AEBT4@AEAH@Z 0000000180026490 f i GuMTD.obj
 0001:00025500       ?support@?$LocalConvex@VConvexHullV@Gu@physx@@@Gu@physx@@UEBA?AT__m128@@AEBT4@@Z 0000000180026500 f i GuMTD.obj
 0001:000255e0       ?support@?$LocalConvex@VConvexHullV@Gu@physx@@@Gu@physx@@UEBA?AT__m128@@AEBT4@AEAH@Z 00000001800265e0 f i GuMTD.obj
 0001:000256b0       ?support@GjkConvex@Gu@physx@@UEBA?AT__m128@@AEBT4@@Z 00000001800266b0 f i GuMTD.obj
 0001:000256d0       ?support@GjkConvex@Gu@physx@@UEBA?AT__m128@@AEBT4@AEAH@Z 00000001800266d0 f i GuMTD.obj
 0001:000256f0       ?supportPoint@?$LocalConvex@VCapsuleV@Gu@physx@@@Gu@physx@@UEBA?AT__m128@@H@Z 00000001800266f0 f i GuMTD.obj
 0001:00025720       ?supportPoint@?$LocalConvex@VConvexHullV@Gu@physx@@@Gu@physx@@UEBA?AT__m128@@H@Z 0000000180026720 f i GuMTD.obj
 0001:00025770       ?supportPoint@GjkConvex@Gu@physx@@UEBA?AT__m128@@H@Z 0000000180026770 f i GuMTD.obj
 0001:00025790       ?supportPoint@?$RelativeConvex@VBoxV@Gu@physx@@@Gu@physx@@UEBA?AT__m128@@H@Z 0000000180026790 f i GuOverlapTests.obj
 0001:00025800       ?support@?$RelativeConvex@VBoxV@Gu@physx@@@Gu@physx@@UEBA?AT__m128@@AEBT4@@Z 0000000180026800 f i GuOverlapTests.obj
 0001:00025880       ?support@?$RelativeConvex@VBoxV@Gu@physx@@@Gu@physx@@UEBA?AT__m128@@AEBT4@AEAH@Z 0000000180026880 f i GuOverlapTests.obj
 0001:00025910       ?getCenter@?$RelativeConvex@UCustomConvexV@@@Gu@physx@@UEBA?AT__m128@@XZ 0000000180026910 f i GuGjkQuery.obj
 0001:00025910       ?getCenter@?$RelativeConvex@VBoxV@Gu@physx@@@Gu@physx@@UEBA?AT__m128@@XZ 0000000180026910 f i GuOverlapTests.obj
 0001:00025910       ?getCenter@?$RelativeConvex@VCapsuleV@Gu@physx@@@Gu@physx@@UEBA?AT__m128@@XZ 0000000180026910 f i GuCCDSweepPrimitives.obj
 0001:00025910       ?getCenter@?$RelativeConvex@VConvexHullNoScaleV@Gu@physx@@@Gu@physx@@UEBA?AT__m128@@XZ 0000000180026910 f i GuPCMContactConvexConvex.obj
 0001:00025910       ?getCenter@?$RelativeConvex@VConvexHullV@Gu@physx@@@Gu@physx@@UEBA?AT__m128@@XZ 0000000180026910 f i GuOverlapTests.obj
 0001:00025910       ?getCenter@?$RelativeConvex@VTriangleV@Gu@physx@@@Gu@physx@@UEBA?AT__m128@@XZ 0000000180026910 f i GuCCDSweepPrimitives.obj
 0001:00025950       ??_E?$RelativeConvex@UCustomConvexV@@@Gu@physx@@UEAAPEAXI@Z 0000000180026950 f i GuGjkQuery.obj
 0001:00025950       ??_E?$RelativeConvex@VBoxV@Gu@physx@@@Gu@physx@@UEAAPEAXI@Z 0000000180026950 f i GuOverlapTests.obj
 0001:00025950       ??_E?$RelativeConvex@VCapsuleV@Gu@physx@@@Gu@physx@@UEAAPEAXI@Z 0000000180026950 f i GuCCDSweepPrimitives.obj
 0001:00025950       ??_E?$RelativeConvex@VConvexHullNoScaleV@Gu@physx@@@Gu@physx@@UEAAPEAXI@Z 0000000180026950 f i GuPCMContactConvexConvex.obj
 0001:00025950       ??_E?$RelativeConvex@VConvexHullV@Gu@physx@@@Gu@physx@@UEAAPEAXI@Z 0000000180026950 f i GuOverlapTests.obj
 0001:00025950       ??_E?$RelativeConvex@VTriangleV@Gu@physx@@@Gu@physx@@UEAAPEAXI@Z 0000000180026950 f i GuCCDSweepPrimitives.obj
 0001:00025950       ??_G?$RelativeConvex@UCustomConvexV@@@Gu@physx@@UEAAPEAXI@Z 0000000180026950 f i GuGjkQuery.obj
 0001:00025950       ??_G?$RelativeConvex@VBoxV@Gu@physx@@@Gu@physx@@UEAAPEAXI@Z 0000000180026950 f i GuOverlapTests.obj
 0001:00025950       ??_G?$RelativeConvex@VCapsuleV@Gu@physx@@@Gu@physx@@UEAAPEAXI@Z 0000000180026950 f i GuCCDSweepPrimitives.obj
 0001:00025950       ??_G?$RelativeConvex@VConvexHullNoScaleV@Gu@physx@@@Gu@physx@@UEAAPEAXI@Z 0000000180026950 f i GuPCMContactConvexConvex.obj
 0001:00025950       ??_G?$RelativeConvex@VConvexHullV@Gu@physx@@@Gu@physx@@UEAAPEAXI@Z 0000000180026950 f i GuOverlapTests.obj
 0001:00025950       ??_G?$RelativeConvex@VTriangleV@Gu@physx@@@Gu@physx@@UEAAPEAXI@Z 0000000180026950 f i GuCCDSweepPrimitives.obj
 0001:00027a80       ?supportPoint@?$RelativeConvex@VConvexHullV@Gu@physx@@@Gu@physx@@UEBA?AT__m128@@H@Z 0000000180028a80 f i GuOverlapTests.obj
 0001:00027b00       ?support@?$RelativeConvex@VConvexHullV@Gu@physx@@@Gu@physx@@UEBA?AT__m128@@AEBT4@@Z 0000000180028b00 f i GuOverlapTests.obj
 0001:00027c30       ?support@?$RelativeConvex@VConvexHullV@Gu@physx@@@Gu@physx@@UEBA?AT__m128@@AEBT4@AEAH@Z 0000000180028c30 f i GuOverlapTests.obj
 0001:0002a4b0       ??$gjk@U?$RelativeConvex@VBoxV@Gu@physx@@@Gu@physx@@U?$LocalConvex@VConvexHullV@Gu@physx@@@23@@Gu@physx@@YA?AW4GjkStatus@01@AEBU?$RelativeConvex@VBoxV@Gu@physx@@@01@AEBU?$LocalConvex@VConvexHullV@Gu@physx@@@01@AEBT__m128@@2AEAT5@333@Z 000000018002b4b0 f i GuOverlapTests.obj
 0001:0002b160       ??$gjk@U?$RelativeConvex@VConvexHullV@Gu@physx@@@Gu@physx@@U?$LocalConvex@VConvexHullV@Gu@physx@@@23@@Gu@physx@@YA?AW4GjkStatus@01@AEBU?$RelativeConvex@VConvexHullV@Gu@physx@@@01@AEBU?$LocalConvex@VConvexHullV@Gu@physx@@@01@AEBT__m128@@2AEAT5@333@Z 000000018002c160 f i GuOverlapTests.obj
 0001:0002be60       ??$localSupport@$00@ConvexCore@Gu@physx@@YA?AV?$PxVec3T@M@2@AEBV32@PEBX@Z 000000018002ce60 f i GuOverlapTests.obj
 0001:0002bea0       ??$localSupport@$01@ConvexCore@Gu@physx@@YA?AV?$PxVec3T@M@2@AEBV32@PEBX@Z 000000018002cea0 f i GuOverlapTests.obj
 0001:0002bf00       ??$localSupport@$02@ConvexCore@Gu@physx@@YA?AV?$PxVec3T@M@2@AEBV32@PEBX@Z 000000018002cf00 f i GuOverlapTests.obj
 0001:0002bfb0       ??$localSupport@$03@ConvexCore@Gu@physx@@YA?AV?$PxVec3T@M@2@AEBV32@PEBX@Z 000000018002cfb0 f i GuOverlapTests.obj
 0001:0002c100       ??$localSupport@$04@ConvexCore@Gu@physx@@YA?AV?$PxVec3T@M@2@AEBV32@PEBX@Z 000000018002d100 f i GuOverlapTests.obj
 0001:0002c280       ??$localSupport@$05@ConvexCore@Gu@physx@@YA?AV?$PxVec3T@M@2@AEBV32@PEBX@Z 000000018002d280 f i GuOverlapTests.obj
 0001:0002c900       ?ComputeCubemapNearestOffset@physx@@YAIAEBV?$PxVec3T@M@1@I@Z 000000018002d900 f i GuOverlapTests.obj
 0001:0002ca10       ?getOverlapFuncTable@Gu@physx@@YAPEAY0L@Q6A_NAEBVPxGeometry@2@AEBV?$PxTransformT@M@2@01PEAUTriggerCache@12@PEAUPxQueryThreadContext@2@@ZXZ 000000018002da10 f   GuOverlapTests.obj
 0001:0002e5f0       ??_ESupport@PxGjkQuery@physx@@UEAAPEAXI@Z 000000018002f5f0 f i GuRaycastTests.obj
 0001:0002e5f0       ??_GSupport@PxGjkQuery@physx@@UEAAPEAXI@Z 000000018002f5f0 f i GuRaycastTests.obj
 0001:0002e620       ?raycast_box@@YAIAEBVPxGeometry@physx@@AEBV?$PxTransformT@M@2@AEBV?$PxVec3T@M@2@2MV?$PxFlags@W4Enum@PxHitFlag@physx@@G@2@IPEIAUPxGeomRaycastHit@2@IPEAUPxQueryThreadContext@2@@Z 000000018002f620 f   GuRaycastTests.obj
 0001:0002ec70       ?raycast_sphere@@YAIAEBVPxGeometry@physx@@AEBV?$PxTransformT@M@2@AEBV?$PxVec3T@M@2@2MV?$PxFlags@W4Enum@PxHitFlag@physx@@G@2@IPEIAUPxGeomRaycastHit@2@IPEAUPxQueryThreadContext@2@@Z 000000018002fc70 f   GuRaycastTests.obj
 0001:0002edf0       ?raycast_capsule@@YAIAEBVPxGeometry@physx@@AEBV?$PxTransformT@M@2@AEBV?$PxVec3T@M@2@2MV?$PxFlags@W4Enum@PxHitFlag@physx@@G@2@IPEIAUPxGeomRaycastHit@2@IPEAUPxQueryThreadContext@2@@Z 000000018002fdf0 f   GuRaycastTests.obj
 0001:0002f360       ?raycast_plane@@YAIAEBVPxGeometry@physx@@AEBV?$PxTransformT@M@2@AEBV?$PxVec3T@M@2@2MV?$PxFlags@W4Enum@PxHitFlag@physx@@G@2@IPEIAUPxGeomRaycastHit@2@IPEAUPxQueryThreadContext@2@@Z 0000000180030360 f   GuRaycastTests.obj
 0001:0002f4d0       ?raycast_convexMesh@@YAIAEBVPxGeometry@physx@@AEBV?$PxTransformT@M@2@AEBV?$PxVec3T@M@2@2MV?$PxFlags@W4Enum@PxHitFlag@physx@@G@2@IPEIAUPxGeomRaycastHit@2@IPEAUPxQueryThreadContext@2@@Z 00000001800304d0 f   GuRaycastTests.obj
 0001:0002ffb0       ??$contactFace@$0A@@ConvexCore@Gu@physx@@YAIAEBV?$PxVec3T@M@2@0PEBXAEAV32@PEAV32@@Z 0000000180030fb0 f   GuContactConvexCoreMesh.obj
 0001:0002ffb0       ?getMidphaseID@RTreeTriangleMesh@Gu@physx@@UEBA?AW4Enum@PxMeshMidPhase@3@XZ 0000000180030fb0 f   GuTriangleMeshRTree.obj
 0001:0002ffb0       ?getMidphaseID@RTreeTriangleMeshBuilder@physx@@UEBA?AW4Enum@PxMeshMidPhase@2@XZ 0000000180030fb0 f   GuCookingTriangleMesh.obj
 0001:0002ffb0       ?getTetrahedraRemap@TetrahedronMesh@Gu@physx@@UEBAPEBIXZ 0000000180030fb0 f   GuTetrahedronMesh.obj
 0001:0002ffb0       ?raycast_particlesystem@@YAIAEBVPxGeometry@physx@@AEBV?$PxTransformT@M@2@AEBV?$PxVec3T@M@2@2MV?$PxFlags@W4Enum@PxHitFlag@physx@@G@2@IPEIAUPxGeomRaycastHit@2@IPEAUPxQueryThreadContext@2@@Z 0000000180030fb0 f   GuRaycastTests.obj
 0001:0002ffb0       ?raycast_softbody@@YAIAEBVPxGeometry@physx@@AEBV?$PxTransformT@M@2@AEBV?$PxVec3T@M@2@2MV?$PxFlags@W4Enum@PxHitFlag@physx@@G@2@IPEIAUPxGeomRaycastHit@2@IPEAUPxQueryThreadContext@2@@Z 0000000180030fb0 f   GuRaycastTests.obj
 0001:0002ffc0       ?raycast_triangleMesh@@YAIAEBVPxGeometry@physx@@AEBV?$PxTransformT@M@2@AEBV?$PxVec3T@M@2@2MV?$PxFlags@W4Enum@PxHitFlag@physx@@G@2@IPEIAUPxGeomRaycastHit@2@IPEAUPxQueryThreadContext@2@@Z 0000000180030fc0 f   GuRaycastTests.obj
 0001:00030050       ?raycast_heightField@@YAIAEBVPxGeometry@physx@@AEBV?$PxTransformT@M@2@AEBV?$PxVec3T@M@2@2MV?$PxFlags@W4Enum@PxHitFlag@physx@@G@2@IPEIAUPxGeomRaycastHit@2@IPEAUPxQueryThreadContext@2@@Z 0000000180031050 f   GuRaycastTests.obj
 0001:00031de0       ??Dphysx@@YA?AV?$PxMat34T@M@0@AEBVPxMeshScale@0@AEBV?$PxTransformT@M@0@@Z 0000000180032de0 f i GuRaycastTests.obj
 0001:000328d0       ?getRaycastFuncTable@Gu@physx@@YAAEAY0L@Q6AIAEBVPxGeometry@2@AEBV?$PxTransformT@M@2@AEBV?$PxVec3T@M@2@2MV?$PxFlags@W4Enum@PxHitFlag@physx@@G@2@IPEIAUPxGeomRaycastHit@2@IPEAUPxQueryThreadContext@2@@ZXZ 00000001800338d0 f   GuRaycastTests.obj
 0001:000328e0       ??D?$PxMat33T@M@physx@@QEBA?BV?$PxVec3T@M@1@AEBV21@@Z 00000001800338e0 f i GuSweepMTD.obj
 0001:00032970       ??Dphysx@@YA?AV?$PxMat34T@M@0@AEBV?$PxTransformT@M@0@AEBVPxMeshScale@0@@Z 0000000180033970 f i GuSweepMTD.obj
 0001:00032eb0       ??_E?$MeshHitCallback@UPxGeomRaycastHit@physx@@@Gu@physx@@UEAAPEAXI@Z 0000000180033eb0 f i GuSweepMTD.obj
 0001:00032eb0       ??_G?$MeshHitCallback@UPxGeomRaycastHit@physx@@@Gu@physx@@UEAAPEAXI@Z 0000000180033eb0 f i GuSweepMTD.obj
 0001:00032ee0       ??_EMeshMTDGenerationCallback@@UEAAPEAXI@Z 0000000180033ee0 f i GuSweepMTD.obj
 0001:00032ee0       ??_GMeshMTDGenerationCallback@@UEAAPEAXI@Z 0000000180033ee0 f i GuSweepMTD.obj
 0001:00032f10       ??_EMidPhaseQueryLocalReport@@UEAAPEAXI@Z 0000000180033f10 f i GuSweepMTD.obj
 0001:00032f10       ??_ERTreeCookerRemap@@UEAAPEAXI@Z 0000000180033f10 f i GuCookingTriangleMesh.obj
 0001:00032f10       ??_GMidPhaseQueryLocalReport@@UEAAPEAXI@Z 0000000180033f10 f i GuSweepMTD.obj
 0001:00032f10       ??_GRTreeCookerRemap@@UEAAPEAXI@Z 0000000180033f10 f i GuCookingTriangleMesh.obj
 0001:00032f40       ?computeBox_HeightFieldMTD@Gu@physx@@YA_NAEBVPxHeightFieldGeometry@2@AEBV?$PxTransformT@M@2@AEBVBox@12@1M_NAEAUPxGeomSweepHit@2@@Z 0000000180033f40 f   GuSweepMTD.obj
 0001:00033d00       ?computeBox_TriangleMeshMTD@Gu@physx@@YA_NAEBVPxTriangleMeshGeometry@2@AEBV?$PxTransformT@M@2@AEBVBox@12@1M_NAEAUPxGeomSweepHit@2@@Z 0000000180034d00 f   GuSweepMTD.obj
 0001:00034d10       ?computeCapsule_CapsuleMTD@Gu@physx@@YA_NAEBVCapsule@12@0AEAUPxGeomSweepHit@2@@Z 0000000180035d10 f   GuSweepMTD.obj
 0001:00034f50       ?computeCapsule_HeightFieldMTD@Gu@physx@@YA_NAEBVPxHeightFieldGeometry@2@AEBV?$PxTransformT@M@2@AEAVCapsuleV@12@M_NAEAUPxGeomSweepHit@2@@Z 0000000180035f50 f   GuSweepMTD.obj
 0001:00035730       ?computeCapsule_TriangleMeshMTD@Gu@physx@@YA_NAEBVPxTriangleMeshGeometry@2@AEBV?$PxTransformT@M@2@AEAVCapsuleV@12@M_NAEAUPxGeomSweepHit@2@@Z 0000000180036730 f   GuSweepMTD.obj
 0001:00035fe0       ?computeConvex_HeightFieldMTD@Gu@physx@@YA_NAEBVPxHeightFieldGeometry@2@AEBV?$PxTransformT@M@2@AEBVPxConvexMeshGeometry@2@1M_NAEAUPxGeomSweepHit@2@@Z 0000000180036fe0 f   GuSweepMTD.obj
 0001:00037260       ?computeConvex_TriangleMeshMTD@Gu@physx@@YA_NAEBVPxTriangleMeshGeometry@2@AEBV?$PxTransformT@M@2@AEBVPxConvexMeshGeometry@2@1M_NAEAUPxGeomSweepHit@2@@Z 0000000180038260 f   GuSweepMTD.obj
 0001:00038810       ?computePlane_BoxMTD@Gu@physx@@YA_NAEBVPxPlane@2@AEBVBox@12@AEAUPxGeomSweepHit@2@@Z 0000000180039810 f   GuSweepMTD.obj
 0001:00038ab0       ?computePlane_CapsuleMTD@Gu@physx@@YA_NAEBVPxPlane@2@AEBVCapsule@12@AEAUPxGeomSweepHit@2@@Z 0000000180039ab0 f   GuSweepMTD.obj
 0001:00038bd0       ?computePlane_ConvexMTD@Gu@physx@@YA_NAEBVPxPlane@2@AEBVPxConvexMeshGeometry@2@AEBV?$PxTransformT@M@2@AEAUPxGeomSweepHit@2@@Z 0000000180039bd0 f   GuSweepMTD.obj
 0001:00039760       ?computeSphere_CapsuleMTD@Gu@physx@@YA_NAEBVSphere@12@AEBVCapsule@12@AEAUPxGeomSweepHit@2@@Z 000000018003a760 f   GuSweepMTD.obj
 0001:00039910       ?computeSphere_SphereMTD@Gu@physx@@YA_NAEBVSphere@12@0AEAUPxGeomSweepHit@2@@Z 000000018003a910 f   GuSweepMTD.obj
 0001:00039a00       ?getInverse@?$PxMat33T@M@physx@@QEBA?BV12@XZ 000000018003aa00 f i GuSweepMTD.obj
 0001:00039c50       ?growAndPushBack@?$PxArray@IV?$PxReflectionAllocator@I@physx@@@physx@@IEAAAEAIAEBI@Z 000000018003ac50 f i GuSweepMTD.obj
 0001:00039d70       ?init@FastVertex2ShapeScaling@Cm@physx@@QEAAXAEBV?$PxVec3T@M@3@AEBV?$PxQuatT@M@3@@Z 000000018003ad70 f i GuSweepMTD.obj
 0001:0003a670       ?processHit@MeshMTDGenerationCallback@@UEAA_NAEBUPxGeomRaycastHit@physx@@AEBV?$PxVec3T@M@3@11AEAMPEBI@Z 000000018003b670 f i GuSweepMTD.obj
 0001:0003a6c0       ?recreate@?$PxArray@IV?$PxReflectionAllocator@I@physx@@@physx@@IEAAXI@Z 000000018003b6c0 f i GuSweepMTD.obj
 0001:0003a7b0       ?reportTouchedTris@MidPhaseQueryLocalReport@@UEAA_NIPEBI@Z 000000018003b7b0 f i GuSweepMTD.obj
 0001:0003a820       ??$gjkPenetration@U?$LocalConvex@VCapsuleV@Gu@physx@@@Gu@physx@@U?$LocalConvex@VConvexHullV@Gu@physx@@@23@@Gu@physx@@YA?AW4GjkStatus@01@AEBU?$LocalConvex@VCapsuleV@Gu@physx@@@01@AEBU?$LocalConvex@VConvexHullV@Gu@physx@@@01@AEBT__m128@@2_NPEIAE4AEAEAEAUGjkOutput@01@@Z 000000018003b820 f i GuSweepSharedTests.obj
 0001:0003a890       ??$gjkPenetration@U?$LocalConvex@VCapsuleV@Gu@physx@@@Gu@physx@@U?$LocalConvex@VConvexHullV@Gu@physx@@@23@@Gu@physx@@YA?AW4GjkStatus@01@AEBU?$LocalConvex@VCapsuleV@Gu@physx@@@01@AEBU?$LocalConvex@VConvexHullV@Gu@physx@@@01@AEBT__m128@@2_NPEIAE4PEIAT5@5AEAEAEAUGjkOutput@01@@Z 000000018003b890 f i GuSweepSharedTests.obj
 0001:0003c390       ??$gjkPenetration@U?$RelativeConvex@VBoxV@Gu@physx@@@Gu@physx@@U?$LocalConvex@VConvexHullV@Gu@physx@@@23@@Gu@physx@@YA?AW4GjkStatus@01@AEBU?$RelativeConvex@VBoxV@Gu@physx@@@01@AEBU?$LocalConvex@VConvexHullV@Gu@physx@@@01@AEBT__m128@@2_NPEIAE4AEAEAEAUGjkOutput@01@@Z 000000018003d390 f i GuSweepSharedTests.obj
 0001:0003c400       ??$gjkPenetration@U?$RelativeConvex@VBoxV@Gu@physx@@@Gu@physx@@U?$LocalConvex@VConvexHullV@Gu@physx@@@23@@Gu@physx@@YA?AW4GjkStatus@01@AEBU?$RelativeConvex@VBoxV@Gu@physx@@@01@AEBU?$LocalConvex@VConvexHullV@Gu@physx@@@01@AEBT__m128@@2_NPEIAE4PEIAT5@5AEAEAEAUGjkOutput@01@@Z 000000018003d400 f i GuSweepSharedTests.obj
 0001:0003df30       ??$gjkPenetration@U?$RelativeConvex@VConvexHullV@Gu@physx@@@Gu@physx@@U?$LocalConvex@VConvexHullV@Gu@physx@@@23@@Gu@physx@@YA?AW4GjkStatus@01@AEBU?$RelativeConvex@VConvexHullV@Gu@physx@@@01@AEBU?$LocalConvex@VConvexHullV@Gu@physx@@@01@AEBT__m128@@2_NPEIAE4AEAEAEAUGjkOutput@01@@Z 000000018003ef30 f i GuSweepSharedTests.obj
 0001:0003dfa0       ??$gjkPenetration@U?$RelativeConvex@VConvexHullV@Gu@physx@@@Gu@physx@@U?$LocalConvex@VConvexHullV@Gu@physx@@@23@@Gu@physx@@YA?AW4GjkStatus@01@AEBU?$RelativeConvex@VConvexHullV@Gu@physx@@@01@AEBU?$LocalConvex@VConvexHullV@Gu@physx@@@01@AEBT__m128@@2_NPEIAE4PEIAT5@5AEAEAEAUGjkOutput@01@@Z 000000018003efa0 f i GuSweepSharedTests.obj
 0001:0003fb80       ??$gjkRaycast@U?$LocalConvex@VCapsuleV@Gu@physx@@@Gu@physx@@U?$LocalConvex@VConvexHullV@Gu@physx@@@23@@Gu@physx@@YA_NAEBU?$LocalConvex@VCapsuleV@Gu@physx@@@01@AEBU?$LocalConvex@VConvexHullV@Gu@physx@@@01@AEBT__m128@@222AEAT4@33M@Z 0000000180040b80 f i GuSweepSharedTests.obj
 0001:000408f0       ??$gjkRaycast@U?$RelativeConvex@VBoxV@Gu@physx@@@Gu@physx@@U?$LocalConvex@VConvexHullV@Gu@physx@@@23@@Gu@physx@@YA_NAEBU?$RelativeConvex@VBoxV@Gu@physx@@@01@AEBU?$LocalConvex@VConvexHullV@Gu@physx@@@01@AEBT__m128@@222AEAT4@33M@Z 00000001800418f0 f i GuSweepSharedTests.obj
 0001:000416c0       ??$gjkRaycast@U?$RelativeConvex@VConvexHullV@Gu@physx@@@Gu@physx@@U?$LocalConvex@VConvexHullV@Gu@physx@@@23@@Gu@physx@@YA_NAEBU?$RelativeConvex@VConvexHullV@Gu@physx@@@01@AEBU?$LocalConvex@VConvexHullV@Gu@physx@@@01@AEBT__m128@@222AEAT4@33M@Z 00000001800426c0 f i GuSweepSharedTests.obj
 0001:000424d0       ??$gjkRaycastPenetration@U?$LocalConvex@VCapsuleV@Gu@physx@@@Gu@physx@@U?$LocalConvex@VConvexHullV@Gu@physx@@@23@@Gu@physx@@YA_NAEBU?$LocalConvex@VCapsuleV@Gu@physx@@@01@AEBU?$LocalConvex@VConvexHullV@Gu@physx@@@01@AEBT__m128@@222AEAT4@33M_N@Z 00000001800434d0 f i GuSweepSharedTests.obj
 0001:00042700       ??$gjkRaycastPenetration@U?$RelativeConvex@VBoxV@Gu@physx@@@Gu@physx@@U?$LocalConvex@VConvexHullV@Gu@physx@@@23@@Gu@physx@@YA_NAEBU?$RelativeConvex@VBoxV@Gu@physx@@@01@AEBU?$LocalConvex@VConvexHullV@Gu@physx@@@01@AEBT__m128@@222AEAT4@33M_N@Z 0000000180043700 f i GuSweepSharedTests.obj
 0001:00042990       ??$gjkRaycastPenetration@U?$RelativeConvex@VConvexHullV@Gu@physx@@@Gu@physx@@U?$LocalConvex@VConvexHullV@Gu@physx@@@23@@Gu@physx@@YA_NAEBU?$RelativeConvex@VConvexHullV@Gu@physx@@@01@AEBU?$LocalConvex@VConvexHullV@Gu@physx@@@01@AEBT__m128@@222AEAT4@33M_N@Z 0000000180043990 f i GuSweepSharedTests.obj
 0001:00043570       ?sweepBox_ConvexGeom@@YA_NAEBVPxGeometry@physx@@AEBV?$PxTransformT@M@2@AEBVPxBoxGeometry@2@1AEBVBox@Gu@2@AEBV?$PxVec3T@M@2@MAEAUPxGeomSweepHit@2@V?$PxFlags@W4Enum@PxHitFlag@physx@@G@2@MPEAUPxQueryThreadContext@2@@Z 0000000180044570 f   GuSweepSharedTests.obj
 0001:000441a0       ?sweepBox_PlaneGeom@@YA_NAEBVPxGeometry@physx@@AEBV?$PxTransformT@M@2@AEBVPxBoxGeometry@2@1AEBVBox@Gu@2@AEBV?$PxVec3T@M@2@MAEAUPxGeomSweepHit@2@V?$PxFlags@W4Enum@PxHitFlag@physx@@G@2@MPEAUPxQueryThreadContext@2@@Z 00000001800451a0 f   GuSweepSharedTests.obj
 0001:00044570       ?sweepCapsuleTriangles@Gu@physx@@YA_NIPEBVPxTriangle@2@_NAEBVPxCapsuleGeometry@2@AEBV?$PxTransformT@M@2@AEBV?$PxVec3T@M@2@MAEAUPxGeomSweepHit@2@PEBIMV?$PxFlags@W4Enum@PxHitFlag@physx@@G@2@@Z 0000000180045570 f   GuSweepSharedTests.obj
 0001:00044760       ?sweepCapsule_CapsuleGeom@@YA_NAEBVPxGeometry@physx@@AEBV?$PxTransformT@M@2@AEBVPxCapsuleGeometry@2@1AEBVCapsule@Gu@2@AEBV?$PxVec3T@M@2@MAEAUPxGeomSweepHit@2@V?$PxFlags@W4Enum@PxHitFlag@physx@@G@2@MPEAUPxQueryThreadContext@2@@Z 0000000180045760 f   GuSweepSharedTests.obj
 0001:00044940       ?sweepCapsule_ConvexGeom@@YA_NAEBVPxGeometry@physx@@AEBV?$PxTransformT@M@2@AEBVPxCapsuleGeometry@2@1AEBVCapsule@Gu@2@AEBV?$PxVec3T@M@2@MAEAUPxGeomSweepHit@2@V?$PxFlags@W4Enum@PxHitFlag@physx@@G@2@MPEAUPxQueryThreadContext@2@@Z 0000000180045940 f   GuSweepSharedTests.obj
 0001:00045500       ?sweepCapsule_PlaneGeom@@YA_NAEBVPxGeometry@physx@@AEBV?$PxTransformT@M@2@AEBVPxCapsuleGeometry@2@1AEBVCapsule@Gu@2@AEBV?$PxVec3T@M@2@MAEAUPxGeomSweepHit@2@V?$PxFlags@W4Enum@PxHitFlag@physx@@G@2@MPEAUPxQueryThreadContext@2@@Z 0000000180046500 f   GuSweepSharedTests.obj
 0001:000457e0       ?sweepCapsule_SphereGeom@@YA_NAEBVPxGeometry@physx@@AEBV?$PxTransformT@M@2@AEBVPxCapsuleGeometry@2@1AEBVCapsule@Gu@2@AEBV?$PxVec3T@M@2@MAEAUPxGeomSweepHit@2@V?$PxFlags@W4Enum@PxHitFlag@physx@@G@2@MPEAUPxQueryThreadContext@2@@Z 00000001800467e0 f   GuSweepSharedTests.obj
 0001:00045970       ?sweepConvex_BoxGeom@@YA_NAEBVPxGeometry@physx@@AEBV?$PxTransformT@M@2@AEBVPxConvexMeshGeometry@2@1AEBV?$PxVec3T@M@2@MAEAUPxGeomSweepHit@2@V?$PxFlags@W4Enum@PxHitFlag@physx@@G@2@MPEAUPxQueryThreadContext@2@@Z 0000000180046970 f   GuSweepSharedTests.obj
 0001:00045b90       ?sweepConvex_CapsuleGeom@@YA_NAEBVPxGeometry@physx@@AEBV?$PxTransformT@M@2@AEBVPxConvexMeshGeometry@2@1AEBV?$PxVec3T@M@2@MAEAUPxGeomSweepHit@2@V?$PxFlags@W4Enum@PxHitFlag@physx@@G@2@MPEAUPxQueryThreadContext@2@@Z 0000000180046b90 f   GuSweepSharedTests.obj
 0001:00045dc0       ?sweepConvex_ConvexGeom@@YA_NAEBVPxGeometry@physx@@AEBV?$PxTransformT@M@2@AEBVPxConvexMeshGeometry@2@1AEBV?$PxVec3T@M@2@MAEAUPxGeomSweepHit@2@V?$PxFlags@W4Enum@PxHitFlag@physx@@G@2@MPEAUPxQueryThreadContext@2@@Z 0000000180046dc0 f   GuSweepSharedTests.obj
 0001:00046db0       ?sweepConvex_PlaneGeom@@YA_NAEBVPxGeometry@physx@@AEBV?$PxTransformT@M@2@AEBVPxConvexMeshGeometry@2@1AEBV?$PxVec3T@M@2@MAEAUPxGeomSweepHit@2@V?$PxFlags@W4Enum@PxHitFlag@physx@@G@2@MPEAUPxQueryThreadContext@2@@Z 0000000180047db0 f   GuSweepSharedTests.obj
 0001:000471f0       ?sweepConvex_SphereGeom@@YA_NAEBVPxGeometry@physx@@AEBV?$PxTransformT@M@2@AEBVPxConvexMeshGeometry@2@1AEBV?$PxVec3T@M@2@MAEAUPxGeomSweepHit@2@V?$PxFlags@W4Enum@PxHitFlag@physx@@G@2@MPEAUPxQueryThreadContext@2@@Z 00000001800481f0 f   GuSweepSharedTests.obj
 0001:00047c10       ?sweepCapsule_BoxGeom@@YA_NAEBVPxGeometry@physx@@AEBV?$PxTransformT@M@2@AEBVPxCapsuleGeometry@2@1AEBVCapsule@Gu@2@AEBV?$PxVec3T@M@2@MAEAUPxGeomSweepHit@2@V?$PxFlags@W4Enum@PxHitFlag@physx@@G@2@MPEAUPxQueryThreadContext@2@@Z 0000000180048c10 f   GuSweepTests.obj
 0001:000484e0       ?sweepBox_SphereGeom@@YA_NAEBVPxGeometry@physx@@AEBV?$PxTransformT@M@2@AEBVPxBoxGeometry@2@1AEBVBox@Gu@2@AEBV?$PxVec3T@M@2@MAEAUPxGeomSweepHit@2@V?$PxFlags@W4Enum@PxHitFlag@physx@@G@2@MPEAUPxQueryThreadContext@2@@Z 00000001800494e0 f   GuSweepTests.obj
 0001:00048bc0       ?sweepBox_CapsuleGeom@@YA_NAEBVPxGeometry@physx@@AEBV?$PxTransformT@M@2@AEBVPxBoxGeometry@2@1AEBVBox@Gu@2@AEBV?$PxVec3T@M@2@MAEAUPxGeomSweepHit@2@V?$PxFlags@W4Enum@PxHitFlag@physx@@G@2@MPEAUPxQueryThreadContext@2@@Z 0000000180049bc0 f   GuSweepTests.obj
 0001:00049490       ?sweepBox_BoxGeom@@YA_NAEBVPxGeometry@physx@@AEBV?$PxTransformT@M@2@AEBVPxBoxGeometry@2@1AEBVBox@Gu@2@AEBV?$PxVec3T@M@2@MAEAUPxGeomSweepHit@2@V?$PxFlags@W4Enum@PxHitFlag@physx@@G@2@MPEAUPxQueryThreadContext@2@@Z 000000018004a490 f   GuSweepTests.obj
 0001:0004ace0       ??$gjkPenetration@U?$LocalConvex@VCapsuleV@Gu@physx@@@Gu@physx@@U?$LocalConvex@VBoxV@Gu@physx@@@23@@Gu@physx@@YA?AW4GjkStatus@01@AEBU?$LocalConvex@VCapsuleV@Gu@physx@@@01@AEBU?$LocalConvex@VBoxV@Gu@physx@@@01@AEBT__m128@@2_NPEIAE4AEAEAEAUGjkOutput@01@@Z 000000018004bce0 f i GuSweepTests.obj
 0001:0004ad50       ??$gjkPenetration@U?$LocalConvex@VCapsuleV@Gu@physx@@@Gu@physx@@U?$LocalConvex@VBoxV@Gu@physx@@@23@@Gu@physx@@YA?AW4GjkStatus@01@AEBU?$LocalConvex@VCapsuleV@Gu@physx@@@01@AEBU?$LocalConvex@VBoxV@Gu@physx@@@01@AEBT__m128@@2_NPEIAE4PEIAT5@5AEAEAEAUGjkOutput@01@@Z 000000018004bd50 f i GuSweepTests.obj
 0001:0004c7d0       ??$gjkPenetration@U?$RelativeConvex@VBoxV@Gu@physx@@@Gu@physx@@U?$LocalConvex@VBoxV@Gu@physx@@@23@@Gu@physx@@YA?AW4GjkStatus@01@AEBU?$RelativeConvex@VBoxV@Gu@physx@@@01@AEBU?$LocalConvex@VBoxV@Gu@physx@@@01@AEBT__m128@@2_NPEIAE4AEAEAEAUGjkOutput@01@@Z 000000018004d7d0 f i GuSweepTests.obj
 0001:0004c840       ??$gjkPenetration@U?$RelativeConvex@VBoxV@Gu@physx@@@Gu@physx@@U?$LocalConvex@VBoxV@Gu@physx@@@23@@Gu@physx@@YA?AW4GjkStatus@01@AEBU?$RelativeConvex@VBoxV@Gu@physx@@@01@AEBU?$LocalConvex@VBoxV@Gu@physx@@@01@AEBT__m128@@2_NPEIAE4PEIAT5@5AEAEAEAUGjkOutput@01@@Z 000000018004d840 f i GuSweepTests.obj
 0001:0004e300       ??$gjkRaycast@U?$LocalConvex@VCapsuleV@Gu@physx@@@Gu@physx@@U?$LocalConvex@VBoxV@Gu@physx@@@23@@Gu@physx@@YA_NAEBU?$LocalConvex@VCapsuleV@Gu@physx@@@01@AEBU?$LocalConvex@VBoxV@Gu@physx@@@01@AEBT__m128@@222AEAT4@33M@Z 000000018004f300 f i GuSweepTests.obj
 0001:0004eee0       ??$gjkRaycast@U?$LocalConvex@VTriangleV@Gu@physx@@@Gu@physx@@U?$LocalConvex@VBoxV@Gu@physx@@@23@@Gu@physx@@YA_NAEBU?$LocalConvex@VTriangleV@Gu@physx@@@01@AEBU?$LocalConvex@VBoxV@Gu@physx@@@01@AEBT__m128@@222AEAT4@33M@Z 000000018004fee0 f i GuSweepTests.obj
 0001:0004fb50       ??$gjkRaycast@U?$RelativeConvex@VBoxV@Gu@physx@@@Gu@physx@@U?$LocalConvex@VBoxV@Gu@physx@@@23@@Gu@physx@@YA_NAEBU?$RelativeConvex@VBoxV@Gu@physx@@@01@AEBU?$LocalConvex@VBoxV@Gu@physx@@@01@AEBT__m128@@222AEAT4@33M@Z 0000000180050b50 f i GuSweepTests.obj
 0001:000507a0       ?getSweepFuncTable@Gu@physx@@YAAEBUGeomSweepFuncs@12@XZ 00000001800517a0 f   GuSweepTests.obj
 0001:000507b0       ?getSweepMargin@?$LocalConvex@VTetrahedronV@Gu@physx@@@Gu@physx@@UEBA?AT__m128@@XZ 00000001800517b0 f i GuCookingTetrahedronMesh.obj
 0001:000507b0       ?getSweepMargin@?$LocalConvex@VTriangleV@Gu@physx@@@Gu@physx@@UEBA?AT__m128@@XZ 00000001800517b0 f i GuSweepTests.obj
 0001:000507b0       ?getSweepMargin@?$RelativeConvex@VTriangleV@Gu@physx@@@Gu@physx@@UEBA?AT__m128@@XZ 00000001800517b0 f i GuCCDSweepPrimitives.obj
 0001:000507c0       ?support@?$LocalConvex@VBoxV@Gu@physx@@@Gu@physx@@UEBA?AT__m128@@AEBT4@@Z 00000001800517c0 f i GuSweepTests.obj
 0001:000507f0       ?support@?$LocalConvex@VBoxV@Gu@physx@@@Gu@physx@@UEBA?AT__m128@@AEBT4@AEAH@Z 00000001800517f0 f i GuSweepTests.obj
 0001:00050830       ?support@?$LocalConvex@VTriangleV@Gu@physx@@@Gu@physx@@UEBA?AT__m128@@AEBT4@@Z 0000000180051830 f i GuSweepTests.obj
 0001:000508c0       ?support@?$LocalConvex@VTriangleV@Gu@physx@@@Gu@physx@@UEBA?AT__m128@@AEBT4@AEAH@Z 00000001800518c0 f i GuSweepTests.obj
 0001:000509a0       ?supportPoint@?$LocalConvex@VBoxV@Gu@physx@@@Gu@physx@@UEBA?AT__m128@@H@Z 00000001800519a0 f i GuSweepTests.obj
 0001:000509e0       ?supportPoint@?$LocalConvex@VTetrahedronV@Gu@physx@@@Gu@physx@@UEBA?AT__m128@@H@Z 00000001800519e0 f i GuCookingTetrahedronMesh.obj
 0001:000509e0       ?supportPoint@?$LocalConvex@VTriangleV@Gu@physx@@@Gu@physx@@UEBA?AT__m128@@H@Z 00000001800519e0 f i GuSweepTests.obj
 0001:00050a00       ?sweepBoxTriangles@Gu@physx@@YA_NIPEBVPxTriangle@2@_NAEBVPxBoxGeometry@2@AEBV?$PxTransformT@M@2@AEBV?$PxVec3T@M@2@MAEAUPxGeomSweepHit@2@PEBIMV?$PxFlags@W4Enum@PxHitFlag@physx@@G@2@@Z 0000000180051a00 f   GuSweepTests.obj
 0001:00051460       ??$PxSort@HU?$Comparer@V?$PxVec3T@M@physx@@@MeshAnalyzer@Gu@physx@@V?$PxReflectionAllocator@H@4@@physx@@YAXPEAHIAEBU?$Comparer@V?$PxVec3T@M@physx@@@MeshAnalyzer@Gu@0@AEBV?$PxReflectionAllocator@H@0@I@Z 0000000180052460 f i GuSDF.obj
 0001:00051ab0       ??$PxSort@HU?$PxLess@H@physx@@V?$PxReflectionAllocator@H@2@@physx@@YAXPEAHIAEBU?$PxLess@H@0@AEBV?$PxReflectionAllocator@H@0@I@Z 0000000180052ab0 f i GuSDF.obj
 0001:00051f00       ??$copy@V?$PxReflectionAllocator@I@physx@@@?$PxArray@IV?$PxReflectionAllocator@I@physx@@@physx@@IEAAXAEBV01@@Z 0000000180052f00 f i GuSDF.obj
 0001:00051f70       ??$copy@V?$PxReflectionAllocator@M@physx@@@?$PxArray@MV?$PxReflectionAllocator@M@physx@@@physx@@IEAAXAEBV01@@Z 0000000180052f70 f i GuSDF.obj
 0001:00051fd0       ??$copy@V?$PxReflectionAllocator@V?$PxVec3T@M@physx@@@physx@@@?$PxArray@V?$PxVec3T@M@physx@@V?$PxReflectionAllocator@V?$PxVec3T@M@physx@@@2@@physx@@IEAAXAEBV01@@Z 0000000180052fd0 f i GuSDF.obj
 0001:00052030       ??$mapDuplicatePoints@V?$PxVec3T@M@physx@@M@MeshAnalyzer@Gu@physx@@SAXPEBV?$PxVec3T@M@2@IAEAV?$PxArray@HV?$PxReflectionAllocator@H@physx@@@2@M@Z 0000000180053030 f i GuSDF.obj
 0001:000523b0       ??$splitRanges@V?$PxVec3T@M@physx@@M@MeshAnalyzer@Gu@physx@@CAXAEAV?$PxArray@URange@MeshAnalyzer@Gu@physx@@V?$PxReflectionAllocator@URange@MeshAnalyzer@Gu@physx@@@4@@2@AEBV?$PxArray@HV?$PxReflectionAllocator@H@physx@@@2@PEBV?$PxVec3T@M@2@HM@Z 00000001800533b0 f i GuSDF.obj
 0001:00052630       ??$traverseBVH@VClosestDistanceToTrimeshTraversalController@Gu@physx@@@Gu@physx@@YAXPEBUBVHNode@01@AEAVClosestDistanceToTrimeshTraversalController@01@H@Z 0000000180053630 f i GuSDF.obj
 0001:00052a20       ??$traverseBVH@VLineSegmentTrimeshIntersectionTraversalController@Gu@physx@@@Gu@physx@@YAXPEBUBVHNode@01@AEAVLineSegmentTrimeshIntersectionTraversalController@01@H@Z 0000000180053a20 f i GuSDF.obj
 0001:00052f20       ??0?$PxThreadT@V?$PxReflectionAllocator@VPxThreadImpl@physx@@@physx@@@physx@@QEAA@P6APEAXPEAX@Z0PEBDAEBV?$PxReflectionAllocator@VPxThreadImpl@physx@@@1@@Z 0000000180053f20 f i GuSDF.obj
 0001:00052fe0       ??0CellToPoint@Gu@physx@@QEAA@I@Z 0000000180053fe0 f i GuSDF.obj
 0001:000530e0       ??0IsosurfaceThreadData@Gu@physx@@QEAA@AEBU012@@Z 00000001800540e0 f i GuSDF.obj
 0001:00053160       ??1CellToPoint@Gu@physx@@QEAA@XZ 0000000180054160 f i GuSDF.obj
 0001:00053240       ??1IsosurfaceThreadData@Gu@physx@@QEAA@XZ 0000000180054240 f i GuSDF.obj
 0001:000532f0       ??1SDF@Gu@physx@@QEAA@XZ   00000001800542f0 f   GuSDF.obj
 0001:00053390       ??_E?$PxThreadT@V?$PxReflectionAllocator@VPxThreadImpl@physx@@@physx@@@physx@@UEAAPEAXI@Z 0000000180054390 f i GuSDF.obj
 0001:00053390       ??_G?$PxThreadT@V?$PxReflectionAllocator@VPxThreadImpl@physx@@@physx@@@physx@@UEAAPEAXI@Z 0000000180054390 f i GuSDF.obj
 0001:00053440       ??_EPxRunnable@physx@@UEAAPEAXI@Z 0000000180054440 f i GuSDF.obj
 0001:00053440       ??_GPxRunnable@physx@@UEAAPEAXI@Z 0000000180054440 f i GuSDF.obj
 0001:00053470       ?PxCreatePointOntoTriangleMeshProjector@Gu@physx@@YAPEAVPxPointOntoTriangleMeshProjector@12@PEBV?$PxVec3T@M@2@PEBII@Z 0000000180054470 f   GuSDF.obj
 0001:00053570       ?SDFUsingWindingNumbers@Gu@physx@@YAXAEAV?$PxArray@UBVHNode@Gu@physx@@V?$PxReflectionAllocator@UBVHNode@Gu@physx@@@3@@2@AEAV?$PxHashMap@IU?$ClusterApproximationT@MV?$PxVec3T@M@physx@@@Gu@physx@@U?$PxHash@I@3@VPxAllocator@3@@2@PEBV?$PxVec3T@M@2@PEBIIIIIPEAMAEAUGridQueryPointSampler@12@PEAV52@I_N7@Z 0000000180054570 f   GuSDF.obj
 0001:00053a90       ?SDFUsingWindingNumbers@Gu@physx@@YAXPEBV?$PxVec3T@M@2@PEBIIIIIPEAMV32@3PEAV32@_NIPEAVPxSDFBuilder@2@@Z 0000000180054a90 f   GuSDF.obj
 0001:00053f60       ?SDFUsingWindingNumbersSparse@Gu@physx@@YAXPEBV?$PxVec3T@M@2@PEBIIIIIAEBV32@2MIAEAV?$PxArray@MV?$PxReflectionAllocator@M@physx@@@2@AEAV?$PxArray@IV?$PxReflectionAllocator@I@physx@@@2@33AEAM5IPEAVPxSDFBuilder@2@@Z 0000000180054f60 f   GuSDF.obj
 0001:000549b0       ?allocate@?$PxArray@HV?$PxInlineAllocator@$0EAA@V?$PxReflectionAllocator@H@physx@@@physx@@@physx@@IEAAPEAHIPEAI@Z 00000001800559b0 f i GuSDF.obj
 0001:00054a70       ?allocate@?$PxArray@IV?$PxReflectionAllocator@I@physx@@@physx@@IEAAPEAIIPEAI@Z 0000000180055a70 f i GuSDF.obj
 0001:00054b00       ?allocate@?$PxArray@MV?$PxReflectionAllocator@M@physx@@@physx@@IEAAPEAMIPEAI@Z 0000000180055b00 f i GuSDF.obj
 0001:00054b90       ?allocate@?$PxArray@V?$PxVec3T@M@physx@@V?$PxReflectionAllocator@V?$PxVec3T@M@physx@@@2@@physx@@IEAAPEAV?$PxVec3T@M@2@IPEAI@Z 0000000180055b90 f i GuSDF.obj
 0001:00054c30       ?allocateSdfs@SDF@Gu@physx@@QEAAPEAMAEBV?$PxVec3T@M@3@AEBMIIIIIIIMMI@Z 0000000180055c30 f   GuSDF.obj
 0001:00054e40       ?analyzeAndFixMesh@Gu@physx@@YAXPEBV?$PxVec3T@M@2@PEBIIAEAV?$PxArray@IV?$PxReflectionAllocator@I@physx@@@2@@Z 0000000180055e40 f   GuSDF.obj
 0001:000556b0       ?buildTree@Gu@physx@@YAXPEBIIPEBV?$PxVec3T@M@2@AEAV?$PxArray@UBVHNode@Gu@physx@@V?$PxReflectionAllocator@UBVHNode@Gu@physx@@@3@@2@M@Z 00000001800566b0 f   GuSDF.obj
 0001:000558e0       ?computeIsosurfaceTrianglesThreadJob@Gu@physx@@YAPEAXPEAX@Z 00000001800568e0 f   GuSDF.obj
 0001:00055cb0       ?computeIsosurfaceVerticesThreadJob@Gu@physx@@YAPEAXPEAX@Z 0000000180056cb0 f   GuSDF.obj
 0001:00056150       ?computeSDFThreadJob@Gu@physx@@YAPEAXPEAX@Z 0000000180057150 f   GuSDF.obj
 0001:00056c00       ?convertSparseSDFTo3DTextureLayout@Gu@physx@@YAXIIIIPEAIPEBMIAEAV?$PxArray@MV?$PxReflectionAllocator@M@physx@@@2@AEAI33@Z 0000000180057c00 f   GuSDF.obj
 0001:00056f80       ?copy@?$PxArray@MV?$PxReflectionAllocator@M@physx@@@physx@@KAXPEAM0PEBM@Z 0000000180057f80 f i GuSDF.obj
 0001:00056fe0       ?copy@?$PxArray@V?$PxVec3T@M@physx@@V?$PxReflectionAllocator@V?$PxVec3T@M@physx@@@2@@physx@@KAXPEAV?$PxVec3T@M@2@0PEBV32@@Z 0000000180057fe0 f i GuSDF.obj
 0001:000570b0       ?create@?$PxHashBase@V?$PxPair@$$CBUSortedTriangle@Gu@physx@@H@physx@@USortedTriangle@Gu@2@UTriangleHash@42@UGetKey@?$PxHashMapBase@USortedTriangle@Gu@physx@@HUTriangleHash@23@VPxAllocator@3@@2@VPxAllocator@2@$00@physx@@QEAAPEAV?$PxPair@$$CBUSortedTriangle@Gu@physx@@H@2@AEBUSortedTriangle@Gu@2@AEA_N@Z 00000001800580b0 f i GuSDF.obj
 0001:000571f0       ?create@?$PxHashBase@V?$PxPair@$$CB_KH@physx@@_KU?$PxHash@_K@2@UGetKey@?$PxHashMapBase@_KHU?$PxHash@_K@physx@@VPxAllocator@2@@2@VPxAllocator@2@$00@physx@@QEAAPEAV?$PxPair@$$CB_KH@2@AEB_KAEA_N@Z 00000001800581f0 f i GuMeshAnalysis.obj
 0001:000571f0       ?create@?$PxHashBase@V?$PxPair@$$CB_KI@physx@@_KU?$PxHash@_K@2@UGetKey@?$PxHashMapBase@_KIU?$PxHash@_K@physx@@VPxAllocator@2@@2@VPxAllocator@2@$00@physx@@QEAAPEAV?$PxPair@$$CB_KI@2@AEB_KAEA_N@Z 00000001800581f0 f i GuSDF.obj
 0001:00057380       ?createTriangles@Gu@physx@@YAXHHHMQEAMAEBUCellToPoint@12@AEBV?$PxArray@V?$PxVec3T@M@physx@@V?$PxReflectionAllocator@V?$PxVec3T@M@physx@@@2@@2@AEAV?$PxArray@IV?$PxReflectionAllocator@I@physx@@@2@@Z 0000000180058380 f i GuSDF.obj
 0001:00057c10       ?decodeDense@SDF@Gu@physx@@QEBAMHHH@Z 0000000180058c10 f   GuSDF.obj
 0001:00057f10       ?decodeSparse@SDF@Gu@physx@@QEBAMHHH@Z 0000000180058f10 f   GuSDF.obj
 0001:00057f20       ?exportExtraData@SDF@Gu@physx@@QEAAXAEAVPxSerializationContext@3@@Z 0000000180058f20 f   GuSDF.obj
 0001:00057fc0       ?extractIsosurfaceFromSDF@Gu@physx@@YAXAEBVSDF@12@AEAV?$PxArray@V?$PxVec3T@M@physx@@V?$PxReflectionAllocator@V?$PxVec3T@M@physx@@@2@@2@AEAV?$PxArray@IV?$PxReflectionAllocator@I@physx@@@2@I@Z 0000000180058fc0 f   GuSDF.obj
 0001:000588c0       ?extractIsosurfaceFromSDFSerial@Gu@physx@@YAXAEBVSDF@12@AEAV?$PxArray@V?$PxVec3T@M@physx@@V?$PxReflectionAllocator@V?$PxVec3T@M@physx@@@2@@2@AEAV?$PxArray@IV?$PxReflectionAllocator@I@physx@@@2@@Z 00000001800598c0 f   GuSDF.obj
 0001:000595f0       ?find@CellToPoint@Gu@physx@@QEBAPEBV?$PxPair@$$CB_KI@3@HHH@Z 000000018005a5f0 f i GuSDF.obj
 0001:00059700       ?fixSdfForNonClosedGeometry@Gu@physx@@YAXIIIPEAMAEBV?$PxVec3T@M@2@@Z 000000018005a700 f   GuSDF.obj
 0001:0005a720       ?generatePointInCell@Gu@physx@@YA_NAEBVSDF@12@HHHAEAV?$PxVec3T@M@2@QEAY111M@Z 000000018005b720 f   GuSDF.obj
 0001:0005ac30       ?growAndPushBack@?$PxArray@HV?$PxInlineAllocator@$0EAA@V?$PxReflectionAllocator@H@physx@@@physx@@@physx@@IEAAAEAHAEBH@Z 000000018005bc30 f i GuSDF.obj
 0001:0005ad20       ?growAndPushBack@?$PxArray@MV?$PxReflectionAllocator@M@physx@@@physx@@IEAAAEAMAEBM@Z 000000018005bd20 f i GuSDF.obj
 0001:0005ae60       ?growAndPushBack@?$PxArray@PEAV?$PxThreadT@V?$PxReflectionAllocator@VPxThreadImpl@physx@@@physx@@@physx@@V?$PxReflectionAllocator@PEAV?$PxThreadT@V?$PxReflectionAllocator@VPxThreadImpl@physx@@@physx@@@physx@@@2@@physx@@IEAAAEAPEAV?$PxThreadT@V?$PxReflectionAllocator@VPxThreadImpl@physx@@@physx@@@2@AEBQEAV32@@Z 000000018005be60 f i GuSDF.obj
 0001:0005af80       ?growAndPushBack@?$PxArray@UIsosurfaceThreadData@Gu@physx@@V?$PxReflectionAllocator@UIsosurfaceThreadData@Gu@physx@@@3@@physx@@IEAAAEAUIsosurfaceThreadData@Gu@2@AEBU342@@Z 000000018005bf80 f i GuSDF.obj
 0001:0005b150       ?growAndPushBack@?$PxArray@UMutation@Gu@physx@@V?$PxReflectionAllocator@UMutation@Gu@physx@@@3@@physx@@IEAAAEAUMutation@Gu@2@AEBU342@@Z 000000018005c150 f i GuSDF.obj
 0001:0005b270       ?growAndPushBack@?$PxArray@URange@Gu@physx@@V?$PxReflectionAllocator@URange@Gu@physx@@@3@@physx@@IEAAAEAURange@Gu@2@AEBU342@@Z 000000018005c270 f i GuSDF.obj
 0001:0005b3a0       ?growAndPushBack@?$PxArray@URange@MeshAnalyzer@Gu@physx@@V?$PxReflectionAllocator@URange@MeshAnalyzer@Gu@physx@@@4@@physx@@IEAAAEAURange@MeshAnalyzer@Gu@2@AEBU3452@@Z 000000018005c3a0 f i GuSDF.obj
 0001:0005b4c0       ?growAndPushBack@?$PxArray@USDFCalculationData@Gu@physx@@V?$PxReflectionAllocator@USDFCalculationData@Gu@physx@@@3@@physx@@IEAAAEAUSDFCalculationData@Gu@2@AEBU342@@Z 000000018005c4c0 f i GuSDF.obj
 0001:0005b640       ?growAndPushBack@?$PxArray@V?$PxVec3T@M@physx@@V?$PxReflectionAllocator@V?$PxVec3T@M@physx@@@2@@physx@@IEAAAEAV?$PxVec3T@M@2@AEBV32@@Z 000000018005c640 f i GuSDF.obj
 0001:0005b760       ?importExtraData@SDF@Gu@physx@@QEAAXAEAVPxDeserializationContext@3@@Z 000000018005c760 f   GuSDF.obj
 0001:0005b7d0       ?populateSubgridCache@Gu@physx@@YAXAEBVSDF@12@AEAV?$PxArray@MV?$PxReflectionAllocator@M@physx@@@2@HHH@Z 000000018005c7d0 f i GuSDF.obj
 0001:0005bb70       ?projectPoint@PointOntoTriangleMeshProjector@Gu@physx@@UEAA?AV?$PxVec3T@M@3@AEBV43@@Z 000000018005cb70 f i GuSDF.obj
 0001:0005bbe0       ?projectPoint@PointOntoTriangleMeshProjector@Gu@physx@@UEAA?AV?$PxVec3T@M@3@AEBV43@AEAI@Z 000000018005cbe0 f i GuSDF.obj
 0001:0005bc60       ?recreate@?$PxArray@HV?$PxReflectionAllocator@H@physx@@@physx@@IEAAXI@Z 000000018005cc60 f i GuSDF.obj
 0001:0005bd50       ?recreate@?$PxArray@MV?$PxReflectionAllocator@M@physx@@@physx@@IEAAXI@Z 000000018005cd50 f i GuSDF.obj
 0001:0005be80       ?recreate@?$PxArray@PEAUMap@Gu@physx@@V?$PxReflectionAllocator@PEAUMap@Gu@physx@@@3@@physx@@IEAAXI@Z 000000018005ce80 f i GuSDF.obj
 0001:0005bf70       ?recreate@?$PxArray@UBVHNode@Gu@physx@@V?$PxReflectionAllocator@UBVHNode@Gu@physx@@@3@@physx@@IEAAXI@Z 000000018005cf70 f i GuSDF.obj
 0001:0005c1b0       ?recreate@?$PxArray@V?$PxVec3T@M@physx@@V?$PxReflectionAllocator@V?$PxVec3T@M@physx@@@2@@physx@@IEAAXI@Z 000000018005d1b0 f i GuSDF.obj
 0001:0005c280       ?release@PointOntoTriangleMeshProjector@Gu@physx@@UEAAXXZ 000000018005d280 f i GuSDF.obj
 0001:0005c2d0       ?reserveInternal@?$PxHashBase@V?$PxPair@$$CBIU?$ClusterApproximationT@MV?$PxVec3T@M@physx@@@Gu@physx@@@physx@@IU?$PxHash@I@2@UGetKey@?$PxHashMapBase@IU?$ClusterApproximationT@MV?$PxVec3T@M@physx@@@Gu@physx@@U?$PxHash@I@3@VPxAllocator@3@@2@VPxAllocator@2@$00@physx@@AEAAXI@Z 000000018005d2d0 f i GuSDF.obj
 0001:0005c4e0       ?reserveInternal@?$PxHashBase@V?$PxPair@$$CBUSortedTriangle@Gu@physx@@H@physx@@USortedTriangle@Gu@2@UTriangleHash@42@UGetKey@?$PxHashMapBase@USortedTriangle@Gu@physx@@HUTriangleHash@23@VPxAllocator@3@@2@VPxAllocator@2@$00@physx@@AEAAXI@Z 000000018005d4e0 f i GuSDF.obj
 0001:0005c680       ?reserveInternal@?$PxHashBase@V?$PxPair@$$CB_KH@physx@@_KU?$PxHash@_K@2@UGetKey@?$PxHashMapBase@_KHU?$PxHash@_K@physx@@VPxAllocator@2@@2@VPxAllocator@2@$00@physx@@AEAAXI@Z 000000018005d680 f i GuSDF.obj
 0001:0005c680       ?reserveInternal@?$PxHashBase@V?$PxPair@$$CB_KI@physx@@_KU?$PxHash@_K@2@UGetKey@?$PxHashMapBase@_KIU?$PxHash@_K@physx@@VPxAllocator@2@@2@VPxAllocator@2@$00@physx@@AEAAXI@Z 000000018005d680 f i GuSDF.obj
 0001:0005c860       ?resize@?$PxArray@IV?$PxReflectionAllocator@I@physx@@@physx@@QEAAXIAEBI@Z 000000018005d860 f i GuSDF.obj
 0001:0005c920       ?resize@?$PxArray@MV?$PxReflectionAllocator@M@physx@@@physx@@QEAAXIAEBM@Z 000000018005d920 f i GuSDF.obj
 0001:0005ca20       ?resize@?$PxArray@PEAUMap@Gu@physx@@V?$PxReflectionAllocator@PEAUMap@Gu@physx@@@3@@physx@@QEAAXIAEBQEAUMap@Gu@2@@Z 000000018005da20 f i GuSDF.obj
 0001:0005cae0       ?resize@?$PxArray@UBVHNode@Gu@physx@@V?$PxReflectionAllocator@UBVHNode@Gu@physx@@@3@@physx@@QEAAXIAEBUBVHNode@Gu@2@@Z 000000018005dae0 f i GuSDF.obj
 0001:0005cc70       ?sampleSDFDirect@DenseSDF@Gu@physx@@QEAAMAEBV?$PxVec3T@M@3@@Z 000000018005dc70 f i GuSDF.obj
 0001:0005ce10       ?signedVolume@Gu@physx@@YAMPEBV?$PxVec3T@M@2@PEBII1I@Z 000000018005de10 f   GuSDF.obj
 0001:0005d350       ?windingNumbers@Gu@physx@@YAXPEBV?$PxVec3T@M@2@PEBIIIIIPEAMV32@3PEAV32@@Z 000000018005e350 f   GuSDF.obj
 0001:0005d7a0       ?windingNumbersInsideCheck@Gu@physx@@YAXPEBV?$PxVec3T@M@2@PEBIIIIIPEA_NV32@3PEAV32@@Z 000000018005e7a0 f   GuSDF.obj
 0001:0005e160       ??$gjk@U?$RelativeConvex@UCustomConvexV@@@Gu@physx@@U?$LocalConvex@UCustomConvexV@@@23@@Gu@physx@@YA?AW4GjkStatus@01@AEBU?$RelativeConvex@UCustomConvexV@@@01@AEBU?$LocalConvex@UCustomConvexV@@@01@AEBT__m128@@2AEAT5@333@Z 000000018005f160 f i GuGjkQuery.obj
 0001:0005ee00       ??$gjkPenetration@U?$RelativeConvex@UCustomConvexV@@@Gu@physx@@U?$LocalConvex@UCustomConvexV@@@23@@Gu@physx@@YA?AW4GjkStatus@01@AEBU?$RelativeConvex@UCustomConvexV@@@01@AEBU?$LocalConvex@UCustomConvexV@@@01@AEBT__m128@@2_NPEIAE4PEIAT5@5AEAEAEAUGjkOutput@01@@Z 000000018005fe00 f i GuGjkQuery.obj
 0001:00060960       ??$gjkPenetration@U?$RelativeConvex@UCustomConvexV@@@Gu@physx@@U?$LocalConvex@UCustomConvexV@@@23@@Gu@physx@@YA?AW4GjkStatus@01@AEBU?$RelativeConvex@UCustomConvexV@@@01@AEBU?$LocalConvex@UCustomConvexV@@@01@AEBT__m128@@2_NPEIAT5@4AEAEAEAUGjkOutput@01@@Z 0000000180061960 f i GuGjkQuery.obj
 0001:000609c0       ??$gjkRaycast@U?$RelativeConvex@UCustomConvexV@@@Gu@physx@@U?$LocalConvex@UCustomConvexV@@@23@@Gu@physx@@YA_NAEBU?$RelativeConvex@UCustomConvexV@@@01@AEBU?$LocalConvex@UCustomConvexV@@@01@AEBT__m128@@222AEAT4@33M@Z 00000001800619c0 f i GuGjkQuery.obj
 0001:00061730       ??$gjkRaycast@U?$RelativeConvex@UCustomConvexV@@@Gu@physx@@U?$LocalConvex@UPointConvexV@@@23@@Gu@physx@@YA_NAEBU?$RelativeConvex@UCustomConvexV@@@01@AEBU?$LocalConvex@UPointConvexV@@@01@AEBT__m128@@222AEAT4@33M@Z 0000000180062730 f i GuGjkQuery.obj
 0001:000623a0       ?overlap@PxGjkQuery@physx@@SA_NAEBUSupport@12@0AEBV?$PxTransformT@M@2@1@Z 00000001800633a0 f   GuGjkQuery.obj
 0001:00062730       ?proximityInfo@PxGjkQuery@physx@@SA_NAEBUSupport@12@0AEBV?$PxTransformT@M@2@1MMAEAV?$PxVec3T@M@2@22AEAM@Z 0000000180063730 f   GuGjkQuery.obj
 0001:000634f0       ?raycast@PxGjkQuery@physx@@SA_NAEBUSupport@12@AEBV?$PxTransformT@M@2@AEBV?$PxVec3T@M@2@2MAEAMAEAV52@4@Z 00000001800644f0 f   GuGjkQuery.obj
 0001:000639e0       ?support@?$LocalConvex@UCustomConvexV@@@Gu@physx@@UEBA?AT__m128@@AEBT4@@Z 00000001800649e0 f i GuGjkQuery.obj
 0001:00063a60       ?support@?$LocalConvex@UCustomConvexV@@@Gu@physx@@UEBA?AT__m128@@AEBT4@AEAH@Z 0000000180064a60 f i GuGjkQuery.obj
 0001:00063ae0       ?support@?$LocalConvex@UPointConvexV@@@Gu@physx@@UEBA?AT__m128@@AEBT4@@Z 0000000180064ae0 f i GuGjkQuery.obj
 0001:00063ae0       ?supportPoint@?$LocalConvex@UPointConvexV@@@Gu@physx@@UEBA?AT__m128@@H@Z 0000000180064ae0 f i GuGjkQuery.obj
 0001:00063af0       ?support@?$LocalConvex@UPointConvexV@@@Gu@physx@@UEBA?AT__m128@@AEBT4@AEAH@Z 0000000180064af0 f i GuGjkQuery.obj
 0001:00063b10       ?support@?$RelativeConvex@UCustomConvexV@@@Gu@physx@@UEBA?AT__m128@@AEBT4@@Z 0000000180064b10 f i GuGjkQuery.obj
 0001:00063be0       ?support@?$RelativeConvex@UCustomConvexV@@@Gu@physx@@UEBA?AT__m128@@AEBT4@AEAH@Z 0000000180064be0 f i GuGjkQuery.obj
 0001:00063cc0       ?supportPoint@?$LocalConvex@UCustomConvexV@@@Gu@physx@@UEBA?AT__m128@@H@Z 0000000180064cc0 f i GuGjkQuery.obj
 0001:00063d40       ?supportPoint@?$RelativeConvex@UCustomConvexV@@@Gu@physx@@UEBA?AT__m128@@H@Z 0000000180064d40 f i GuGjkQuery.obj
 0001:00063df0       ?sweep@PxGjkQuery@physx@@SA_NAEBUSupport@12@0AEBV?$PxTransformT@M@2@1AEBV?$PxVec3T@M@2@MAEAMAEAV52@4@Z 0000000180064df0 f   GuGjkQuery.obj
 0001:000645b0       ??$approximateCluster@MV?$PxVec3T@M@physx@@@Gu@physx@@YAXAEBV?$PxArray@HV?$PxReflectionAllocator@H@physx@@@1@IIPEBIPEBV?$PxVec3T@M@1@AEBV?$PxArray@MV?$PxReflectionAllocator@M@physx@@@1@AEBV?$PxArray@V?$PxVec3T@M@physx@@V?$PxReflectionAllocator@V?$PxVec3T@M@physx@@@2@@1@4AEAU?$ClusterApproximationT@MV?$PxVec3T@M@physx@@@01@@Z 00000001800655b0 f i GuWindingNumber.obj
 0001:00064be0       ??$precomputeClusterInformation@MV?$PxVec3T@M@physx@@@Gu@physx@@YAXHPEBUBVHNode@01@PEBIIPEBV?$PxVec3T@M@1@AEAV?$PxHashMap@IU?$ClusterApproximationT@MV?$PxVec3T@M@physx@@@Gu@physx@@U?$PxHash@I@3@VPxAllocator@3@@1@V?$PxArray@MV?$PxReflectionAllocator@M@physx@@@1@AEBV?$PxArray@V?$PxVec3T@M@physx@@V?$PxReflectionAllocator@V?$PxVec3T@M@physx@@@2@@1@5@Z 0000000180065be0 f i GuWindingNumber.obj
 0001:00064fb0       ??$precomputeClusterInformation@MV?$PxVec3T@M@physx@@@Gu@physx@@YAXPEBUBVHNode@01@PEBIIPEBV?$PxVec3T@M@1@AEAV?$PxHashMap@IU?$ClusterApproximationT@MV?$PxVec3T@M@physx@@@Gu@physx@@U?$PxHash@I@3@VPxAllocator@3@@1@H@Z 0000000180065fb0 f i GuWindingNumber.obj
 0001:000653c0       ??$traverseBVH@V?$WindingNumberTraversalController@MV?$PxVec3T@M@physx@@@Gu@physx@@@Gu@physx@@YAXPEBUBVHNode@01@AEAV?$WindingNumberTraversalController@MV?$PxVec3T@M@physx@@@01@H@Z 00000001800663c0 f i GuWindingNumber.obj
 0001:00065910       ?computeWindingNumber@Gu@physx@@YAMAEBV?$PxVec3T@M@2@PEBIIPEBV32@@Z 0000000180066910 f   GuWindingNumber.obj
 0001:00065c40       ?computeWindingNumber@Gu@physx@@YAMPEBUBVHNode@12@AEBV?$PxVec3T@M@2@AEBV?$PxHashMap@IU?$ClusterApproximationT@MV?$PxVec3T@M@physx@@@Gu@physx@@U?$PxHash@I@3@VPxAllocator@3@@2@PEBIPEBV42@@Z 0000000180066c40 f   GuWindingNumber.obj
 0001:00065cb0       ?computeWindingNumber@Gu@physx@@YAMPEBUBVHNode@12@AEBV?$PxVec3T@M@2@MAEBV?$PxHashMap@IU?$ClusterApproximationT@MV?$PxVec3T@M@physx@@@Gu@physx@@U?$PxHash@I@3@VPxAllocator@3@@2@PEBIPEBV42@@Z 0000000180066cb0 f   GuWindingNumber.obj
 0001:00065d20       ?create@?$PxHashBase@V?$PxPair@$$CBIU?$ClusterApproximationT@MV?$PxVec3T@M@physx@@@Gu@physx@@@physx@@IU?$PxHash@I@2@UGetKey@?$PxHashMapBase@IU?$ClusterApproximationT@MV?$PxVec3T@M@physx@@@Gu@physx@@U?$PxHash@I@3@VPxAllocator@3@@2@VPxAllocator@2@$00@physx@@QEAAPEAV?$PxPair@$$CBIU?$ClusterApproximationT@MV?$PxVec3T@M@physx@@@Gu@physx@@@2@AEBIAEA_N@Z 0000000180066d20 f i GuWindingNumber.obj
 0001:00065e80       ?growAndPushBack@?$PxArray@HV?$PxReflectionAllocator@H@physx@@@physx@@IEAAAEAHAEBH@Z 0000000180066e80 f i GuWindingNumber.obj
 0001:00065fa0       ?growAndPushBack@?$PxArray@USection@Gu@physx@@V?$PxReflectionAllocator@USection@Gu@physx@@@3@@physx@@IEAAAEAUSection@Gu@2@AEBU342@@Z 0000000180066fa0 f i GuWindingNumber.obj
 0001:000660c0       ?precomputeClusterInformation@Gu@physx@@YAXPEBUBVHNode@12@PEBIIPEBV?$PxVec3T@M@2@AEAV?$PxHashMap@IU?$ClusterApproximationT@MV?$PxVec3T@M@physx@@@Gu@physx@@U?$PxHash@I@3@VPxAllocator@3@@2@H@Z 00000001800670c0 f   GuWindingNumber.obj
 0001:000660d0       ?resize@?$PxArray@V?$PxVec3T@M@physx@@V?$PxReflectionAllocator@V?$PxVec3T@M@physx@@@2@@physx@@QEAAXIAEBV?$PxVec3T@M@2@@Z 00000001800670d0 f i GuWindingNumber.obj
 0001:000661c0       ?computeMassInfo@Gu@physx@@YAXAEBVPxConvexCoreGeometry@2@AEAMAEAV?$PxMat33T@M@2@AEAV?$PxVec3T@M@2@@Z 00000001800671c0 f   GuConvexGeometry.obj
 0001:00066bf0       ?coneRadiusAtHeight@aux@@YAMMMMM@Z 0000000180067bf0 f   GuConvexGeometry.obj
 0001:00069290       ?isGPUCompatible@Gu@physx@@YA_NAEBVPxConvexCoreGeometry@2@@Z 000000018006a290 f   GuConvexGeometry.obj
 0001:000692d0       ?isValid@PxConvexCoreGeometry@physx@@QEBA_NXZ 000000018006a2d0 f   GuConvexGeometry.obj
 0001:000693a0       ?makeConvexShape@Gu@physx@@YA_NAEBVPxGeometry@2@AEBV?$PxTransformT@M@2@AEAUConvexShape@12@@Z 000000018006a3a0 f   GuConvexGeometry.obj
 0001:00069530       ?visualize@Gu@physx@@YAXAEBVPxConvexCoreGeometry@2@AEBV?$PxTransformT@M@2@_NAEBVPxBounds3@2@AEAVPxRenderOutput@2@@Z 000000018006a530 f   GuConvexGeometry.obj
 0001:00069b00       ?SweepAnyShapeHeightfield@Gu@physx@@YAMAEBUCCDShape@12@0AEBUPxTransformPadded@2@111MAEAV?$PxVec3T@M@2@2MAEAIM@Z 000000018006ab00 f   GuCCDSweepConvexMesh.obj
 0001:0006b070       ?SweepAnyShapeMesh@Gu@physx@@YAMAEBUCCDShape@12@0AEBUPxTransformPadded@2@111MAEAV?$PxVec3T@M@2@2MAEAIM@Z 000000018006c070 f   GuCCDSweepConvexMesh.obj
 0001:0006c620       ?SweepEstimateAnyShapeHeightfield@Gu@physx@@YAMAEBUCCDShape@12@0MM@Z 000000018006d620 f   GuCCDSweepConvexMesh.obj
 0001:0006d250       ?SweepEstimateAnyShapeMesh@Gu@physx@@YAMAEBUCCDShape@12@0MM@Z 000000018006e250 f   GuCCDSweepConvexMesh.obj
 0001:0006d4f0       ?allocate@?$PxArray@IV?$PxInlineAllocator@$0BAA@V?$PxReflectionAllocator@I@physx@@@physx@@@physx@@IEAAPEAIIPEAI@Z 000000018006e4f0 f i GuCCDSweepConvexMesh.obj
 0001:0006dfc0       ?growAndPushBack@?$PxArray@IV?$PxInlineAllocator@$0BAA@V?$PxReflectionAllocator@I@physx@@@physx@@@physx@@IEAAAEAIAEBI@Z 000000018006efc0 f i GuCCDSweepConvexMesh.obj
 0001:0006e610       ?recreate@?$PxArray@IV?$PxInlineAllocator@$0BAA@V?$PxReflectionAllocator@I@physx@@@physx@@@physx@@IEAAXI@Z 000000018006f610 f i GuCCDSweepConvexMesh.obj
 0001:0006e750       ?resize@?$PxArray@IV?$PxInlineAllocator@$0BAA@V?$PxReflectionAllocator@I@physx@@@physx@@@physx@@QEAAXIAEBI@Z 000000018006f750 f i GuCCDSweepConvexMesh.obj
 0001:0006e820       ?transformBoxOrthonormal@physx@@YA?AVBox@Gu@1@AEBV231@AEBV?$PxTransformT@M@1@@Z 000000018006f820 f i GuCCDSweepConvexMesh.obj
 0001:0006ecb0       ?UnimplementedSweep@Gu@physx@@YAMAEBUCCDShape@12@0AEBUPxTransformPadded@2@111MAEAV?$PxVec3T@M@2@2MAEAIM@Z 000000018006fcb0 f   GuCCDSweepPrimitives.obj
 0001:00072570       ?UnimplementedTriangleSweep@Gu@physx@@YAMAEBVPxGeometry@2@0AEBUPxTransformPadded@2@111MAEAV?$PxVec3T@M@2@2AEBVFastVertex2ShapeScaling@Cm@2@AEAVTriangleV@12@M@Z 0000000180073570 f   GuCCDSweepPrimitives.obj
 0001:00072580       ??$SweepGeomTriangles@VCapsuleV@Gu@physx@@@Gu@physx@@YAMAEBVPxGeometry@1@0AEBUPxTransformPadded@1@111MAEAV?$PxVec3T@M@1@2AEBVFastVertex2ShapeScaling@Cm@1@AEAVTriangleV@01@M@Z 0000000180073580 f i GuCCDSweepPrimitives.obj
 0001:00072cc0       ??$SweepGeomTriangles@VBoxV@Gu@physx@@@Gu@physx@@YAMAEBVPxGeometry@1@0AEBUPxTransformPadded@1@111MAEAV?$PxVec3T@M@1@2AEBVFastVertex2ShapeScaling@Cm@1@AEAVTriangleV@01@M@Z 0000000180073cc0 f i GuCCDSweepPrimitives.obj
 0001:00073410       ??$SweepGeomTriangles@VConvexHullV@Gu@physx@@@Gu@physx@@YAMAEBVPxGeometry@1@0AEBUPxTransformPadded@1@111MAEAV?$PxVec3T@M@1@2AEBVFastVertex2ShapeScaling@Cm@1@AEAVTriangleV@01@M@Z 0000000180074410 f i GuCCDSweepPrimitives.obj
 0001:00073ce0       ?supportPoint@?$RelativeConvex@VCapsuleV@Gu@physx@@@Gu@physx@@UEBA?AT__m128@@H@Z 0000000180074ce0 f i GuCCDSweepPrimitives.obj
 0001:00073d40       ?support@?$RelativeConvex@VCapsuleV@Gu@physx@@@Gu@physx@@UEBA?AT__m128@@AEBT4@@Z 0000000180074d40 f i GuCCDSweepPrimitives.obj
 0001:00073df0       ?support@?$RelativeConvex@VCapsuleV@Gu@physx@@@Gu@physx@@UEBA?AT__m128@@AEBT4@AEAH@Z 0000000180074df0 f i GuCCDSweepPrimitives.obj
 0001:00073eb0       ?supportPoint@?$RelativeConvex@VTriangleV@Gu@physx@@@Gu@physx@@UEBA?AT__m128@@H@Z 0000000180074eb0 f i GuCCDSweepPrimitives.obj
 0001:00073f00       ?support@?$RelativeConvex@VTriangleV@Gu@physx@@@Gu@physx@@UEBA?AT__m128@@AEBT4@@Z 0000000180074f00 f i GuCCDSweepPrimitives.obj
 0001:00074000       ?support@?$RelativeConvex@VTriangleV@Gu@physx@@@Gu@physx@@UEBA?AT__m128@@AEBT4@AEAH@Z 0000000180075000 f i GuCCDSweepPrimitives.obj
 0001:00074140       ??$gjkPenetration@U?$RelativeConvex@VCapsuleV@Gu@physx@@@Gu@physx@@U?$LocalConvex@VBoxV@Gu@physx@@@23@@Gu@physx@@YA?AW4GjkStatus@01@AEBU?$RelativeConvex@VCapsuleV@Gu@physx@@@01@AEBU?$LocalConvex@VBoxV@Gu@physx@@@01@AEBT__m128@@2_NPEIAE4AEAEAEAUGjkOutput@01@@Z 0000000180075140 f i GuCCDSweepPrimitives.obj
 0001:000741b0       ??$gjkPenetration@U?$RelativeConvex@VCapsuleV@Gu@physx@@@Gu@physx@@U?$LocalConvex@VBoxV@Gu@physx@@@23@@Gu@physx@@YA?AW4GjkStatus@01@AEBU?$RelativeConvex@VCapsuleV@Gu@physx@@@01@AEBU?$LocalConvex@VBoxV@Gu@physx@@@01@AEBT__m128@@2_NPEIAE4PEIAT5@5AEAEAEAUGjkOutput@01@@Z 00000001800751b0 f i GuCCDSweepPrimitives.obj
 0001:00075c90       ??$gjkPenetration@U?$RelativeConvex@VCapsuleV@Gu@physx@@@Gu@physx@@U?$LocalConvex@VCapsuleV@Gu@physx@@@23@@Gu@physx@@YA?AW4GjkStatus@01@AEBU?$RelativeConvex@VCapsuleV@Gu@physx@@@01@AEBU?$LocalConvex@VCapsuleV@Gu@physx@@@01@AEBT__m128@@2_NPEIAE4AEAEAEAUGjkOutput@01@@Z 0000000180076c90 f i GuCCDSweepPrimitives.obj
 0001:00075d00       ??$gjkPenetration@U?$RelativeConvex@VCapsuleV@Gu@physx@@@Gu@physx@@U?$LocalConvex@VCapsuleV@Gu@physx@@@23@@Gu@physx@@YA?AW4GjkStatus@01@AEBU?$RelativeConvex@VCapsuleV@Gu@physx@@@01@AEBU?$LocalConvex@VCapsuleV@Gu@physx@@@01@AEBT__m128@@2_NPEIAE4PEIAT5@5AEAEAEAUGjkOutput@01@@Z 0000000180076d00 f i GuCCDSweepPrimitives.obj
 0001:00077800       ??$gjkPenetration@U?$RelativeConvex@VCapsuleV@Gu@physx@@@Gu@physx@@U?$LocalConvex@VConvexHullV@Gu@physx@@@23@@Gu@physx@@YA?AW4GjkStatus@01@AEBU?$RelativeConvex@VCapsuleV@Gu@physx@@@01@AEBU?$LocalConvex@VConvexHullV@Gu@physx@@@01@AEBT__m128@@2_NPEIAE4AEAEAEAUGjkOutput@01@@Z 0000000180078800 f i GuCCDSweepPrimitives.obj
 0001:00077870       ??$gjkPenetration@U?$RelativeConvex@VCapsuleV@Gu@physx@@@Gu@physx@@U?$LocalConvex@VConvexHullV@Gu@physx@@@23@@Gu@physx@@YA?AW4GjkStatus@01@AEBU?$RelativeConvex@VCapsuleV@Gu@physx@@@01@AEBU?$LocalConvex@VConvexHullV@Gu@physx@@@01@AEBT__m128@@2_NPEIAE4PEIAT5@5AEAEAEAUGjkOutput@01@@Z 0000000180078870 f i GuCCDSweepPrimitives.obj
 0001:000793c0       ??$gjkPenetration@U?$RelativeConvex@VTriangleV@Gu@physx@@@Gu@physx@@U?$LocalConvex@VBoxV@Gu@physx@@@23@@Gu@physx@@YA?AW4GjkStatus@01@AEBU?$RelativeConvex@VTriangleV@Gu@physx@@@01@AEBU?$LocalConvex@VBoxV@Gu@physx@@@01@AEBT__m128@@2_NPEIAE4AEAEAEAUGjkOutput@01@@Z 000000018007a3c0 f i GuCCDSweepPrimitives.obj
 0001:00079430       ??$gjkPenetration@U?$RelativeConvex@VTriangleV@Gu@physx@@@Gu@physx@@U?$LocalConvex@VBoxV@Gu@physx@@@23@@Gu@physx@@YA?AW4GjkStatus@01@AEBU?$RelativeConvex@VTriangleV@Gu@physx@@@01@AEBU?$LocalConvex@VBoxV@Gu@physx@@@01@AEBT__m128@@2_NPEIAE4PEIAT5@5AEAEAEAUGjkOutput@01@@Z 000000018007a430 f i GuCCDSweepPrimitives.obj
 0001:0007af30       ??$gjkPenetration@U?$RelativeConvex@VTriangleV@Gu@physx@@@Gu@physx@@U?$LocalConvex@VCapsuleV@Gu@physx@@@23@@Gu@physx@@YA?AW4GjkStatus@01@AEBU?$RelativeConvex@VTriangleV@Gu@physx@@@01@AEBU?$LocalConvex@VCapsuleV@Gu@physx@@@01@AEBT__m128@@2_NPEIAE4AEAEAEAUGjkOutput@01@@Z 000000018007bf30 f i GuCCDSweepPrimitives.obj
 0001:0007afa0       ??$gjkPenetration@U?$RelativeConvex@VTriangleV@Gu@physx@@@Gu@physx@@U?$LocalConvex@VCapsuleV@Gu@physx@@@23@@Gu@physx@@YA?AW4GjkStatus@01@AEBU?$RelativeConvex@VTriangleV@Gu@physx@@@01@AEBU?$LocalConvex@VCapsuleV@Gu@physx@@@01@AEBT__m128@@2_NPEIAE4PEIAT5@5AEAEAEAUGjkOutput@01@@Z 000000018007bfa0 f i GuCCDSweepPrimitives.obj
 0001:0007cac0       ??$gjkPenetration@U?$RelativeConvex@VTriangleV@Gu@physx@@@Gu@physx@@U?$LocalConvex@VConvexHullV@Gu@physx@@@23@@Gu@physx@@YA?AW4GjkStatus@01@AEBU?$RelativeConvex@VTriangleV@Gu@physx@@@01@AEBU?$LocalConvex@VConvexHullV@Gu@physx@@@01@AEBT__m128@@2_NPEIAE4AEAEAEAUGjkOutput@01@@Z 000000018007dac0 f i GuCCDSweepPrimitives.obj
 0001:0007cb30       ??$gjkPenetration@U?$RelativeConvex@VTriangleV@Gu@physx@@@Gu@physx@@U?$LocalConvex@VConvexHullV@Gu@physx@@@23@@Gu@physx@@YA?AW4GjkStatus@01@AEBU?$RelativeConvex@VTriangleV@Gu@physx@@@01@AEBU?$LocalConvex@VConvexHullV@Gu@physx@@@01@AEBT__m128@@2_NPEIAE4PEIAT5@5AEAEAEAUGjkOutput@01@@Z 000000018007db30 f i GuCCDSweepPrimitives.obj
 0001:0007e6d0       ??$gjkRaycast@U?$RelativeConvex@VCapsuleV@Gu@physx@@@Gu@physx@@U?$LocalConvex@VBoxV@Gu@physx@@@23@@Gu@physx@@YA_NAEBU?$RelativeConvex@VCapsuleV@Gu@physx@@@01@AEBU?$LocalConvex@VBoxV@Gu@physx@@@01@AEBT__m128@@222AEAT4@33M@Z 000000018007f6d0 f i GuCCDSweepPrimitives.obj
 0001:0007f370       ??$gjkRaycast@U?$RelativeConvex@VCapsuleV@Gu@physx@@@Gu@physx@@U?$LocalConvex@VCapsuleV@Gu@physx@@@23@@Gu@physx@@YA_NAEBU?$RelativeConvex@VCapsuleV@Gu@physx@@@01@AEBU?$LocalConvex@VCapsuleV@Gu@physx@@@01@AEBT__m128@@222AEAT4@33M@Z 0000000180080370 f i GuCCDSweepPrimitives.obj
 0001:00080080       ??$gjkRaycast@U?$RelativeConvex@VCapsuleV@Gu@physx@@@Gu@physx@@U?$LocalConvex@VConvexHullV@Gu@physx@@@23@@Gu@physx@@YA_NAEBU?$RelativeConvex@VCapsuleV@Gu@physx@@@01@AEBU?$LocalConvex@VConvexHullV@Gu@physx@@@01@AEBT__m128@@222AEAT4@33M@Z 0000000180081080 f i GuCCDSweepPrimitives.obj
 0001:00080eb0       ??$gjkRaycast@U?$RelativeConvex@VTriangleV@Gu@physx@@@Gu@physx@@U?$LocalConvex@VBoxV@Gu@physx@@@23@@Gu@physx@@YA_NAEBU?$RelativeConvex@VTriangleV@Gu@physx@@@01@AEBU?$LocalConvex@VBoxV@Gu@physx@@@01@AEBT__m128@@222AEAT4@33M@Z 0000000180081eb0 f i GuCCDSweepPrimitives.obj
 0001:00081bd0       ??$gjkRaycast@U?$RelativeConvex@VTriangleV@Gu@physx@@@Gu@physx@@U?$LocalConvex@VCapsuleV@Gu@physx@@@23@@Gu@physx@@YA_NAEBU?$RelativeConvex@VTriangleV@Gu@physx@@@01@AEBU?$LocalConvex@VCapsuleV@Gu@physx@@@01@AEBT__m128@@222AEAT4@33M@Z 0000000180082bd0 f i GuCCDSweepPrimitives.obj
 0001:00082990       ??$gjkRaycast@U?$RelativeConvex@VTriangleV@Gu@physx@@@Gu@physx@@U?$LocalConvex@VConvexHullV@Gu@physx@@@23@@Gu@physx@@YA_NAEBU?$RelativeConvex@VTriangleV@Gu@physx@@@01@AEBU?$LocalConvex@VConvexHullV@Gu@physx@@@01@AEBT__m128@@222AEAT4@33M@Z 0000000180083990 f i GuCCDSweepPrimitives.obj
 0001:00083860       ??$gjkRaycastPenetration@U?$RelativeConvex@VCapsuleV@Gu@physx@@@Gu@physx@@U?$LocalConvex@VConvexHullV@Gu@physx@@@23@@Gu@physx@@YA_NAEBU?$RelativeConvex@VCapsuleV@Gu@physx@@@01@AEBU?$LocalConvex@VConvexHullV@Gu@physx@@@01@AEBT__m128@@222AEAT4@33M_N@Z 0000000180084860 f i GuCCDSweepPrimitives.obj
 0001:00083af0       ??$gjkRaycastPenetration@U?$RelativeConvex@VTriangleV@Gu@physx@@@Gu@physx@@U?$LocalConvex@VConvexHullV@Gu@physx@@@23@@Gu@physx@@YA_NAEBU?$RelativeConvex@VTriangleV@Gu@physx@@@01@AEBU?$LocalConvex@VConvexHullV@Gu@physx@@@01@AEBT__m128@@222AEAT4@33M_N@Z 0000000180084af0 f i GuCCDSweepPrimitives.obj
 0001:00083d80       ?SweepShapeShape@Gu@physx@@YAMAEBUCCDShape@12@0AEBUPxTransformPadded@2@111MAEAV?$PxVec3T@M@2@2MAEAIM@Z 0000000180084d80 f   GuCCDSweepPrimitives.obj
 0001:00083da0       ?SweepShapeTriangle@Gu@physx@@YAMAEBVPxGeometry@2@0AEBUPxTransformPadded@2@111MAEAV?$PxVec3T@M@2@2AEBVFastVertex2ShapeScaling@Cm@2@AEAVTriangleV@12@M@Z 0000000180084da0 f   GuCCDSweepPrimitives.obj
 0001:00083dc0       ?barycentricCoordinates@Gu@physx@@YAXAEBT__m128@@000AEAT3@1@Z 0000000180084dc0 f   GuBarycentricCoordinates.obj
 0001:00083f00       ?barycentricCoordinates@Gu@physx@@YAXAEBT__m128@@00AEAT3@@Z 0000000180084f00 f   GuBarycentricCoordinates.obj
 0001:00083f70       ??$?_UV?$PxReflectionAllocator@VAdjTriangle@Gu@physx@@@physx@@@PxUserAllocated@physx@@SAPEAX_KV?$PxReflectionAllocator@VAdjTriangle@Gu@physx@@@1@PEBDH@Z 0000000180084f70 f i GuAdjacencies.obj
 0001:00084050       ??0AdjacenciesBuilder@Gu@physx@@QEAA@XZ 0000000180085050 f   GuAdjacencies.obj
 0001:00084060       ??1AdjacenciesBuilder@Gu@physx@@QEAA@XZ 0000000180085060 f   GuAdjacencies.obj
 0001:000841b0       ?ComputeNbBoundaryEdges@Adjacencies@Gu@physx@@QEBAIXZ 00000001800851b0 f   GuAdjacencies.obj
 0001:00084440       ?Init@AdjacenciesBuilder@Gu@physx@@QEAA_NAEBUADJACENCIESCREATE@23@@Z 0000000180085440 f   GuAdjacencies.obj
 0001:000849b0       ??0EdgeList@Gu@physx@@QEAA@XZ 00000001800859b0 f   GuEdgeList.obj
 0001:000849d0       ??1EdgeList@Gu@physx@@QEAA@XZ 00000001800859d0 f   GuEdgeList.obj
 0001:00084a80       ?computeActiveEdges@EdgeList@Gu@physx@@AEAA_NIPEBIPEBGPEBV?$PxVec3T@M@3@M@Z 0000000180085a80 f   GuEdgeList.obj
 0001:00085e60       ?createEdgesToFaces@EdgeList@Gu@physx@@AEAA_NIPEBIPEBG@Z 0000000180086e60 f   GuEdgeList.obj
 0001:000860c0       ?createFacesToEdges@EdgeList@Gu@physx@@AEAA_NIPEBIPEBG@Z 00000001800870c0 f   GuEdgeList.obj
 0001:00086550       ?init@EdgeList@Gu@physx@@QEAA_NAEBUEDGELISTCREATE@23@@Z 0000000180087550 f   GuEdgeList.obj
 0001:00086680       ?addAxis@SeparatingAxes@Gu@physx@@QEAA_NAEBV?$PxVec3T@M@3@@Z 0000000180087680 f   GuSeparatingAxes.obj
 0001:00086740       ??$kmeans_cluster@V?$PxVec3T@M@physx@@M@@YAIPEBV?$PxVec3T@M@physx@@IIPEAV01@PEAIMM@Z 0000000180087740 f i GuQuantizer.obj
 0001:000870f0       ??_EQuantizer@Gu@physx@@MEAAPEAXI@Z 00000001800880f0 f i GuQuantizer.obj
 0001:000870f0       ??_GQuantizer@Gu@physx@@MEAAPEAXI@Z 00000001800880f0 f i GuQuantizer.obj
 0001:00087120       ??_EQuantizerImpl@@EEAAPEAXI@Z 0000000180088120 f i GuQuantizer.obj
 0001:00087120       ??_GQuantizerImpl@@EEAAPEAXI@Z 0000000180088120 f i GuQuantizer.obj
 0001:000871f0       ?createQuantizer@Gu@physx@@YAPEAVQuantizer@12@XZ 00000001800881f0 f   GuQuantizer.obj
 0001:000872a0       ?getDenormalizeCenter@QuantizerImpl@@UEBAAEBV?$PxVec3T@M@physx@@XZ 00000001800882a0 f i GuQuantizer.obj
 0001:000872b0       ?getCurrentAABBTreeBounds@PruningPool@Gu@physx@@QEBAAEBVAABBTreeBounds@23@XZ 00000001800882b0 f i GuIncrementalAABBPrunerCore.obj
 0001:000872b0       ?getDenormalizeScale@QuantizerImpl@@UEBAAEBV?$PxVec3T@M@physx@@XZ 00000001800882b0 f i GuQuantizer.obj
 0001:000872c0       ?kmeansQuantize3D@QuantizerImpl@@UEAAPEBV?$PxVec3T@M@physx@@IPEBV23@I_NIAEAI@Z 00000001800882c0 f i GuQuantizer.obj
 0001:00087530       ?normalizeInput@QuantizerImpl@@AEAAXIPEBV?$PxVec3T@M@physx@@I@Z 0000000180088530 f i GuQuantizer.obj
 0001:00087990       ?release@QuantizerImpl@@UEAAXXZ 0000000180088990 f i GuQuantizer.obj
 0001:000879b0       ??0MeshCleaner@Gu@physx@@QEAA@IPEBV?$PxVec3T@M@2@IPEBIMM@Z 00000001800889b0 f   GuMeshCleaner.obj
 0001:000883e0       ??1MeshCleaner@Gu@physx@@QEAA@XZ 00000001800893e0 f   GuMeshCleaner.obj
 0001:00088470       ??0ReducedVertexCloud@Gu@physx@@QEAA@PEBV?$PxVec3T@M@2@I@Z 0000000180089470 f   GuVertexReducer.obj
 0001:00088490       ??1ReducedVertexCloud@Gu@physx@@QEAA@XZ 0000000180089490 f   GuVertexReducer.obj
 0001:000884a0       ?clean@ReducedVertexCloud@Gu@physx@@QEAAAEAV123@XZ 00000001800894a0 f   GuVertexReducer.obj
 0001:00088510       ?reduce@ReducedVertexCloud@Gu@physx@@QEAA_NPEAUREDUCEDCLOUD@23@@Z 0000000180089510 f   GuVertexReducer.obj
 0001:000887b0       ?buildConsistentTriangleOrientationMap@MeshAnalyzer@Gu@physx@@SA_NPEBU?$IndexedTriangleT@H@23@IAEAV?$PxArray@_NV?$PxReflectionAllocator@_N@physx@@@3@AEAV?$PxHashMap@_KHU?$PxHash@_K@physx@@VPxAllocator@2@@3@AEAV?$PxArray@V?$PxArray@IV?$PxReflectionAllocator@I@physx@@@physx@@V?$PxReflectionAllocator@V?$PxArray@IV?$PxReflectionAllocator@I@physx@@@physx@@@2@@3@@Z 00000001800897b0 f   GuMeshAnalysis.obj
 0001:00088cf0       ?buildTriangleAdjacency@MeshAnalyzer@Gu@physx@@SA_NPEBU?$IndexedTriangleT@H@23@IAEAV?$PxArray@HV?$PxReflectionAllocator@H@physx@@@3@AEAV?$PxHashMap@_KHU?$PxHash@_K@physx@@VPxAllocator@2@@3@@Z 0000000180089cf0 f   GuMeshAnalysis.obj
 0001:00089000       ?checkConsistentTriangleOrientation@MeshAnalyzer@Gu@physx@@SA_NPEBU?$IndexedTriangleT@H@23@I@Z 000000018008a000 f   GuMeshAnalysis.obj
 0001:00089150       ?checkMeshWatertightness@MeshAnalyzer@Gu@physx@@SA_NPEBU?$IndexedTriangleT@H@23@I_N@Z 000000018008a150 f   GuMeshAnalysis.obj
 0001:00089320       ?destroy@?$PxArray@V?$PxArray@IV?$PxReflectionAllocator@I@physx@@@physx@@V?$PxReflectionAllocator@V?$PxArray@IV?$PxReflectionAllocator@I@physx@@@physx@@@2@@physx@@KAXPEAV?$PxArray@IV?$PxReflectionAllocator@I@physx@@@2@0@Z 000000018008a320 f i GuMeshAnalysis.obj
 0001:00089390       ?erase@?$PxHashBase@V?$PxPair@$$CB_KH@physx@@_KU?$PxHash@_K@2@UGetKey@?$PxHashMapBase@_KHU?$PxHash@_K@physx@@VPxAllocator@2@@2@VPxAllocator@2@$00@physx@@QEAA_NAEB_K@Z 000000018008a390 f i GuMeshAnalysis.obj
 0001:00089530       ?growAndPushBack@?$PxArray@V?$PxArray@IV?$PxReflectionAllocator@I@physx@@@physx@@V?$PxReflectionAllocator@V?$PxArray@IV?$PxReflectionAllocator@I@physx@@@physx@@@2@@physx@@IEAAAEAV?$PxArray@IV?$PxReflectionAllocator@I@physx@@@2@AEBV32@@Z 000000018008a530 f i GuMeshAnalysis.obj
 0001:00089680       ?makeTriOrientationConsistent@MeshAnalyzer@Gu@physx@@SA_NPEAU?$IndexedTriangleT@H@23@I_N@Z 000000018008a680 f   GuMeshAnalysis.obj
 0001:000897f0       ?recreate@?$PxArray@_NV?$PxReflectionAllocator@_N@physx@@@physx@@IEAAXI@Z 000000018008a7f0 f i GuMeshAnalysis.obj
 0001:000898e0       ?resize@?$PxArray@HV?$PxReflectionAllocator@H@physx@@@physx@@QEAAXIAEBH@Z 000000018008a8e0 f i GuMeshAnalysis.obj
 0001:000899a0       ?resize@?$PxArray@_NV?$PxReflectionAllocator@_N@physx@@@physx@@QEAAXIAEB_N@Z 000000018008a9a0 f i GuMeshAnalysis.obj
 0001:00089a60       ?contactBoxBox@Gu@physx@@YA_NAEBVPxGeometry@2@0AEBUPxTransformPadded@2@1AEBUNarrowPhaseParams@12@AEAUCache@12@AEAVPxContactBuffer@2@PEAVPxRenderOutput@2@@Z 000000018008aa60 f   GuContactBoxBox.obj
 0001:0008dae0       ?contactCapsuleBox@Gu@physx@@YA_NAEBVPxGeometry@2@0AEBUPxTransformPadded@2@1AEBUNarrowPhaseParams@12@AEAUCache@12@AEAVPxContactBuffer@2@PEAVPxRenderOutput@2@@Z 000000018008eae0 f   GuContactCapsuleBox.obj
 0001:0008e2e0       ?contactCapsuleCapsule@Gu@physx@@YA_NAEBVPxGeometry@2@0AEBUPxTransformPadded@2@1AEBUNarrowPhaseParams@12@AEAUCache@12@AEAVPxContactBuffer@2@PEAVPxRenderOutput@2@@Z 000000018008f2e0 f   GuContactCapsuleCapsule.obj
 0001:00090c60       ?contactCapsuleConvex@Gu@physx@@YA_NAEBVPxGeometry@2@0AEBUPxTransformPadded@2@1AEBUNarrowPhaseParams@12@AEAUCache@12@AEAVPxContactBuffer@2@PEAVPxRenderOutput@2@@Z 0000000180091c60 f   GuContactCapsuleConvex.obj
 0001:000931a0       ?contactCapsuleHeightfield@Gu@physx@@YA_NAEBVPxGeometry@2@0AEBUPxTransformPadded@2@1AEBUNarrowPhaseParams@12@AEAUCache@12@AEAVPxContactBuffer@2@PEAVPxRenderOutput@2@@Z 00000001800941a0 f   GuContactCapsuleMesh.obj
 0001:00093960       ?contactCapsuleMesh@Gu@physx@@YA_NAEBVPxGeometry@2@0AEBUPxTransformPadded@2@1AEBUNarrowPhaseParams@12@AEAUCache@12@AEAVPxContactBuffer@2@PEAVPxRenderOutput@2@@Z 0000000180094960 f   GuContactCapsuleMesh.obj
 0001:00094d60       ?transformQueryBounds@FastVertex2ShapeScaling@Cm@physx@@QEBAXAEAV?$PxVec3T@M@3@0AEAV?$PxMat33T@M@3@@Z 0000000180095d60 f i GuContactCapsuleMesh.obj
 0001:000990d0       ?contactBoxConvex@Gu@physx@@YA_NAEBVPxGeometry@2@0AEBUPxTransformPadded@2@1AEBUNarrowPhaseParams@12@AEAUCache@12@AEAVPxContactBuffer@2@PEAVPxRenderOutput@2@@Z 000000018009a0d0 f   GuContactConvexConvex.obj
 0001:000992a0       ?contactConvexConvex@Gu@physx@@YA_NAEBVPxGeometry@2@0AEBUPxTransformPadded@2@1AEBUNarrowPhaseParams@12@AEAUCache@12@AEAVPxContactBuffer@2@PEAVPxRenderOutput@2@@Z 000000018009a2a0 f   GuContactConvexConvex.obj
 0001:00099710       ?transformPlaneToShapeSpace@FastVertex2ShapeScaling@Cm@physx@@QEBAXAEBV?$PxVec3T@M@3@MAEAV43@AEAM@Z 000000018009a710 f i GuContactConvexConvex.obj
 0001:00099bc0       ??_EConvexMeshContactGenerationCallback@@UEAAPEAXI@Z 000000018009abc0 f i GuContactConvexMesh.obj
 0001:00099bc0       ??_GConvexMeshContactGenerationCallback@@UEAAPEAXI@Z 000000018009abc0 f i GuContactConvexMesh.obj
 0001:00099c20       ?addData@?$CacheMap@UCachedEdge@Gu@physx@@$0IA@@Gu@physx@@QEAA_NAEBUCachedEdge@23@@Z 000000018009ac20 f i GuContactConvexMesh.obj
 0001:00099d00       ?addData@?$CacheMap@UCachedVertex@Gu@physx@@$0IA@@Gu@physx@@QEAA_NAEBUCachedVertex@23@@Z 000000018009ad00 f i GuContactConvexMesh.obj
 0001:00099d90       ?allocate@?$PxArray@IV?$PxInlineAllocator@$0BBAA@V?$PxReflectionAllocator@I@physx@@@physx@@@physx@@IEAAPEAIIPEAI@Z 000000018009ad90 f i GuContactConvexMesh.obj
 0001:0009a190       ?contactBoxHeightfield@Gu@physx@@YA_NAEBVPxGeometry@2@0AEBUPxTransformPadded@2@1AEBUNarrowPhaseParams@12@AEAUCache@12@AEAVPxContactBuffer@2@PEAVPxRenderOutput@2@@Z 000000018009b190 f   GuContactConvexMesh.obj
 0001:0009a310       ?contactBoxMesh@Gu@physx@@YA_NAEBVPxGeometry@2@0AEBUPxTransformPadded@2@1AEBUNarrowPhaseParams@12@AEAUCache@12@AEAVPxContactBuffer@2@PEAVPxRenderOutput@2@@Z 000000018009b310 f   GuContactConvexMesh.obj
 0001:0009a4e0       ?contactConvexHeightfield@Gu@physx@@YA_NAEBVPxGeometry@2@0AEBUPxTransformPadded@2@1AEBUNarrowPhaseParams@12@AEAUCache@12@AEAVPxContactBuffer@2@PEAVPxRenderOutput@2@@Z 000000018009b4e0 f   GuContactConvexMesh.obj
 0001:0009a630       ?contactConvexMesh@Gu@physx@@YA_NAEBVPxGeometry@2@0AEBUPxTransformPadded@2@1AEBUNarrowPhaseParams@12@AEAUCache@12@AEAVPxContactBuffer@2@PEAVPxRenderOutput@2@@Z 000000018009b630 f   GuContactConvexMesh.obj
 0001:0009ba80       ?contains@?$CacheMap@UCachedEdge@Gu@physx@@$0IA@@Gu@physx@@QEBA_NAEBUCachedEdge@23@@Z 000000018009ca80 f i GuContactConvexMesh.obj
 0001:0009dc90       ?processHit@ConvexMeshContactGenerationCallback@@UEAA_NAEBUPxGeomRaycastHit@physx@@AEBV?$PxVec3T@M@3@11AEAMPEBI@Z 000000018009ec90 f i GuContactConvexMesh.obj
 0001:0009e640       ?recreate@?$PxArray@IV?$PxInlineAllocator@$0BBAA@V?$PxReflectionAllocator@I@physx@@@physx@@@physx@@IEAAXI@Z 000000018009f640 f i GuContactConvexMesh.obj
 0001:0009fd00       ??$contactFace@$00@ConvexCore@Gu@physx@@YAIAEBV?$PxVec3T@M@2@0PEBXAEAV32@QEAV32@@Z 00000001800a0d00 f i GuContactConvexCoreMesh.obj
 0001:0009fe60       ??$contactFace@$01@ConvexCore@Gu@physx@@YAIAEBV?$PxVec3T@M@2@0PEBXAEAV32@QEAV32@@Z 00000001800a0e60 f i GuContactConvexCoreMesh.obj
 0001:000a0320       ??$contactFace@$02@ConvexCore@Gu@physx@@YAIAEBV?$PxVec3T@M@2@0PEBXAEAV32@QEAV32@@Z 00000001800a1320 f i GuContactConvexCoreMesh.obj
 0001:000a0670       ??$contactFace@$03@ConvexCore@Gu@physx@@YAIAEBV?$PxVec3T@M@2@0PEBXAEAV32@QEAV32@@Z 00000001800a1670 f i GuContactConvexCoreMesh.obj
 0001:000a0fa0       ??$contactFace@$04@ConvexCore@Gu@physx@@YAIAEBV?$PxVec3T@M@2@0PEBXAEAV32@QEAV32@@Z 00000001800a1fa0 f i GuContactConvexCoreMesh.obj
 0001:000a1960       ??$contactFace@$05@ConvexCore@Gu@physx@@YAIAEBV?$PxVec3T@M@2@0PEBXAEAV32@QEAV32@@Z 00000001800a2960 f i GuContactConvexCoreMesh.obj
 0001:000a3d50       ?PxComputeBasisVectors@physx@@YAXAEBV?$PxVec3T@M@1@AEAV21@1@Z 00000001800a4d50 f i GuContactConvexCoreMesh.obj
 0001:000a3e90       ?contactConvexCoreHeightfield@Gu@physx@@YA_NAEBVPxGeometry@2@0AEBUPxTransformPadded@2@1AEBUNarrowPhaseParams@12@AEAUCache@12@AEAVPxContactBuffer@2@PEAVPxRenderOutput@2@@Z 00000001800a4e90 f   GuContactConvexCoreMesh.obj
 0001:000a4680       ?contactConvexCoreTrimesh@Gu@physx@@YA_NAEBVPxGeometry@2@0AEBUPxTransformPadded@2@1AEBUNarrowPhaseParams@12@AEAUCache@12@AEAVPxContactBuffer@2@PEAVPxRenderOutput@2@@Z 00000001800a5680 f   GuContactConvexCoreMesh.obj
 0001:000a4df0       ?getTriangleVertexIndices@HeightField@Gu@physx@@QEBAXIAEAI00@Z 00000001800a5df0 f i GuContactConvexCoreMesh.obj
 0001:000c8990       ?contactConvexCoreConvex@Gu@physx@@YA_NAEBVPxGeometry@2@0AEBUPxTransformPadded@2@1AEBUNarrowPhaseParams@12@AEAUCache@12@AEAVPxContactBuffer@2@PEAVPxRenderOutput@2@@Z 00000001800c9990 f   GuContactConvexCoreConvex.obj
 0001:000d93f0       ?contactPlaneConvexCore@Gu@physx@@YA_NAEBVPxGeometry@2@0AEBUPxTransformPadded@2@1AEBUNarrowPhaseParams@12@AEAUCache@12@AEAVPxContactBuffer@2@PEAVPxRenderOutput@2@@Z 00000001800da3f0 f   GuContactPlaneConvexCore.obj
 0001:000da8d0       ?contactPlaneBox@Gu@physx@@YA_NAEBVPxGeometry@2@0AEBUPxTransformPadded@2@1AEBUNarrowPhaseParams@12@AEAUCache@12@AEAVPxContactBuffer@2@PEAVPxRenderOutput@2@@Z 00000001800db8d0 f   GuContactPlaneBox.obj
 0001:000db620       ?contactPlaneCapsule@Gu@physx@@YA_NAEBVPxGeometry@2@0AEBUPxTransformPadded@2@1AEBUNarrowPhaseParams@12@AEAUCache@12@AEAVPxContactBuffer@2@PEAVPxRenderOutput@2@@Z 00000001800dc620 f   GuContactPlaneCapsule.obj
 0001:000dbcf0       ?contactPlaneConvex@Gu@physx@@YA_NAEBVPxGeometry@2@0AEBUPxTransformPadded@2@1AEBUNarrowPhaseParams@12@AEAUCache@12@AEAVPxContactBuffer@2@PEAVPxRenderOutput@2@@Z 00000001800dccf0 f   GuContactPlaneConvex.obj
 0001:000dc590       ?contactPlaneMesh@Gu@physx@@YA_NAEBVPxGeometry@2@0AEBUPxTransformPadded@2@1AEBUNarrowPhaseParams@12@AEAUCache@12@AEAVPxContactBuffer@2@PEAVPxRenderOutput@2@@Z 00000001800dd590 f   GuContactPlaneMesh.obj
 0001:000dd720       ?reduce@?$BufferedPatch@$05$0EA@$00@Gu@physx@@QEAAXXZ 00000001800de720 f i GuContactPlaneMesh.obj
 0001:000df6c0       ?contactPolygonPolygonExt@Gu@physx@@YA_NIPEBV?$PxVec3T@M@2@PEBEAEBV?$PxMat34T@M@2@AEBVPxPlane@2@AEBV?$PxMat33T@M@2@I01234AEBV32@22IIAEAVPxContactBuffer@2@_N5M@Z 00000001800e06c0 f   GuContactPolygonPolygon.obj
 0001:000e0ea0       ?findRotationMatrixFromZ@Gu@physx@@YA?AV?$PxMat33T@M@2@AEBV?$PxVec3T@M@2@@Z 00000001800e1ea0 f   GuContactPolygonPolygon.obj
 0001:000e1880       ??$PxSort@PEAV?$BufferedPatch@$04$0CA@$00@Gu@physx@@UPatchPenetrationPredicate@?$SDFContactReduction@$04$0CHBA@$0CA@@23@V?$PxReflectionAllocator@PEAV?$BufferedPatch@$04$0CA@$00@Gu@physx@@@3@@physx@@YAXPEAPEAV?$BufferedPatch@$04$0CA@$00@Gu@0@IAEBUPatchPenetrationPredicate@?$SDFContactReduction@$04$0CHBA@$0CA@@20@AEBV?$PxReflectionAllocator@PEAV?$BufferedPatch@$04$0CA@$00@Gu@physx@@@0@I@Z 00000001800e2880 f i GuContactMeshMesh.obj
 0001:000e1df0       ??$copy@V?$PxReflectionAllocator@V?$BufferedPatch@$04$0CA@$00@Gu@physx@@@physx@@@?$PxArray@V?$BufferedPatch@$04$0CA@$00@Gu@physx@@V?$PxReflectionAllocator@V?$BufferedPatch@$04$0CA@$00@Gu@physx@@@3@@physx@@IEAAXAEBV01@@Z 00000001800e2df0 f i GuContactMeshMesh.obj
 0001:000e1e50       ??$sdfTriangleCollision@$0A@$0CA@$00@Gu@physx@@YAMAEIBUCollisionSDF@01@AEIBV?$PxVec3T@M@1@11AEAV31@2M@Z 00000001800e2e50 f i GuContactMeshMesh.obj
 0001:000e2620       ??0?$BufferedPatch@$04$0CA@$00@Gu@physx@@QEAA@AEBV012@@Z 00000001800e3620 f i GuContactMeshMesh.obj
 0001:000e26f0       ??0CollisionSDF@Gu@physx@@QEAA@AEBVSDF@12@@Z 00000001800e36f0 f i GuContactMeshMesh.obj
 0001:000e28f0       ?TriLerpWithGradient@CollisionSDF@Gu@physx@@SAMMMMMMMMMMMMPEAV?$PxVec3T@M@3@@Z 00000001800e38f0 f i GuContactMeshMesh.obj
 0001:000e2ad0       ?addContact@?$BufferedPatch@$04$0CA@$00@Gu@physx@@QEAAXAEBUTinyContact@23@@Z 00000001800e3ad0 f i GuContactMeshMesh.obj
 0001:000e2b80       ?allocate@?$PxArray@V?$BufferedPatch@$04$0CA@$00@Gu@physx@@V?$PxReflectionAllocator@V?$BufferedPatch@$04$0CA@$00@Gu@physx@@@3@@physx@@IEAAPEAV?$BufferedPatch@$04$0CA@$00@Gu@2@IPEAI@Z 00000001800e3b80 f i GuContactMeshMesh.obj
 0001:000e2c20       ?clampToBox@CollisionSDF@Gu@physx@@QEBA?AV?$PxVec3T@M@3@AEBV43@@Z 00000001800e3c20 f i GuContactMeshMesh.obj
 0001:000e2ce0       ?contactMeshMesh@Gu@physx@@YA_NAEBVPxGeometry@2@0AEBUPxTransformPadded@2@1AEBUNarrowPhaseParams@12@AEAUCache@12@AEAVPxContactBuffer@2@PEAVPxRenderOutput@2@@Z 00000001800e3ce0 f   GuContactMeshMesh.obj
 0001:000e2f80       ?copy@?$PxArray@V?$BufferedPatch@$04$0CA@$00@Gu@physx@@V?$PxReflectionAllocator@V?$BufferedPatch@$04$0CA@$00@Gu@physx@@@3@@physx@@KAXPEAV?$BufferedPatch@$04$0CA@$00@Gu@2@0PEBV342@@Z 00000001800e3f80 f i GuContactMeshMesh.obj
 0001:000e3070       ?cullPatches@?$SDFContactReduction@$04$0CHBA@$0CA@@Gu@physx@@QEAAXM@Z 00000001800e4070 f i GuContactMeshMesh.obj
 0001:000e3440       ?dist@CollisionSDF@Gu@physx@@QEBAMAEBV?$PxVec3T@M@3@PEAV43@@Z 00000001800e4440 f i GuContactMeshMesh.obj
 0001:000e35f0       ?distUsingGradient@CollisionSDF@Gu@physx@@QEBAMAEBV?$PxVec3T@M@3@AEAV43@AEBM@Z 00000001800e45f0 f i GuContactMeshMesh.obj
 0001:000e38b0       ?evaluateCoarse@CollisionSDF@Gu@physx@@QEBAMAEBV?$PxVec3T@M@3@PEAV43@@Z 00000001800e48b0 f i GuContactMeshMesh.obj
 0001:000e3a00       ?evaluateSubgrid@CollisionSDF@Gu@physx@@QEBAMIAEBV?$PxVec3T@M@3@PEAV43@@Z 00000001800e4a00 f i GuContactMeshMesh.obj
 0001:000e3db0       ?flushToContactBuffer@?$SDFContactReduction@$04$0CHBA@$0CA@@Gu@physx@@QEAAIAEAVPxContactBuffer@3@@Z 00000001800e4db0 f i GuContactMeshMesh.obj
 0001:000e4300       ?grad@CollisionSDF@Gu@physx@@QEBA?AV?$PxVec3T@M@3@AEBV43@@Z 00000001800e5300 f i GuContactMeshMesh.obj
 0001:000e4690       ?growAndPushBack@?$PxArray@PEAV?$BufferedPatch@$04$0CA@$00@Gu@physx@@V?$PxReflectionAllocator@PEAV?$BufferedPatch@$04$0CA@$00@Gu@physx@@@3@@physx@@IEAAAEAPEAV?$BufferedPatch@$04$0CA@$00@Gu@2@AEBQEAV342@@Z 00000001800e5690 f i GuContactMeshMesh.obj
 0001:000e47b0       ?growAndPushBack@?$PxArray@V?$BufferedPatch@$04$0CA@$00@Gu@physx@@V?$PxReflectionAllocator@V?$BufferedPatch@$04$0CA@$00@Gu@physx@@@3@@physx@@IEAAAEAV?$BufferedPatch@$04$0CA@$00@Gu@2@AEBV342@@Z 00000001800e57b0 f i GuContactMeshMesh.obj
 0001:000e48c0       ?recreate@?$PxArray@PEAV?$BufferedPatch@$04$0CA@$00@Gu@physx@@V?$PxReflectionAllocator@PEAV?$BufferedPatch@$04$0CA@$00@Gu@physx@@@3@@physx@@IEAAXI@Z 00000001800e58c0 f i GuContactMeshMesh.obj
 0001:000e49b0       ?recreate@?$PxArray@V?$BufferedPatch@$04$0CA@$00@Gu@physx@@V?$PxReflectionAllocator@V?$BufferedPatch@$04$0CA@$00@Gu@physx@@@3@@physx@@IEAAXI@Z 00000001800e59b0 f i GuContactMeshMesh.obj
 0001:000e4a80       ?reduce@?$BufferedPatch@$04$0CA@$00@Gu@physx@@QEAAXXZ 00000001800e5a80 f i GuContactMeshMesh.obj
 0001:000e56b0       ?sample@CollisionSDF@Gu@physx@@QEBAMV?$PxVec3T@M@3@PEAV43@@Z 00000001800e66b0 f i GuContactMeshMesh.obj
 0001:000e5870       ?sdfMeshCollision@@YAIAEIBUPxTransformPadded@physx@@AEIBVPxTriangleMeshGeometry@2@01AEAV?$SDFContactReduction@$04$0CHBA@$0CA@@Gu@2@M_N@Z 00000001800e6870 f i GuContactMeshMesh.obj
 0001:000e84f0       ?contactSphereBox@Gu@physx@@YA_NAEBVPxGeometry@2@0AEBUPxTransformPadded@2@1AEBUNarrowPhaseParams@12@AEAUCache@12@AEAVPxContactBuffer@2@PEAVPxRenderOutput@2@@Z 00000001800e94f0 f   GuContactSphereBox.obj
 0001:000e8ac0       ?contactSphereCapsule@Gu@physx@@YA_NAEBVPxGeometry@2@0AEBUPxTransformPadded@2@1AEBUNarrowPhaseParams@12@AEAUCache@12@AEAVPxContactBuffer@2@PEAVPxRenderOutput@2@@Z 00000001800e9ac0 f   GuContactSphereCapsule.obj
 0001:000e9880       ?contactSphereHeightfield@Gu@physx@@YA_NAEBVPxGeometry@2@0AEBUPxTransformPadded@2@1AEBUNarrowPhaseParams@12@AEAUCache@12@AEAVPxContactBuffer@2@PEAVPxRenderOutput@2@@Z 00000001800ea880 f   GuContactSphereMesh.obj
 0001:000e9b60       ?contactSphereMesh@Gu@physx@@YA_NAEBVPxGeometry@2@0AEBUPxTransformPadded@2@1AEBUNarrowPhaseParams@12@AEAUCache@12@AEAVPxContactBuffer@2@PEAVPxRenderOutput@2@@Z 00000001800eab60 f   GuContactSphereMesh.obj
 0001:000eb120       ?contactSpherePlane@Gu@physx@@YA_NAEBVPxGeometry@2@0AEBUPxTransformPadded@2@1AEBUNarrowPhaseParams@12@AEAUCache@12@AEAVPxContactBuffer@2@PEAVPxRenderOutput@2@@Z 00000001800ec120 f   GuContactSpherePlane.obj
 0001:000eb330       ?contactSphereSphere@Gu@physx@@YA_NAEBVPxGeometry@2@0AEBUPxTransformPadded@2@1AEBUNarrowPhaseParams@12@AEAUCache@12@AEAVPxContactBuffer@2@PEAVPxRenderOutput@2@@Z 00000001800ec330 f   GuContactSphereSphere.obj
 0001:000eb4b0       ?contactCustomGeometryGeometry@Gu@physx@@YA_NAEBVPxGeometry@2@0AEBUPxTransformPadded@2@1AEBUNarrowPhaseParams@12@AEAUCache@12@AEAVPxContactBuffer@2@PEAVPxRenderOutput@2@@Z 00000001800ec4b0 f   GuContactCustomGeometry.obj
 0001:000eb510       ?contactGeometryCustomGeometry@Gu@physx@@YA_NAEBVPxGeometry@2@0AEBUPxTransformPadded@2@1AEBUNarrowPhaseParams@12@AEAUCache@12@AEAVPxContactBuffer@2@PEAVPxRenderOutput@2@@Z 00000001800ec510 f   GuContactCustomGeometry.obj
 0001:000eb5d0       ?selectNormal@Gu@physx@@YA_NEMM@Z 00000001800ec5d0 f   GuFeatureCode.obj
 0001:000eb650       ??0BigConvexData@physx@@QEAA@XZ 00000001800ec650 f   GuBigConvexData.obj
 0001:000eb670       ??1BigConvexData@physx@@QEAA@XZ 00000001800ec670 f   GuBigConvexData.obj
 0001:000eb730       ?ComputeNearestOffset@BigConvexData@physx@@QEBAIAEBV?$PxVec3T@M@2@@Z 00000001800ec730 f   GuBigConvexData.obj
 0001:000eb840       ?ComputeOffset@BigConvexData@physx@@QEBAIAEBV?$PxVec3T@M@2@@Z 00000001800ec840 f   GuBigConvexData.obj
 0001:000eb940       ?CreateOffsets@BigConvexData@physx@@IEAAXXZ 00000001800ec940 f   GuBigConvexData.obj
 0001:000eb990       ?Load@BigConvexData@physx@@QEAA_NAEAVPxInputStream@2@@Z 00000001800ec990 f   GuBigConvexData.obj
 0001:000ebaa0       ?VLoad@BigConvexData@physx@@IEAA_NAEAVPxInputStream@2@@Z 00000001800ecaa0 f   GuBigConvexData.obj
 0001:000ebc40       ?exportExtraData@BigConvexData@physx@@QEAAXAEAVPxSerializationContext@2@@Z 00000001800ecc40 f   GuBigConvexData.obj
 0001:000ebcc0       ?importExtraData@BigConvexData@physx@@QEAAXAEAVPxDeserializationContext@2@@Z 00000001800eccc0 f   GuBigConvexData.obj
 0001:000ebd30       ?findUniqueConvexEdges@Gu@physx@@YAIIPEIAUConvexEdge@12@IPEIBUHullPolygonData@12@PEIBE@Z 00000001800ecd30 f   GuConvexHelper.obj
 0001:000ebe60       ?getConvexData@Gu@physx@@YA_NAEBVPxConvexMeshGeometry@2@AEAVFastVertex2ShapeScaling@Cm@2@AEAVPxBounds3@2@AEAUPolygonalData@12@@Z 00000001800ece60 f   GuConvexHelper.obj
 0001:000ec0e0       ?getScaledConvex@Gu@physx@@YAXAEAPEAV?$PxVec3T@M@2@AEAPEAEPEAV32@PEAE_NPEBV32@PEBEIAEBVFastVertex2ShapeScaling@Cm@2@@Z 00000001800ed0e0 f   GuConvexHelper.obj
 0001:000ec210       ??0ConvexMesh@Gu@physx@@QEAA@PEAVMeshFactory@12@@Z 00000001800ed210 f   GuConvexMesh.obj
 0001:000ec2a0       ??0ConvexMesh@Gu@physx@@QEAA@PEAVMeshFactory@12@AEAUConvexHullInitData@12@@Z 00000001800ed2a0 f   GuConvexMesh.obj
 0001:000ec3e0       ??_EConvexMesh@Gu@physx@@UEAAPEAXI@Z 00000001800ed3e0 f i GuConvexMesh.obj
 0001:000ec3e0       ??_GConvexMesh@Gu@physx@@UEAAPEAXI@Z 00000001800ed3e0 f i GuConvexMesh.obj
 0001:000ec4f0       ??_EPxBVH@physx@@MEAAPEAXI@Z 00000001800ed4f0 f i GuBVH.obj
 0001:000ec4f0       ??_EPxBase@physx@@MEAAPEAXI@Z 00000001800ed4f0 f i GuConvexMesh.obj
 0001:000ec4f0       ??_GPxBVH@physx@@MEAAPEAXI@Z 00000001800ed4f0 f i GuBVH.obj
 0001:000ec4f0       ??_GPxBase@physx@@MEAAPEAXI@Z 00000001800ed4f0 f i GuConvexMesh.obj
 0001:000ec520       ?acquireReference@ConvexMesh@Gu@physx@@UEAAXXZ 00000001800ed520 f   GuConvexMesh.obj
 0001:000ec520       ?acquireReference@DeformableVolumeAuxData@Gu@physx@@UEAAXXZ 00000001800ed520 f   GuTetrahedronMesh.obj
 0001:000ec520       ?acquireReference@DeformableVolumeMesh@Gu@physx@@UEAAXXZ 00000001800ed520 f   GuTetrahedronMesh.obj
 0001:000ec520       ?acquireReference@HeightField@Gu@physx@@UEAAXXZ 00000001800ed520 f   GuHeightField.obj
 0001:000ec520       ?acquireReference@TetrahedronMesh@Gu@physx@@UEAAXXZ 00000001800ed520 f   GuTetrahedronMesh.obj
 0001:000ec520       ?acquireReference@TriangleMesh@Gu@physx@@UEAAXXZ 00000001800ed520 f   GuTriangleMesh.obj
 0001:000ec9e0       ?createObject@ConvexMesh@Gu@physx@@SAPEAV123@AEAPEAEAEAVPxDeserializationContext@3@@Z 00000001800ed9e0 f   GuConvexMesh.obj
 0001:000ecb00       ?exportExtraData@ConvexMesh@Gu@physx@@UEAAXAEAVPxSerializationContext@3@@Z 00000001800edb00 f   GuConvexMesh.obj
 0001:000ecc00       ?getConcreteTypeName@PxConvexMesh@physx@@UEBAPEBDXZ 00000001800edc00 f i GuConvexMesh.obj
 0001:000ecc10       ?getIndexBuffer@ConvexMesh@Gu@physx@@UEBAPEBEXZ 00000001800edc10 f i GuConvexMesh.obj
 0001:000ecc50       ?getLocalBounds@ConvexMesh@Gu@physx@@UEBA?AVPxBounds3@3@XZ 00000001800edc50 f   GuConvexMesh.obj
 0001:000ecce0       ?getMassInformation@ConvexMesh@Gu@physx@@UEBAXAEAMAEAV?$PxMat33T@M@3@AEAV?$PxVec3T@M@3@@Z 00000001800edce0 f   GuConvexMesh.obj
 0001:000ecd50       ?getNbPolygons@ConvexMesh@Gu@physx@@UEBAIXZ 00000001800edd50 f i GuConvexMesh.obj
 0001:000ecd60       ?getNbVertices@ConvexMesh@Gu@physx@@UEBAIXZ 00000001800edd60 f i GuConvexMesh.obj
 0001:000ecd70       ?getPolygonData@ConvexMesh@Gu@physx@@UEBA_NIAEAUPxHullPolygon@3@@Z 00000001800edd70 f   GuConvexMesh.obj
 0001:000ecdc0       ?getReferenceCount@ConvexMesh@Gu@physx@@UEBAIXZ 00000001800eddc0 f   GuConvexMesh.obj
 0001:000ecdc0       ?getReferenceCount@DeformableVolumeAuxData@Gu@physx@@UEBAIXZ 00000001800eddc0 f   GuTetrahedronMesh.obj
 0001:000ecdc0       ?getReferenceCount@DeformableVolumeMesh@Gu@physx@@UEBAIXZ 00000001800eddc0 f   GuTetrahedronMesh.obj
 0001:000ecdc0       ?getReferenceCount@HeightField@Gu@physx@@UEBAIXZ 00000001800eddc0 f   GuHeightField.obj
 0001:000ecdc0       ?getReferenceCount@TetrahedronMesh@Gu@physx@@UEBAIXZ 00000001800eddc0 f   GuTetrahedronMesh.obj
 0001:000ecdc0       ?getReferenceCount@TriangleMesh@Gu@physx@@UEBAIXZ 00000001800eddc0 f   GuTriangleMesh.obj
 0001:000ecdc0       ?length@DNameStatusNode@@UEBAHXZ 00000001800eddc0 f   libvcruntime:undname.obj
 0001:000ecdc0       ?raw_length@DNameStatusNode@@UEBAHXZ 00000001800eddc0 f   libvcruntime:undname.obj
 0001:000ecdd0       ?getSDF@ConvexMesh@Gu@physx@@UEBAPEBMXZ 00000001800eddd0 f   GuConvexMesh.obj
 0001:000ecde0       ?getVertices@ConvexMesh@Gu@physx@@UEBAPEBV?$PxVec3T@M@3@XZ 00000001800edde0 f i GuConvexMesh.obj
 0001:000ece00       ?isGpuCompatible@ConvexMesh@Gu@physx@@UEBA_NXZ 00000001800ede00 f   GuConvexMesh.obj
 0001:000ece40       ?isKindOf@PxBase@physx@@MEBA_NPEBD@Z 00000001800ede40 f i GuConvexMesh.obj
 0001:000ece60       ?isKindOf@PxConvexMesh@physx@@MEBA_NPEBD@Z 00000001800ede60 f i GuConvexMesh.obj
 0001:000ecef0       ?isReleasable@PxBase@physx@@UEBA_NXZ 00000001800edef0 f i GuConvexMesh.obj
 0001:000ecf00       ?load@ConvexMesh@Gu@physx@@QEAA_NAEAVPxInputStream@3@@Z 00000001800edf00 f   GuConvexMesh.obj
 0001:000ed480       ?onRefCountZero@ConvexMesh@Gu@physx@@UEAAXXZ 00000001800ee480 f   GuConvexMesh.obj
 0001:000ed5c0       ?release@ConvexMesh@Gu@physx@@UEAAXXZ 00000001800ee5c0 f   GuConvexMesh.obj
 0001:000ed5c0       ?release@DeformableVolumeAuxData@Gu@physx@@UEAAXXZ 00000001800ee5c0 f   GuTetrahedronMesh.obj
 0001:000ed5c0       ?release@DeformableVolumeMesh@Gu@physx@@UEAAXXZ 00000001800ee5c0 f   GuTetrahedronMesh.obj
 0001:000ed5c0       ?release@HeightField@Gu@physx@@UEAAXXZ 00000001800ee5c0 f   GuHeightField.obj
 0001:000ed5c0       ?release@TetrahedronMesh@Gu@physx@@UEAAXXZ 00000001800ee5c0 f   GuTetrahedronMesh.obj
 0001:000ed5c0       ?release@TriangleMesh@Gu@physx@@UEAAXXZ 00000001800ee5c0 f   GuTriangleMesh.obj
 0001:000ed5f0       ??Dphysx@@YA?AV?$PxMat34T@M@0@AEBVPxMeshScale@0@AEBV10@@Z 00000001800ee5f0 f i GuConvexUtilsInternal.obj
 0001:000edb70       ?computeHullOBB@Gu@physx@@YAXAEAVBox@12@AEBVPxBounds3@2@MAEBV?$PxMat34T@M@2@2AEBVFastVertex2ShapeScaling@Cm@2@_N@Z 00000001800eeb70 f   GuConvexUtilsInternal.obj
 0001:000ee020       ?computeOBBAroundConvex@Gu@physx@@YAXAEAVBox@12@AEBVPxConvexMeshGeometry@2@PEBVPxConvexMesh@2@AEBV?$PxTransformT@M@2@@Z 00000001800ef020 f   GuConvexUtilsInternal.obj
 0001:000ee880       ?computeVertexSpaceOBB@Gu@physx@@YAXAEAVBox@12@AEBV312@AEBV?$PxTransformT@M@2@AEBVPxMeshScale@2@@Z 00000001800ef880 f   GuConvexUtilsInternal.obj
 0001:000eebb0       ?transform@physx@@YA?AVBox@Gu@1@AEBV?$PxMat34T@M@1@AEBV231@@Z 00000001800efbb0 f i GuConvexUtilsInternal.obj
 0001:000eee00       ?localSearch@physx@@YAXAEAIAEBV?$PxVec3T@M@1@PEBV21@PEBUBigConvexRawData@Gu@1@@Z 00000001800efe00 f   GuHillClimbing.obj
 0001:000eef40       ??0PCMPolygonalBox@Gu@physx@@QEAA@AEBV?$PxVec3T@M@2@@Z 00000001800eff40 f   GuPCMShapeConvex.obj
 0001:000eef40       ??0PolygonalBox@Gu@physx@@QEAA@AEBV?$PxVec3T@M@2@@Z 00000001800eff40 f   GuShapeConvex.obj
 0001:000f02c0       ?getPolygonalData@PolygonalBox@Gu@physx@@QEBAXPEIAUPolygonalData@23@@Z 00000001800f12c0 f   GuShapeConvex.obj
 0001:000f0330       ?getPolygonalData_Convex@Gu@physx@@YAXPEIAUPolygonalData@12@PEIBUConvexHullData@12@AEBVFastVertex2ShapeScaling@Cm@2@@Z 00000001800f1330 f   GuShapeConvex.obj
 0001:000f04a0       ?distancePointBoxSquared@Gu@physx@@YAMAEBV?$PxVec3T@M@2@00AEBV?$PxMat33T@M@2@PEAV32@@Z 00000001800f14a0 f   GuDistancePointBox.obj
 0001:000f05f0       ?closestPtPointTriangle@Gu@physx@@YA?AV?$PxVec3T@M@2@AEBV32@000AEAM1@Z 00000001800f15f0 f   GuDistancePointTriangle.obj
 0001:000f0b10       ?distancePointTriangleSquared2UnitBox@Gu@physx@@YA?AT__m128@@AEBT3@000AEAT3@11@Z 00000001800f1b10 f   GuDistancePointTriangle.obj
 0001:000f0c30       ?distancePointTriangleSquared@Gu@physx@@YA?AT__m128@@AEBT3@000AEAT3@11@Z 00000001800f1c30 f   GuDistancePointTriangle.obj
 0001:000f1990       ?distanceSegmentBoxSquared@Gu@physx@@YAMAEBV?$PxVec3T@M@2@000AEBV?$PxMat33T@M@2@PEAMPEAV32@@Z 00000001800f2990 f   GuDistanceSegmentBox.obj
 0001:000f2180       ?distanceSegmentSegmentSquared4@Gu@physx@@YA?AT__m128@@AEBT3@000000000AEAT3@1@Z 00000001800f3180 f   GuDistanceSegmentSegment.obj
 0001:000f2480       ?distanceSegmentSegmentSquared@Gu@physx@@YA?AT__m128@@AEBT3@000AEAT3@1@Z 00000001800f3480 f   GuDistanceSegmentSegment.obj
 0001:000f2650       ?distanceSegmentSegmentSquared@Gu@physx@@YAMAEBV?$PxVec3T@M@2@000PEAM1@Z 00000001800f3650 f   GuDistanceSegmentSegment.obj
 0001:000f28e0       ?distanceSegmentSegmentSquared@Gu@physx@@YAMAEBV?$PxVec3T@M@2@0M00MPEAM1@Z 00000001800f38e0 f   GuDistanceSegmentSegment.obj
 0001:000f3030       ?distanceSegmentTriangleSquared@Gu@physx@@YA?AT__m128@@AEBT3@0000AEAT3@1@Z 00000001800f4030 f   GuDistanceSegmentTriangle.obj
 0001:000f3770       ?distanceSegmentTriangleSquared@Gu@physx@@YAMAEBV?$PxVec3T@M@2@0000PEAM11@Z 00000001800f4770 f   GuDistanceSegmentTriangle.obj
 0001:000f4e10       ?distanceTriangleTriangleSquared@Gu@physx@@YAMAEAV?$PxVec3T@M@2@0QEBVPxVec3Padded@2@1@Z 00000001800f5e10 f   GuDistanceTriangleTriangle.obj
 0001:000f5960       ?closestPtPointTetrahedron@Gu@physx@@YA?AV?$PxVec3T@M@2@AEBV32@0000AEBV?$PxVec4T@M@2@@Z 00000001800f6960 f   GuDistancePointTetrahedron.obj
 0001:000f6a90       ?PenetrationDepth@EPA@Gu@physx@@QEAA?AW4GjkStatus@23@AEBUGjkConvex@23@0PEIBT__m128@@1E_NT6@AEAUGjkOutput@23@@Z 00000001800f7a90 f   GuEPA.obj
 0001:000f7540       ?addFacet@EPA@Gu@physx@@QEAAPEAVFacet@23@IIIAEBT__m128@@@Z 00000001800f8540 f   GuEPA.obj
 0001:000f7980       ?epaPenetration@Gu@physx@@YA?AW4GjkStatus@12@AEBUGjkConvex@12@0PEIBE1E_NT__m128@@AEAUGjkOutput@12@@Z 00000001800f8980 f   GuEPA.obj
 0001:000f7af0       ?epaPenetration@Gu@physx@@YA?AW4GjkStatus@12@AEBUGjkConvex@12@0PEIBT__m128@@1E_NT5@AEAUGjkOutput@12@@Z 00000001800f8af0 f   GuEPA.obj
 0001:000f7ba0       ?silhouette@Facet@Gu@physx@@QEAAXAEBT__m128@@PEIBT4@1AEAVEdgeBuffer@23@AEAV?$InlineDeferredIDPool@$0EA@@Cm@3@@Z 00000001800f8ba0 f   GuEPA.obj
 0001:000f7d70       ?closestPtPointTetrahedron@Gu@physx@@YA?AT__m128@@PEIAT3@00AEAI@Z 00000001800f8d70 f   GuGJKSimplex.obj
 0001:000f84f0       ?closestPtPointTetrahedron@Gu@physx@@YA?AT__m128@@PEIAT3@00PEIAH1AEAI@Z 00000001800f94f0 f   GuGJKSimplex.obj
 0001:000f9f60       ??$gjk@UGjkConvex@Gu@physx@@U123@@Gu@physx@@YA?AW4GjkStatus@01@AEBUGjkConvex@01@0AEBT__m128@@1AEAT4@222@Z 00000001800faf60 f i GuGJKTest.obj
 0001:000fab10       ??$gjkPenetration@UGjkConvex@Gu@physx@@U123@@Gu@physx@@YA?AW4GjkStatus@01@AEBUGjkConvex@01@0AEBT__m128@@1_NPEIAE3AEAEAEAUGjkOutput@01@@Z 00000001800fbb10 f i GuGJKTest.obj
 0001:000fab80       ??$gjkPenetration@UGjkConvex@Gu@physx@@U123@@Gu@physx@@YA?AW4GjkStatus@01@AEBUGjkConvex@01@0AEBT__m128@@1_NPEIAE3PEIAT4@4AEAEAEAUGjkOutput@01@@Z 00000001800fbb80 f i GuGJKTest.obj
 0001:000fc5c0       ??$gjkRaycast@UGjkConvex@Gu@physx@@U123@@Gu@physx@@YA_NAEBUGjkConvex@01@0AEBT__m128@@111AEAT3@22M@Z 00000001800fd5c0 f i GuGJKTest.obj
 0001:000fd150       ?testEpaPenetration@Gu@physx@@YA?AW4GjkStatus@12@AEBUGjkConvex@12@0PEBE1EAEAUGjkOutput@12@@Z 00000001800fe150 f   GuGJKTest.obj
 0001:000fd1a0       ?testGjk@Gu@physx@@YA?AW4GjkStatus@12@AEBUGjkConvex@12@0AEBT__m128@@1AEAT5@222@Z 00000001800fe1a0 f   GuGJKTest.obj
 0001:000fd1b0       ?testGjkPenetration@Gu@physx@@YA?AW4GjkStatus@12@AEBUGjkConvex@12@0AEBT__m128@@1PEAE2AEAEAEAUGjkOutput@12@@Z 00000001800fe1b0 f   GuGJKTest.obj
 0001:000fd200       ?testGjkRaycast@Gu@physx@@YA_NAEBUGjkConvex@12@0AEBT__m128@@111AEAT4@22M@Z 00000001800fe200 f   GuGJKTest.obj
 0001:000fd210       ??0HeightField@Gu@physx@@QEAA@PEAVMeshFactory@12@@Z 00000001800fe210 f   GuHeightField.obj
 0001:000fd260       ??0HeightField@Gu@physx@@QEAA@PEAVMeshFactory@12@AEAUHeightFieldData@12@@Z 00000001800fe260 f   GuHeightField.obj
 0001:000fd310       ??1HeightField@Gu@physx@@UEAA@XZ 00000001800fe310 f   GuHeightField.obj
 0001:000fd390       ??_EHeightField@Gu@physx@@UEAAPEAXI@Z 00000001800fe390 f i GuHeightField.obj
 0001:000fd390       ??_GHeightField@Gu@physx@@UEAAPEAXI@Z 00000001800fe390 f i GuHeightField.obj
 0001:000fd440       ?computeCellCoordinates@HeightField@Gu@physx@@QEBAIMMAEAM0@Z 00000001800fe440 f   GuHeightField.obj
 0001:000fd560       ?createObject@HeightField@Gu@physx@@SAPEAV123@AEAPEAEAEAVPxDeserializationContext@3@@Z 00000001800fe560 f   GuHeightField.obj
 0001:000fd5b0       ?exportExtraData@HeightField@Gu@physx@@UEAAXAEAVPxSerializationContext@3@@Z 00000001800fe5b0 f   GuHeightField.obj
 0001:000fd600       ?getConcreteTypeName@PxHeightField@physx@@UEBAPEBDXZ 00000001800fe600 f i GuHeightField.obj
 0001:000fd610       ?getConvexEdgeThreshold@HeightField@Gu@physx@@UEBAMXZ 00000001800fe610 f i GuHeightField.obj
 0001:000fd620       ?getFlags@HeightField@Gu@physx@@UEBA?AV?$PxFlags@W4Enum@PxHeightFieldFlag@physx@@G@3@XZ 00000001800fe620 f i GuHeightField.obj
 0001:000fd630       ?getFormat@HeightField@Gu@physx@@UEBA?AW4Enum@PxHeightFieldFormat@3@XZ 00000001800fe630 f i GuHeightField.obj
 0001:000fd640       ?getHeight@HeightField@Gu@physx@@UEBAMMM@Z 00000001800fe640 f i GuHeightField.obj
 0001:000fd760       ?getNbColumns@HeightField@Gu@physx@@UEBAIXZ 00000001800fe760 f i GuHeightField.obj
 0001:000fd770       ?getNbBounds@BVH@Gu@physx@@UEBAIXZ 00000001800fe770 f i GuBVH.obj
 0001:000fd770       ?getNbPrimitives@SourceMesh@Gu@physx@@UEBAIXZ 00000001800fe770 f i GuBV4.obj
 0001:000fd770       ?getNbPrimitives@TetrahedronSourceMesh@Gu@physx@@UEBAIXZ 00000001800fe770 f i GuBV4.obj
 0001:000fd770       ?getNbRows@HeightField@Gu@physx@@UEBAIXZ 00000001800fe770 f i GuHeightField.obj
 0001:000fd780       ?getSample@HeightField@Gu@physx@@UEBAAEBUPxHeightFieldSample@3@II@Z 00000001800fe780 f i GuHeightField.obj
 0001:000fd790       ?getSampleStride@HeightField@Gu@physx@@UEBAIXZ 00000001800fe790 f i GuHeightField.obj
 0001:000fd7a0       ?getTimestamp@HeightField@Gu@physx@@UEBAIXZ 00000001800fe7a0 f i GuHeightField.obj
 0001:000fd7b0       ?getTriangleMaterialIndex@HeightField@Gu@physx@@UEBAGI@Z 00000001800fe7b0 f i GuHeightField.obj
 0001:000fd7e0       ?getTriangleNormal@HeightField@Gu@physx@@UEBA?AV?$PxVec3T@M@3@I@Z 00000001800fe7e0 f i GuHeightField.obj
 0001:000fd800       ?getTriangleNormalInternal@HeightField@Gu@physx@@QEBA?AV?$PxVec3T@M@3@I@Z 00000001800fe800 f i GuHeightField.obj
 0001:000fd950       ?isKindOf@PxHeightField@physx@@MEBA_NPEBD@Z 00000001800fe950 f i GuHeightField.obj
 0001:000fd9e0       ?load@HeightField@Gu@physx@@QEAA_NAEAVPxInputStream@3@@Z 00000001800fe9e0 f   GuHeightField.obj
 0001:000fdd40       ?loadFromDesc@HeightField@Gu@physx@@QEAA_NAEBVPxHeightFieldDesc@3@@Z 00000001800fed40 f   GuHeightField.obj
 0001:000fdf40       ?modifySamples@HeightField@Gu@physx@@UEAA_NHHAEBVPxHeightFieldDesc@3@_N@Z 00000001800fef40 f   GuHeightField.obj
 0001:000fe2c0       ?onRefCountZero@HeightField@Gu@physx@@UEAAXXZ 00000001800ff2c0 f   GuHeightField.obj
 0001:000fe390       ?releaseMemory@HeightField@Gu@physx@@QEAAXXZ 00000001800ff390 f   GuHeightField.obj
 0001:000fe3e0       ?save@HeightField@Gu@physx@@QEAA_NAEAVPxOutputStream@3@_N@Z 00000001800ff3e0 f   GuHeightField.obj
 0001:000fe620       ?saveCells@HeightField@Gu@physx@@UEBAIPEAXI@Z 00000001800ff620 f   GuHeightField.obj
 0001:000fe660       ?computeLocalBounds@HeightFieldUtil@Gu@physx@@QEBAXAEAVPxBounds3@3@@Z 00000001800ff660 f   GuHeightFieldUtil.obj
 0001:000feb30       ?getTriangle@HeightFieldUtil@Gu@physx@@QEBAIAEBV?$PxTransformT@M@3@AEAVPxTriangle@3@PEAI2I_N3@Z 00000001800ffb30 f   GuHeightFieldUtil.obj
 0001:000ff660       ?getTriangleAdjacencyIndices@HeightField@Gu@physx@@QEBAXIIIIAEAI00@Z 0000000180100660 f i GuHeightFieldUtil.obj
 0001:000ff830       ?overlapAABBTriangles@HeightFieldUtil@Gu@physx@@QEBAXAEBVPxBounds3@3@AEAVOverlapReport@23@I@Z 0000000180100830 f   GuHeightFieldUtil.obj
 0001:000ffc90       ??$gjk@U?$RelativeConvex@VTriangleV@Gu@physx@@@Gu@physx@@U?$LocalConvex@VConvexHullV@Gu@physx@@@23@@Gu@physx@@YA?AW4GjkStatus@01@AEBU?$RelativeConvex@VTriangleV@Gu@physx@@@01@AEBU?$LocalConvex@VConvexHullV@Gu@physx@@@01@AEBT__m128@@2AEAT5@333@Z 0000000180100c90 f i GuOverlapTestsHF.obj
 0001:00100a50       ?GeomOverlapCallback_BoxHeightfield@@YA_NAEBVPxGeometry@physx@@AEBV?$PxTransformT@M@2@01PEAUTriggerCache@Gu@2@PEAUPxQueryThreadContext@2@@Z 0000000180101a50 f   GuOverlapTestsHF.obj
 0001:00100f90       ?GeomOverlapCallback_CapsuleHeightfield@@YA_NAEBVPxGeometry@physx@@AEBV?$PxTransformT@M@2@01PEAUTriggerCache@Gu@2@PEAUPxQueryThreadContext@2@@Z 0000000180101f90 f   GuOverlapTestsHF.obj
 0001:001015b0       ?GeomOverlapCallback_ConvexHeightfield@@YA_NAEBVPxGeometry@physx@@AEBV?$PxTransformT@M@2@01PEAUTriggerCache@Gu@2@PEAUPxQueryThreadContext@2@@Z 00000001801025b0 f   GuOverlapTestsHF.obj
 0001:00102010       ?GeomOverlapCallback_SphereHeightfield@@YA_NAEBVPxGeometry@physx@@AEBV?$PxTransformT@M@2@01PEAUTriggerCache@Gu@2@PEAUPxQueryThreadContext@2@@Z 0000000180103010 f   GuOverlapTestsHF.obj
 0001:00102bd0       ??$gjkRaycast@U?$LocalConvex@VTriangleV@Gu@physx@@@Gu@physx@@U?$LocalConvex@VConvexHullV@Gu@physx@@@23@@Gu@physx@@YA_NAEBU?$LocalConvex@VTriangleV@Gu@physx@@@01@AEBU?$LocalConvex@VConvexHullV@Gu@physx@@@01@AEBT__m128@@222AEAT4@33M@Z 0000000180103bd0 f i GuSweepsHF.obj
 0001:00103a00       ??$traceSegment@VBoxTraceSegmentReport@@$0A@$00@HeightFieldTraceUtil@Gu@physx@@QEBAXAEBV?$PxVec3T@M@2@0MPEAVBoxTraceSegmentReport@@AEBVPxBounds3@2@_NPEBV32@@Z 0000000180104a00 f i GuSweepsHF.obj
 0001:00103a00       ??$traceSegment@VCapsuleTraceSegmentReport@@$0A@$00@HeightFieldTraceUtil@Gu@physx@@QEBAXAEBV?$PxVec3T@M@2@0MPEAVCapsuleTraceSegmentReport@@AEBVPxBounds3@2@_NPEBV32@@Z 0000000180104a00 f i GuSweepsHF.obj
 0001:00103a00       ??$traceSegment@VConvexTraceSegmentReport@@$0A@$00@HeightFieldTraceUtil@Gu@physx@@QEBAXAEBV?$PxVec3T@M@2@0MPEAVConvexTraceSegmentReport@@AEBVPxBounds3@2@_NPEBV32@@Z 0000000180104a00 f i GuSweepsHF.obj
 0001:001041e0       ??0ConvexTraceSegmentReport@@QEAA@AEBVHeightFieldUtil@Gu@physx@@AEBUConvexHullData@23@AEBVPxMeshScale@3@AEBV?$PxTransformT@M@3@3AEBV?$PxVec3T@M@3@MV?$PxFlags@W4Enum@PxHitFlag@physx@@G@3@M@Z 00000001801051e0 f i GuSweepsHF.obj
 0001:00104b60       ??_EBoxTraceSegmentReport@@UEAAPEAXI@Z 0000000180105b60 f i GuSweepsHF.obj
 0001:00104b60       ??_GBoxTraceSegmentReport@@UEAAPEAXI@Z 0000000180105b60 f i GuSweepsHF.obj
 0001:00104b90       ??_ECapsuleTraceSegmentReport@@UEAAPEAXI@Z 0000000180105b90 f i GuSweepsHF.obj
 0001:00104b90       ??_GCapsuleTraceSegmentReport@@UEAAPEAXI@Z 0000000180105b90 f i GuSweepsHF.obj
 0001:00104bc0       ??_EConvexTraceSegmentReport@@UEAAPEAXI@Z 0000000180105bc0 f i GuSweepsHF.obj
 0001:00104bc0       ??_GConvexTraceSegmentReport@@UEAAPEAXI@Z 0000000180105bc0 f i GuSweepsHF.obj
 0001:00104bf0       ??_EHeightFieldTraceSegmentReport@@UEAAPEAXI@Z 0000000180105bf0 f i GuSweepsHF.obj
 0001:00104bf0       ??_GHeightFieldTraceSegmentReport@@UEAAPEAXI@Z 0000000180105bf0 f i GuSweepsHF.obj
 0001:00104c20       ?finalizeHit@ConvexTraceSegmentReport@@QEAA_NAEAUPxGeomSweepHit@physx@@AEBVPxHeightFieldGeometry@3@AEBV?$PxTransformT@M@3@AEBVPxConvexMeshGeometry@3@2AEBV?$PxVec3T@M@3@M@Z 0000000180105c20 f i GuSweepsHF.obj
 0001:00104e40       ?onEvent@BoxTraceSegmentReport@@UEAA_NIPEBI@Z 0000000180105e40 f i GuSweepsHF.obj
 0001:001052a0       ?onEvent@CapsuleTraceSegmentReport@@UEAA_NIPEBI@Z 00000001801062a0 f i GuSweepsHF.obj
 0001:001054c0       ?onEvent@ConvexTraceSegmentReport@@UEAA_NIPEBI@Z 00000001801064c0 f i GuSweepsHF.obj
 0001:00105a70       ?prepare@?$OverlapTraceSegment@VBoxTraceSegmentReport@@@HeightFieldTraceUtil@Gu@physx@@QEAAXAEBV?$PxVec3T@M@4@00AEAM1@Z 0000000180106a70 f i GuSweepsHF.obj
 0001:00105a70       ?prepare@?$OverlapTraceSegment@VCapsuleTraceSegmentReport@@@HeightFieldTraceUtil@Gu@physx@@QEAAXAEBV?$PxVec3T@M@4@00AEAM1@Z 0000000180106a70 f i GuSweepsHF.obj
 0001:00105a70       ?prepare@?$OverlapTraceSegment@VConvexTraceSegmentReport@@@HeightFieldTraceUtil@Gu@physx@@QEAAXAEBV?$PxVec3T@M@4@00AEAM1@Z 0000000180106a70 f i GuSweepsHF.obj
 0001:00105d30       ?sweepBox_HeightFieldGeom@@YA_NAEBVPxGeometry@physx@@AEBV?$PxTransformT@M@2@AEBVPxBoxGeometry@2@1AEBVBox@Gu@2@AEBV?$PxVec3T@M@2@MAEAUPxGeomSweepHit@2@V?$PxFlags@W4Enum@PxHitFlag@physx@@G@2@MPEAUPxQueryThreadContext@2@@Z 0000000180106d30 f   GuSweepsHF.obj
 0001:00106b80       ?sweepCapsule_HeightFieldGeom@@YA_NAEBVPxGeometry@physx@@AEBV?$PxTransformT@M@2@AEBVPxCapsuleGeometry@2@1AEBVCapsule@Gu@2@AEBV?$PxVec3T@M@2@MAEAUPxGeomSweepHit@2@V?$PxFlags@W4Enum@PxHitFlag@physx@@G@2@MPEAUPxQueryThreadContext@2@@Z 0000000180107b80 f   GuSweepsHF.obj
 0001:001074e0       ?sweepConvex_HeightFieldGeom@@YA_NAEBVPxGeometry@physx@@AEBV?$PxTransformT@M@2@AEBVPxConvexMeshGeometry@2@1AEBV?$PxVec3T@M@2@MAEAUPxGeomSweepHit@2@V?$PxFlags@W4Enum@PxHitFlag@physx@@G@2@MPEAUPxQueryThreadContext@2@@Z 00000001801084e0 f   GuSweepsHF.obj
 0001:00107eb0       ?testVertexIndex@?$OverlapTraceSegment@VBoxTraceSegmentReport@@@HeightFieldTraceUtil@Gu@physx@@QEAA_NI@Z 0000000180108eb0 f i GuSweepsHF.obj
 0001:00107eb0       ?testVertexIndex@?$OverlapTraceSegment@VCapsuleTraceSegmentReport@@@HeightFieldTraceUtil@Gu@physx@@QEAA_NI@Z 0000000180108eb0 f i GuSweepsHF.obj
 0001:00107eb0       ?testVertexIndex@?$OverlapTraceSegment@VConvexTraceSegmentReport@@@HeightFieldTraceUtil@Gu@physx@@QEAA_NI@Z 0000000180108eb0 f i GuSweepsHF.obj
 0001:00108010       ?transformFast@PxBounds3@physx@@SA?AV12@AEBV?$PxTransformT@M@2@AEBV12@@Z 0000000180109010 f i GuSweepsHF.obj
 0001:001083f0       ?visitCells@?$OverlapTraceSegment@VBoxTraceSegmentReport@@@HeightFieldTraceUtil@Gu@physx@@QEAA_NAEBUOverlapRectangle@1234@@Z 00000001801093f0 f i GuSweepsHF.obj
 0001:001083f0       ?visitCells@?$OverlapTraceSegment@VCapsuleTraceSegmentReport@@@HeightFieldTraceUtil@Gu@physx@@QEAA_NAEBUOverlapRectangle@1234@@Z 00000001801093f0 f i GuSweepsHF.obj
 0001:001083f0       ?visitCells@?$OverlapTraceSegment@VConvexTraceSegmentReport@@@HeightFieldTraceUtil@Gu@physx@@QEAA_NAEBUOverlapRectangle@1234@@Z 00000001801093f0 f i GuSweepsHF.obj
 0001:001085e0       ?intersectOBBOBB@Gu@physx@@YA_NAEBV?$PxVec3T@M@2@0AEBV?$PxMat33T@M@2@001_N@Z 00000001801095e0 f   GuIntersectionBoxBox.obj
 0001:00108c70       ?intersectCapsuleTriangle@Gu@physx@@YA_NAEBV?$PxVec3T@M@2@000AEBVCapsule@12@AEBUCapsuleTriangleOverlapData@12@@Z 0000000180109c70 f   GuIntersectionCapsuleTriangle.obj
 0001:001097f0       ?intersectEdgeEdge@Gu@physx@@YA_NAEBV?$PxVec3T@M@2@0000AEAMAEAV32@@Z 000000018010a7f0 f   GuIntersectionEdgeEdge.obj
 0001:00109b20       ?intersectRayAABB2@Gu@physx@@YA_NAEBT__m128@@0000AEAT3@1@Z 000000018010ab20 f   GuIntersectionRayBox.obj
 0001:00109be0       ?intersectRayAABB2@Gu@physx@@YA_NAEBV?$PxVec3T@M@2@000MAEAM1@Z 000000018010abe0 f   GuIntersectionRayBox.obj
 0001:00109d90       ?intersectRayAABB@Gu@physx@@YAHAEBV?$PxVec3T@M@2@000AEAM1@Z 000000018010ad90 f   GuIntersectionRayBox.obj
 0001:00109eb0       ?rayAABBIntersect2@Gu@physx@@YAIAEBV?$PxVec3T@M@2@000AEAV32@AEAM@Z 000000018010aeb0 f   GuIntersectionRayBox.obj
 0001:0010a0b0       ?intersectRayCapsuleInternal@Gu@physx@@YAIAEBV?$PxVec3T@M@2@000MQEAM@Z 000000018010b0b0 f   GuIntersectionRayCapsule.obj
 0001:0010a590       ?intersectRaySphere@Gu@physx@@YA_NAEBV?$PxVec3T@M@2@0M0MAEAMPEAV32@@Z 000000018010b590 f   GuIntersectionRaySphere.obj
 0001:0010a690       ?intersectRaySphereBasic@Gu@physx@@YA_NAEBV?$PxVec3T@M@2@0M0MAEAMPEAV32@@Z 000000018010b690 f   GuIntersectionRaySphere.obj
 0001:0010a7f0       ?intersectSphereBox@Gu@physx@@YA_NAEBVSphere@12@AEBVBox@12@@Z 000000018010b7f0 f   GuIntersectionSphereBox.obj
 0001:0010aa20       ?intersectTetrahedronBox@Gu@physx@@YA_NAEBV?$PxVec3T@M@2@000AEBVPxBounds3@2@@Z 000000018010ba20 f   GuIntersectionTetrahedronBox.obj
 0001:0010adf0       ?intersectTriangleBox@Gu@physx@@YAHAEBVBoxPadded@12@AEBV?$PxVec3T@M@2@11@Z 000000018010bdf0 f   GuIntersectionTriangleBox.obj
 0001:0010b3c0       ?intersectTriangleBoxBV4@@YAHAEBV?$PxVec3T@M@physx@@00AEBV?$PxMat33T@M@2@00@Z 000000018010c3c0 f   GuIntersectionTriangleBox.obj
 0001:0010b800       ?intersectTriangleBox_ReferenceCode@Gu@physx@@YAHAEBV?$PxVec3T@M@2@0000@Z 000000018010c800 f   GuIntersectionTriangleBox.obj
 0001:0010bfd0       ?intersectTriangleBox_Unsafe@Gu@physx@@YAHAEBV?$PxVec3T@M@2@0000@Z 000000018010cfd0 f   GuIntersectionTriangleBox.obj
 0001:0010c3a0       ?intersectTriangleTriangle@Gu@physx@@YA_NAEBV?$PxVec3T@M@2@00000_N@Z 000000018010d3a0 f   GuIntersectionTriangleTriangle.obj
 0001:0010d770       ??0BV4Tree@Gu@physx@@QEAA@W4PxEMPTY@2@@Z 000000018010e770 f   GuBV4.obj
 0001:0010d780       ??0BV4Tree@Gu@physx@@QEAA@XZ 000000018010e780 f   GuBV4.obj
 0001:0010d7b0       ??0SourceMesh@Gu@physx@@QEAA@XZ 000000018010e7b0 f   GuBV4.obj
 0001:0010d7e0       ??0TetrahedronSourceMesh@Gu@physx@@QEAA@XZ 000000018010e7e0 f   GuBV4.obj
 0001:0010d810       ??1BV4Tree@Gu@physx@@QEAA@XZ 000000018010e810 f   GuBV4.obj
 0001:0010d870       ??1SourceMesh@Gu@physx@@UEAA@XZ 000000018010e870 f   GuBV4.obj
 0001:0010d870       ??1TetrahedronSourceMesh@Gu@physx@@UEAA@XZ 000000018010e870 f   GuBV4.obj
 0001:0010d8c0       ??4BV4Tree@Gu@physx@@QEAAXAEAV012@@Z 000000018010e8c0 f   GuBV4.obj
 0001:0010d950       ??4SourceMesh@Gu@physx@@QEAAXAEAV012@@Z 000000018010e950 f   GuBV4.obj
 0001:0010d9a0       ??_ESourceMesh@Gu@physx@@UEAAPEAXI@Z 000000018010e9a0 f i GuBV4.obj
 0001:0010d9a0       ??_ETetrahedronSourceMesh@Gu@physx@@UEAAPEAXI@Z 000000018010e9a0 f i GuBV4.obj
 0001:0010d9a0       ??_GSourceMesh@Gu@physx@@UEAAPEAXI@Z 000000018010e9a0 f i GuBV4.obj
 0001:0010d9a0       ??_GTetrahedronSourceMesh@Gu@physx@@UEAAPEAXI@Z 000000018010e9a0 f i GuBV4.obj
 0001:0010da40       ??_ESourceMeshBase@Gu@physx@@UEAAPEAXI@Z 000000018010ea40 f i GuBV4.obj
 0001:0010da40       ??_GSourceMeshBase@Gu@physx@@UEAAPEAXI@Z 000000018010ea40 f i GuBV4.obj
 0001:0010dae0       ?exportExtraData@BV4Tree@Gu@physx@@QEAAXAEAVPxSerializationContext@3@@Z 000000018010eae0 f   GuBV4.obj
 0001:0010db40       ?getPrimitiveBox@SourceMesh@Gu@physx@@UEAAXIAEAT__m128@@0@Z 000000018010eb40 f   GuBV4.obj
 0001:0010dbd0       ?getPrimitiveBox@TetrahedronSourceMesh@Gu@physx@@UEAAXIAEAT__m128@@0@Z 000000018010ebd0 f   GuBV4.obj
 0001:0010dc80       ?importExtraData@BV4Tree@Gu@physx@@QEAAXAEAVPxDeserializationContext@3@@Z 000000018010ec80 f   GuBV4.obj
 0001:0010dcd0       ?init@BV32Tree@Gu@physx@@QEAA_NPEAVSourceMeshBase@23@AEBVPxBounds3@3@@Z 000000018010ecd0 f   GuBV32.obj
 0001:0010dcd0       ?init@BV4Tree@Gu@physx@@QEAA_NPEAVSourceMeshBase@23@AEBVPxBounds3@3@@Z 000000018010ecd0 f   GuBV4.obj
 0001:0010dd70       ?load@BV4Tree@Gu@physx@@QEAA_NAEAVPxInputStream@3@_N@Z 000000018010ed70 f   GuBV4.obj
 0001:0010dfb0       ?refit@BV4Tree@Gu@physx@@QEAA_NAEAVPxBounds3@3@M@Z 000000018010efb0 f   GuBV4.obj
 0001:0010e6f0       ?refit@SourceMesh@Gu@physx@@UEAAXIAEAVPxBounds3@3@@Z 000000018010f6f0 f   GuBV4.obj
 0001:0010e890       ?refit@TetrahedronSourceMesh@Gu@physx@@UEAAXIAEAVPxBounds3@3@@Z 000000018010f890 f   GuBV4.obj
 0001:0010eab0       ?remapTopology@SourceMesh@Gu@physx@@UEAAXPEBI@Z 000000018010fab0 f   GuBV4.obj
 0001:0010ed50       ?remapTopology@TetrahedronSourceMesh@Gu@physx@@UEAAXPEBI@Z 000000018010fd50 f   GuBV4.obj
 0001:0010f000       ??0BV4_AABBTree@Gu@physx@@QEAA@XZ 0000000180110000 f   GuBV4Build.obj
 0001:0010f010       ??0BVData@@QEAA@XZ         0000000180110010 f   GuBV4Build.obj
 0001:0010f040       ??0BuildStats@Gu@physx@@QEAA@XZ 0000000180110040 f i GuBV4Build.obj
 0001:0010f050       ??1BV4_AABBTree@Gu@physx@@QEAA@XZ 0000000180110050 f   GuBV4Build.obj
 0001:0010f060       ??4BuildStats@Gu@physx@@QEAAAEAU012@$$QEAU012@@Z 0000000180110060 f i GuBV4Build.obj
 0001:0010f070       ??4BuildStats@Gu@physx@@QEAAAEAU012@AEBU012@@Z 0000000180110070 f i GuBV4Build.obj
 0001:0010f080       ?BuildBV4Ex@Gu@physx@@YA_NAEAVBV4Tree@12@AEAVSourceMeshBase@12@MI_NW4BV4_BuildStrategy@12@@Z 0000000180110080 f   GuBV4Build.obj
 0001:0010ff50       ?allocateNode@BV4BuildParams@@QEAAPEAUBV4Node@@XZ 0000000180110f50 f   GuBV4Build.obj
 0001:001103c0       ?buildFromMesh@BV4_AABBTree@Gu@physx@@QEAA_NAEAVSourceMeshBase@23@IW4BV4_BuildStrategy@23@@Z 00000001801113c0 f   GuBV4Build.obj
 0001:00111100       ?getCount@BuildStats@Gu@physx@@QEBAIXZ 0000000180112100 f i GuBV4Build.obj
 0001:00111100       ?getNbActiveObjects@PruningPool@Gu@physx@@QEBAIXZ 0000000180112100 f i GuIncrementalAABBPrunerCore.obj
 0001:001111e0       ?increaseCount@BuildStats@Gu@physx@@QEAAXI@Z 00000001801121e0 f i GuBV4Build.obj
 0001:00111c20       ?release@BV4_AABBTree@Gu@physx@@QEAAXXZ 0000000180112c20 f   GuBV4Build.obj
 0001:00111cd0       ?releaseNodes@BV4BuildParams@@QEAAXXZ 0000000180112cd0 f   GuBV4Build.obj
 0001:00111d40       ?reset@BuildStats@Gu@physx@@QEAAXXZ 0000000180112d40 f i GuBV4Build.obj
 0001:00111d50       ?setCount@BuildStats@Gu@physx@@QEAAXI@Z 0000000180112d50 f i GuBV4Build.obj
 0001:001123b0       ?walk@BV4_AABBTree@Gu@physx@@QEBAIP6A_NPEBVAABBTreeNode@23@IPEAX@Z1@Z 00000001801133b0 f   GuBV4Build.obj
 0001:00112470       ?walkDistance@BV4_AABBTree@Gu@physx@@QEBAIP6A_NPEBVAABBTreeNode@23@IPEAX@ZP6A_N01@Z1@Z 0000000180113470 f   GuBV4Build.obj
 0001:001163c0       ?GenericSweep_AABB_CB@@YAXAEBVBox@Gu@physx@@AEBV?$PxVec3T@M@3@MAEBVBV4Tree@23@P6A_NPEAX111IAEAM@Z3I@Z 00000001801173c0 f   GuBV4_AABBSweep.obj
 0001:00116520       ?Sweep_AABB_BV4@@YAHAEBVBox@Gu@physx@@AEBV?$PxVec3T@M@3@MAEBVBV4Tree@23@PEIAVSweepHit@23@I@Z 0000000180117520 f   GuBV4_AABBSweep.obj
 0001:0011f6f0       ?BV4_OverlapBoxAll@@YAIAEBVBox@Gu@physx@@AEBVBV4Tree@23@PEIBV?$PxMat44T@M@3@PEAIIAEA_N@Z 00000001801206f0 f   GuBV4_BoxOverlap.obj
 0001:0011ff10       ?BV4_OverlapBoxAny@@YAHAEBVBox@Gu@physx@@AEBVBV4Tree@23@PEIBV?$PxMat44T@M@3@@Z 0000000180120f10 f   GuBV4_BoxOverlap.obj
 0001:00120700       ?BV4_OverlapBoxCB@@YAXAEBVBox@Gu@physx@@AEBVBV4Tree@23@P6A_NPEAXAEBV?$PxVec3T@M@3@333IPEBI@Z2@Z 0000000180121700 f   GuBV4_BoxOverlap.obj
 0001:00120db0       ?BV4_OverlapBoxCB@@YAXAEBVBox@Gu@physx@@AEBVBV4Tree@23@P6A_NPEAXAEBV?$PxVec3T@M@3@33IPEBI@Z2@Z 0000000180121db0 f   GuBV4_BoxOverlap.obj
 0001:00121260       ?BV4_OverlapCapsuleAll@@YAIAEBVCapsule@Gu@physx@@AEBVBV4Tree@23@PEIBV?$PxMat44T@M@3@PEAIIAEA_N@Z 0000000180122260 f   GuBV4_BoxOverlap.obj
 0001:00121980       ?BV4_OverlapCapsuleAny@@YAHAEBVCapsule@Gu@physx@@AEBVBV4Tree@23@PEIBV?$PxMat44T@M@3@@Z 0000000180122980 f   GuBV4_BoxOverlap.obj
 0001:00124690       ?BV4_CapsuleSweepSingle@@YAHAEBVCapsule@Gu@physx@@AEBV?$PxVec3T@M@3@MAEBVBV4Tree@23@PEIAVSweepHit@23@I@Z 0000000180125690 f   GuBV4_CapsuleSweep.obj
 0001:00128690       ?BV4_CapsuleSweepSingleAA@@YAHAEBVCapsule@Gu@physx@@AEBV?$PxVec3T@M@3@MAEBVBV4Tree@23@PEIAVSweepHit@23@I@Z 0000000180129690 f   GuBV4_CapsuleSweepAA.obj
 0001:001397b0       ?BV4_OverlapMeshVsMesh@@YA_NAEAV?$PxReportCallback@UPxGeomIndexPair@physx@@@physx@@AEBVBV4Tree@Gu@2@1PEBV?$PxMat44T@M@2@2AEBV?$PxTransformT@M@2@3AEBVPxMeshScale@2@4V?$PxFlags@W4Enum@PxMeshMeshQueryFlag@physx@@I@2@M@Z 000000018013a7b0 f   GuBV4_MeshMeshOverlap.obj
 0001:00139830       ?BV4_OverlapMeshVsMeshDistance@@YA_NAEAV?$PxReportCallback@UPxGeomIndexClosePair@physx@@@physx@@AEBVBV4Tree@Gu@2@1PEBV?$PxMat44T@M@2@2AEBV?$PxTransformT@M@2@3AEBVPxMeshScale@2@4V?$PxFlags@W4Enum@PxMeshMeshQueryFlag@physx@@I@2@M@Z 000000018013a830 f   GuBV4_MeshMeshOverlap.obj
 0001:00142790       ?BV4_BoxSweepSingle@@YAHAEBVBox@Gu@physx@@AEBV?$PxVec3T@M@3@MAEBVBV4Tree@23@PEIBV?$PxMat44T@M@3@PEIAVSweepHit@23@I@Z 0000000180143790 f   GuBV4_OBBSweep.obj
 0001:00142e90       ?BV4_GenericSweepCB@@YAXAEBVBox@Gu@physx@@AEBV?$PxVec3T@M@3@MAEBVBV4Tree@23@P6A_NPEAX111IAEAM@Z3_N@Z 0000000180143e90 f   GuBV4_OBBSweep.obj
 0001:001430b0       ?Sweep_OBB_BV4@@YAHAEBVBox@Gu@physx@@AEBV?$PxVec3T@M@3@MAEBVBV4Tree@23@PEIAVSweepHit@23@I@Z 00000001801440b0 f   GuBV4_OBBSweep.obj
 0001:00145d10       ?BV4_RaycastCB@@YAXAEBV?$PxVec3T@M@physx@@0AEBVBV4Tree@Gu@2@PEIBV?$PxMat44T@M@2@MMIP6A?AW4HitCode@42@PEAX000IMMM@Z3@Z 0000000180146d10 f   GuBV4_Raycast.obj
 0001:00146130       ?BV4_RaycastSingle@@YAHAEBV?$PxVec3T@M@physx@@0AEBVBV4Tree@Gu@2@PEIBV?$PxMat44T@M@2@PEIAUPxGeomRaycastHit@2@MMIV?$PxFlags@W4Enum@PxHitFlag@physx@@G@2@@Z 0000000180147130 f   GuBV4_Raycast.obj
 0001:001486a0       ?BV4_OverlapSphereAll@@YAIAEBVSphere@Gu@physx@@AEBVBV4Tree@23@PEIBV?$PxMat44T@M@3@PEAIIAEA_N@Z 00000001801496a0 f   GuBV4_SphereOverlap.obj
 0001:001489c0       ?BV4_OverlapSphereAny@@YAHAEBVSphere@Gu@physx@@AEBVBV4Tree@23@PEIBV?$PxMat44T@M@3@@Z 00000001801499c0 f   GuBV4_SphereOverlap.obj
 0001:00148ca0       ?BV4_PointDistance@@YAXAEBV?$PxVec3T@M@physx@@AEBVBV4Tree@Gu@2@MAEAIAEAMAEAV12@@Z 0000000180149ca0 f   GuBV4_SphereOverlap.obj
 0001:0014f530       ?BV4_GenericSweepCB_Old@@YAXAEBV?$PxVec3T@M@physx@@00MAEBVBV4Tree@Gu@2@PEIBV?$PxMat44T@M@2@P6A_NPEAX000IAEAM@Z3@Z 0000000180150530 f   GuBV4_SphereSweep.obj
 0001:0014f930       ?BV4_SphereSweepSingle@@YAHAEBVSphere@Gu@physx@@AEBV?$PxVec3T@M@3@MAEBVBV4Tree@23@PEIBV?$PxMat44T@M@3@PEIAVSweepHit@23@I@Z 0000000180150930 f   GuBV4_SphereSweep.obj
 0001:00150d20       ?computeSweepData@physx@@YAMAEBVPxTriangleMeshGeometry@1@AEAV?$PxVec3T@M@1@11M@Z 0000000180151d20 f i GuMidphaseBV4.obj
 0001:00151070       ?distanceMeshVsMesh_BV4@Gu@physx@@YA_NAEAV?$PxReportCallback@UPxGeomIndexClosePair@physx@@@2@AEBVTriangleMesh@12@AEBV?$PxTransformT@M@2@AEBVPxMeshScale@2@123V?$PxFlags@W4Enum@PxMeshMeshQueryFlag@physx@@I@2@M@Z 0000000180152070 f   GuMidphaseBV4.obj
 0001:00152a50       ?intersectBoxVsMesh_BV4@Gu@physx@@YA_NAEBVBox@12@AEBVTriangleMesh@12@AEBV?$PxTransformT@M@2@AEBVPxMeshScale@2@PEAULimitedResults@12@@Z 0000000180153a50 f   GuMidphaseBV4.obj
 0001:001534f0       ?intersectCapsuleVsMesh_BV4@Gu@physx@@YA_NAEBVCapsule@12@AEBVTriangleMesh@12@AEBV?$PxTransformT@M@2@AEBVPxMeshScale@2@PEAULimitedResults@12@@Z 00000001801544f0 f   GuMidphaseBV4.obj
 0001:00153d60       ?intersectMeshVsMesh_BV4@Gu@physx@@YA_NAEAV?$PxReportCallback@UPxGeomIndexPair@physx@@@2@AEBVTriangleMesh@12@AEBV?$PxTransformT@M@2@AEBVPxMeshScale@2@123V?$PxFlags@W4Enum@PxMeshMeshQueryFlag@physx@@I@2@M@Z 0000000180154d60 f   GuMidphaseBV4.obj
 0001:001546c0       ?intersectOBB_BV4@Gu@physx@@YAXPEBVTetrahedronMesh@12@AEBVBox@12@AEAU?$TetMeshHitCallback@UPxGeomRaycastHit@physx@@@12@@Z 00000001801556c0 f   GuMidphaseBV4.obj
 0001:001546e0       ?intersectOBB_BV4@Gu@physx@@YAXPEBVTriangleMesh@12@AEBVBox@12@AEAU?$MeshHitCallback@UPxGeomRaycastHit@physx@@@12@_N3@Z 00000001801556e0 f   GuMidphaseBV4.obj
 0001:00154700       ?intersectSphereVsMesh_BV4@Gu@physx@@YA_NAEBVSphere@12@AEBVTriangleMesh@12@AEBV?$PxTransformT@M@2@AEBVPxMeshScale@2@PEAULimitedResults@12@@Z 0000000180155700 f   GuMidphaseBV4.obj
 0001:00154e50       ?pointMeshDistance_BV4@Gu@physx@@YAXPEBVTriangleMesh@12@AEBVPxTriangleMeshGeometry@2@AEBV?$PxTransformT@M@2@AEBV?$PxVec3T@M@2@MAEAIAEAMAEAV62@@Z 0000000180155e50 f   GuMidphaseBV4.obj
 0001:00155500       ?raycast_triangleMesh_BV4@Gu@physx@@YAIPEBVTriangleMesh@12@AEBVPxTriangleMeshGeometry@2@AEBV?$PxTransformT@M@2@AEBV?$PxVec3T@M@2@3MV?$PxFlags@W4Enum@PxHitFlag@physx@@G@2@IPEIAUPxGeomRaycastHit@2@I@Z 0000000180156500 f   GuMidphaseBV4.obj
 0001:00156330       ?sweepBox_MeshGeom_BV4@Gu@physx@@YA_NPEBVTriangleMesh@12@AEBVPxTriangleMeshGeometry@2@AEBV?$PxTransformT@M@2@AEBVBox@12@AEBV?$PxVec3T@M@2@MAEAUPxGeomSweepHit@2@V?$PxFlags@W4Enum@PxHitFlag@physx@@G@2@M@Z 0000000180157330 f   GuMidphaseBV4.obj
 0001:001579c0       ?sweepCapsule_MeshGeom_BV4@Gu@physx@@YA_NPEBVTriangleMesh@12@AEBVPxTriangleMeshGeometry@2@AEBV?$PxTransformT@M@2@AEBVCapsule@12@AEBV?$PxVec3T@M@2@MAEAUPxGeomSweepHit@2@V?$PxFlags@W4Enum@PxHitFlag@physx@@G@2@M@Z 00000001801589c0 f   GuMidphaseBV4.obj
 0001:00158530       ?sweepConvex_MeshGeom_BV4@Gu@physx@@YAXPEBVTriangleMesh@12@AEBVBox@12@AEBV?$PxVec3T@M@2@MAEAUSweepConvexMeshHitCallback@12@_N@Z 0000000180159530 f   GuMidphaseBV4.obj
 0001:00158570       ?transform@PxMeshScale@physx@@QEBA?AV?$PxVec3T@M@2@AEBV32@@Z 0000000180159570 f i GuMidphaseBV4.obj
 0001:001587b0       ?findOverlapHeightField@PxMeshQuery@physx@@SAIAEBVPxGeometry@2@AEBV?$PxTransformT@M@2@AEBVPxHeightFieldGeometry@2@1PEAIIIAEA_NV?$PxFlags@W4Enum@PxGeometryQueryFlag@physx@@I@2@@Z 00000001801597b0 f   GuMeshQuery.obj
 0001:00158ed0       ?findOverlapTriangleMesh@PxMeshQuery@physx@@SAIAEBVPxGeometry@2@AEBV?$PxTransformT@M@2@AEBVPxTriangleMeshGeometry@2@1PEAIIIAEA_NV?$PxFlags@W4Enum@PxGeometryQueryFlag@physx@@I@2@@Z 0000000180159ed0 f   GuMeshQuery.obj
 0001:001591f0       ?findOverlapTriangleMesh@PxMeshQuery@physx@@SA_NAEAV?$PxReportCallback@UPxGeomIndexClosePair@physx@@@2@AEBVPxTriangleMeshGeometry@2@AEBV?$PxTransformT@M@2@12V?$PxFlags@W4Enum@PxGeometryQueryFlag@physx@@I@2@V?$PxFlags@W4Enum@PxMeshMeshQueryFlag@physx@@I@2@M@Z 000000018015a1f0 f   GuMeshQuery.obj
 0001:00159330       ?findOverlapTriangleMesh@PxMeshQuery@physx@@SA_NAEAV?$PxReportCallback@UPxGeomIndexPair@physx@@@2@AEBVPxTriangleMeshGeometry@2@AEBV?$PxTransformT@M@2@12V?$PxFlags@W4Enum@PxGeometryQueryFlag@physx@@I@2@V?$PxFlags@W4Enum@PxMeshMeshQueryFlag@physx@@I@2@M@Z 000000018015a330 f   GuMeshQuery.obj
 0001:00159470       ?getTriangle@PxMeshQuery@physx@@SAXAEBVPxHeightFieldGeometry@2@AEBV?$PxTransformT@M@2@IAEAVPxTriangle@2@PEAI3@Z 000000018015a470 f   GuMeshQuery.obj
 0001:001594f0       ?getTriangle@PxMeshQuery@physx@@SAXAEBVPxTriangleMeshGeometry@2@AEBV?$PxTransformT@M@2@IAEAVPxTriangle@2@PEAI3@Z 000000018015a4f0 f   GuMeshQuery.obj
 0001:00159a00       ?sweep@PxMeshQuery@physx@@SA_NAEBV?$PxVec3T@M@2@MAEBVPxGeometry@2@AEBV?$PxTransformT@M@2@IPEBVPxTriangle@2@AEAUPxGeomSweepHit@2@V?$PxFlags@W4Enum@PxHitFlag@physx@@G@2@PEBIM_NV?$PxFlags@W4Enum@PxGeometryQueryFlag@physx@@I@2@@Z 000000018015aa00 f   GuMeshQuery.obj
 0001:00159bc0       ??$collide@$00$00@MeshRayCollider@@SAXAEBV?$PxVec3T@M@physx@@0M_NPEBVRTreeTriangleMesh@Gu@2@AEAU?$MeshHitCallback@UPxGeomRaycastHit@physx@@@42@PEBV12@@Z 000000018015abc0 f i GuMidphaseRTree.obj
 0001:00159f30       ??$collide@$00$0A@@MeshRayCollider@@SAXAEBV?$PxVec3T@M@physx@@0M_NPEBVRTreeTriangleMesh@Gu@2@AEAU?$MeshHitCallback@UPxGeomRaycastHit@physx@@@42@PEBV12@@Z 000000018015af30 f i GuMidphaseRTree.obj
 0001:0015a170       ??$collide@$0A@$00@MeshRayCollider@@SAXAEBV?$PxVec3T@M@physx@@0M_NPEBVRTreeTriangleMesh@Gu@2@AEAU?$MeshHitCallback@UPxGeomRaycastHit@physx@@@42@PEBV12@@Z 000000018015b170 f i GuMidphaseRTree.obj
 0001:0015c4b0       ??0?$RayRTreeCallback@$00$0A@@@QEAA@MAEAU?$MeshHitCallback@UPxGeomRaycastHit@physx@@@Gu@physx@@HPEBXPEBV?$PxVec3T@M@3@AEBV43@3M_N2@Z 000000018015d4b0 f i GuMidphaseRTree.obj
 0001:0015c5d0       ??1?$RayRTreeCallback@$00$00@@UEAA@XZ 000000018015d5d0 f i GuMidphaseRTree.obj
 0001:0015c660       ??1?$RayRTreeCallback@$00$0A@@@UEAA@XZ 000000018015d660 f i GuMidphaseRTree.obj
 0001:0015c660       ??1?$RayRTreeCallback@$0A@$0A@@@UEAA@XZ 000000018015d660 f i GuMidphaseRTree.obj
 0001:0015c6f0       ??1?$RayRTreeCallback@$0A@$00@@UEAA@XZ 000000018015d6f0 f i GuMidphaseRTree.obj
 0001:0015c778       ??_E?$RayRTreeCallback@$00$00@@W7EAAPEAXI@Z 000000018015d778 f i GuMidphaseRTree.obj
 0001:0015c784       ??_E?$RayRTreeCallback@$00$0A@@@W7EAAPEAXI@Z 000000018015d784 f i GuMidphaseRTree.obj
 0001:0015c784       ??_E?$RayRTreeCallback@$0A@$0A@@@W7EAAPEAXI@Z 000000018015d784 f i GuMidphaseRTree.obj
 0001:0015c790       ??_E?$RayRTreeCallback@$0A@$00@@W7EAAPEAXI@Z 000000018015d790 f i GuMidphaseRTree.obj
 0001:0015c800       ??_E?$RayRTreeCallback@$00$00@@UEAAPEAXI@Z 000000018015d800 f i GuMidphaseRTree.obj
 0001:0015c800       ??_G?$RayRTreeCallback@$00$00@@UEAAPEAXI@Z 000000018015d800 f i GuMidphaseRTree.obj
 0001:0015c840       ??_E?$RayRTreeCallback@$00$0A@@@UEAAPEAXI@Z 000000018015d840 f i GuMidphaseRTree.obj
 0001:0015c840       ??_E?$RayRTreeCallback@$0A@$0A@@@UEAAPEAXI@Z 000000018015d840 f i GuMidphaseRTree.obj
 0001:0015c840       ??_G?$RayRTreeCallback@$00$0A@@@UEAAPEAXI@Z 000000018015d840 f i GuMidphaseRTree.obj
 0001:0015c840       ??_G?$RayRTreeCallback@$0A@$0A@@@UEAAPEAXI@Z 000000018015d840 f i GuMidphaseRTree.obj
 0001:0015c880       ??_E?$RayRTreeCallback@$0A@$00@@UEAAPEAXI@Z 000000018015d880 f i GuMidphaseRTree.obj
 0001:0015c880       ??_G?$RayRTreeCallback@$0A@$00@@UEAAPEAXI@Z 000000018015d880 f i GuMidphaseRTree.obj
 0001:0015c8c0       ??_ECallback@RTree@Gu@physx@@UEAAPEAXI@Z 000000018015d8c0 f i GuMidphaseRTree.obj
 0001:0015c8c0       ??_GCallback@RTree@Gu@physx@@UEAAPEAXI@Z 000000018015d8c0 f i GuMidphaseRTree.obj
 0001:0015c8f0       ??_ERayMeshColliderCallback@@UEAAPEAXI@Z 000000018015d8f0 f i GuMidphaseRTree.obj
 0001:0015c8f0       ??_ESweepCapsuleMeshHitCallback@Gu@physx@@UEAAPEAXI@Z 000000018015d8f0 f i GuSweepsMesh.obj
 0001:0015c8f0       ??_GRayMeshColliderCallback@@UEAAPEAXI@Z 000000018015d8f0 f i GuMidphaseRTree.obj
 0001:0015c8f0       ??_GSweepCapsuleMeshHitCallback@Gu@physx@@UEAAPEAXI@Z 000000018015d8f0 f i GuSweepsMesh.obj
 0001:0015c920       ?collideOBB@MeshRayCollider@@SAXAEBVBox@Gu@physx@@_NPEBVRTreeTriangleMesh@34@AEAU?$MeshHitCallback@UPxGeomRaycastHit@physx@@@34@1@Z 000000018015d920 f   GuMidphaseRTree.obj
 0001:0015ce10       ?intersectBoxVsMesh_RTREE@Gu@physx@@YA_NAEBVBox@12@AEBVTriangleMesh@12@AEBV?$PxTransformT@M@2@AEBVPxMeshScale@2@PEAULimitedResults@12@@Z 000000018015de10 f   GuMidphaseRTree.obj
 0001:0015ce80       ?intersectCapsuleVsMesh_RTREE@Gu@physx@@YA_NAEBVCapsule@12@AEBVTriangleMesh@12@AEBV?$PxTransformT@M@2@AEBVPxMeshScale@2@PEAULimitedResults@12@@Z 000000018015de80 f   GuMidphaseRTree.obj
 0001:0015cf00       ?intersectOBB_RTREE@Gu@physx@@YAXPEBVTriangleMesh@12@AEBVBox@12@AEAU?$MeshHitCallback@UPxGeomRaycastHit@physx@@@12@_N3@Z 000000018015df00 f   GuMidphaseRTree.obj
 0001:0015cf30       ?intersectSphereVsMesh_RTREE@Gu@physx@@YA_NAEBVSphere@12@AEBVTriangleMesh@12@AEBV?$PxTransformT@M@2@AEBVPxMeshScale@2@PEAULimitedResults@12@@Z 000000018015df30 f   GuMidphaseRTree.obj
 0001:0015cf60       ?pointMeshDistance_RTREE@Gu@physx@@YAXPEBVTriangleMesh@12@AEBVPxTriangleMeshGeometry@2@AEBV?$PxTransformT@M@2@AEBV?$PxVec3T@M@2@MAEAIAEAMAEAV62@@Z 000000018015df60 f   GuMidphaseRTree.obj
 0001:0015dd50       ?processHit@RayMeshColliderCallback@@UEAA_NAEBUPxGeomRaycastHit@physx@@AEBV?$PxVec3T@M@3@11AEAMPEBI@Z 000000018015ed50 f i GuMidphaseRTree.obj
 0001:0015e4f0       ?processResults@?$RayRTreeCallback@$00$00@@UEAA_NIPEAI@Z 000000018015f4f0 f i GuMidphaseRTree.obj
 0001:0015e880       ?processResults@?$RayRTreeCallback@$00$00@@UEAA_NIPEAIAEAM@Z 000000018015f880 f i GuMidphaseRTree.obj
 0001:0015ec10       ?processResults@?$RayRTreeCallback@$00$0A@@@UEAA_NIPEAI@Z 000000018015fc10 f i GuMidphaseRTree.obj
 0001:0015ec10       ?processResults@?$RayRTreeCallback@$0A@$0A@@@UEAA_NIPEAI@Z 000000018015fc10 f i GuMidphaseRTree.obj
 0001:0015ee80       ?processResults@?$RayRTreeCallback@$00$0A@@@UEAA_NIPEAIAEAM@Z 000000018015fe80 f i GuMidphaseRTree.obj
 0001:0015ee80       ?processResults@?$RayRTreeCallback@$0A@$0A@@@UEAA_NIPEAIAEAM@Z 000000018015fe80 f i GuMidphaseRTree.obj
 0001:0015f0f0       ?processResults@?$RayRTreeCallback@$0A@$00@@UEAA_NIPEAI@Z 00000001801600f0 f i GuMidphaseRTree.obj
 0001:0015f740       ?processResults@?$RayRTreeCallback@$0A@$00@@UEAA_NIPEAIAEAM@Z 0000000180160740 f i GuMidphaseRTree.obj
 0001:0015fda0       ?raycast_triangleMesh_RTREE@Gu@physx@@YAIPEBVTriangleMesh@12@AEBVPxTriangleMeshGeometry@2@AEBV?$PxTransformT@M@2@AEBV?$PxVec3T@M@2@3MV?$PxFlags@W4Enum@PxHitFlag@physx@@G@2@IPEIAUPxGeomRaycastHit@2@I@Z 0000000180160da0 f   GuMidphaseRTree.obj
 0001:00160530       ?sweepBox_MeshGeom_RTREE@Gu@physx@@YA_NPEBVTriangleMesh@12@AEBVPxTriangleMeshGeometry@2@AEBV?$PxTransformT@M@2@AEBVBox@12@AEBV?$PxVec3T@M@2@MAEAUPxGeomSweepHit@2@V?$PxFlags@W4Enum@PxHitFlag@physx@@G@2@M@Z 0000000180161530 f   GuMidphaseRTree.obj
 0001:00161910       ?sweepCapsule_MeshGeom_RTREE@Gu@physx@@YA_NPEBVTriangleMesh@12@AEBVPxTriangleMeshGeometry@2@AEBV?$PxTransformT@M@2@AEBVCapsule@12@AEBV?$PxVec3T@M@2@MAEAUPxGeomSweepHit@2@V?$PxFlags@W4Enum@PxHitFlag@physx@@G@2@M@Z 0000000180162910 f   GuMidphaseRTree.obj
 0001:001620c0       ?sweepConvex_MeshGeom_RTREE@Gu@physx@@YAXPEBVTriangleMesh@12@AEBVBox@12@AEBV?$PxVec3T@M@2@MAEAUSweepConvexMeshHitCallback@12@_N@Z 00000001801630c0 f   GuMidphaseRTree.obj
 0001:00162ab0       ??_EPxReportCallbackBase@physx@@UEAAPEAXI@Z 0000000180163ab0 f i GuOverlapTestsMesh.obj
 0001:00162ab0       ??_GPxReportCallbackBase@physx@@UEAAPEAXI@Z 0000000180163ab0 f i GuOverlapTestsMesh.obj
 0001:00162ae0       ?GeomOverlapCallback_BoxMesh@@YA_NAEBVPxGeometry@physx@@AEBV?$PxTransformT@M@2@01PEAUTriggerCache@Gu@2@PEAUPxQueryThreadContext@2@@Z 0000000180163ae0 f   GuOverlapTestsMesh.obj
 0001:00162bf0       ?GeomOverlapCallback_CapsuleMesh@@YA_NAEBVPxGeometry@physx@@AEBV?$PxTransformT@M@2@01PEAUTriggerCache@Gu@2@PEAUPxQueryThreadContext@2@@Z 0000000180163bf0 f   GuOverlapTestsMesh.obj
 0001:00162d00       ?GeomOverlapCallback_ConvexMesh@@YA_NAEBVPxGeometry@physx@@AEBV?$PxTransformT@M@2@01PEAUTriggerCache@Gu@2@PEAUPxQueryThreadContext@2@@Z 0000000180163d00 f   GuOverlapTestsMesh.obj
 0001:00163210       ?GeomOverlapCallback_MeshMesh@@YA_NAEBVPxGeometry@physx@@AEBV?$PxTransformT@M@2@01PEAUTriggerCache@Gu@2@PEAUPxQueryThreadContext@2@@Z 0000000180164210 f   GuOverlapTestsMesh.obj
 0001:001632e0       ?GeomOverlapCallback_SphereMesh@@YA_NAEBVPxGeometry@physx@@AEBV?$PxTransformT@M@2@01PEAUTriggerCache@Gu@2@PEAUPxQueryThreadContext@2@@Z 00000001801642e0 f   GuOverlapTestsMesh.obj
 0001:001636d0       ??0RTree@Gu@physx@@QEAA@W4PxEMPTY@2@@Z 00000001801646d0 f   GuRTree.obj
 0001:001636e0       ?exportExtraData@RTree@Gu@physx@@QEAAXAEAVPxSerializationContext@3@@Z 00000001801646e0 f   GuRTree.obj
 0001:00163720       ?importExtraData@RTree@Gu@physx@@QEAAXAEAVPxDeserializationContext@3@@Z 0000000180164720 f   GuRTree.obj
 0001:00163750       ?load@RTree@Gu@physx@@QEAA_NAEAVPxInputStream@3@I_N@Z 0000000180164750 f   GuRTree.obj
 0001:00163a50       ?refitAllStaticTree@RTree@Gu@physx@@QEAAXAEAUCallbackRefit@123@PEAVPxBounds3@3@@Z 0000000180164a50 f   GuRTree.obj
 0001:00163fc0       ?validate@RTree@Gu@physx@@QEAAXPEAUCallbackRefit@123@@Z 0000000180164fc0 f   GuRTree.obj
 0001:001641f0       ?validateRecursive@RTree@Gu@physx@@IEAAXIURTreeNodeQ@23@PEAURTreePage@23@PEAUCallbackRefit@123@@Z 00000001801651f0 f   GuRTree.obj
 0001:001643b0       ??$traverseRay@$00@RTree@Gu@physx@@QEBAXAEBV?$PxVec3T@M@2@0IPEAIPEAUCallbackRaycast@012@PEBV32@M@Z 00000001801653b0 f i GuRTreeQueries.obj
 0001:00164760       ??$traverseRay@$0A@@RTree@Gu@physx@@QEBAXAEBV?$PxVec3T@M@2@0IPEAIPEAUCallbackRaycast@012@PEBV32@M@Z 0000000180165760 f i GuRTreeQueries.obj
 0001:00164aa0       ?traverseAABB@RTree@Gu@physx@@QEBAXAEBV?$PxVec3T@M@3@0IPEAIPEAUCallback@123@@Z 0000000180165aa0 f   GuRTreeQueries.obj
 0001:00164c60       ?traverseOBB@RTree@Gu@physx@@QEBAXAEBVBox@23@IPEAIPEAUCallback@123@@Z 0000000180165c60 f   GuRTreeQueries.obj
 0001:00165530       ??0SweepBoxMeshHitCallback@Gu@physx@@QEAA@W4Enum@CallbackMode@12@AEBVPxMat34Padded@2@M_NAEBVBox@12@AEBV?$PxVec3T@M@2@44AEBV?$PxFlags@W4Enum@PxHitFlag@physx@@G@2@M2M@Z 0000000180166530 f   GuSweepsMesh.obj
 0001:00165640       ??0SweepCapsuleMeshHitCallback@Gu@physx@@QEAA@AEAUPxGeomSweepHit@2@AEBV?$PxMat34T@M@2@M_NAEBVCapsule@12@AEBV?$PxVec3T@M@2@AEBV?$PxFlags@W4Enum@PxHitFlag@physx@@G@2@2M@Z 0000000180166640 f   GuSweepsMesh.obj
 0001:00165710       ??0SweepConvexMeshHitCallback@Gu@physx@@QEAA@AEBUConvexHullData@12@AEBVPxMeshScale@2@AEBVFastVertex2ShapeScaling@Cm@2@AEBV?$PxTransformT@M@2@3AEBV?$PxVec3T@M@2@MV?$PxFlags@W4Enum@PxHitFlag@physx@@G@2@_NM6M@Z 0000000180166710 f   GuSweepsMesh.obj
 0001:00166070       ??_ESweepBoxMeshHitCallback@Gu@physx@@UEAAPEAXI@Z 0000000180167070 f i GuSweepsMesh.obj
 0001:00166070       ??_GSweepBoxMeshHitCallback@Gu@physx@@UEAAPEAXI@Z 0000000180167070 f i GuSweepsMesh.obj
 0001:001660a0       ??_ESweepConvexMeshHitCallback@Gu@physx@@UEAAPEAXI@Z 00000001801670a0 f i GuSweepsMesh.obj
 0001:001660a0       ??_GSweepConvexMeshHitCallback@Gu@physx@@UEAAPEAXI@Z 00000001801670a0 f i GuSweepsMesh.obj
 0001:001660d0       ??_ESweepShapeMeshHitCallback@Gu@physx@@UEAAPEAXI@Z 00000001801670d0 f i GuSweepsMesh.obj
 0001:001660d0       ??_GSweepShapeMeshHitCallback@Gu@physx@@UEAAPEAXI@Z 00000001801670d0 f i GuSweepsMesh.obj
 0001:00166100       ?finalizeHit@SweepBoxMeshHitCallback@Gu@physx@@QEBA_NAEAUPxGeomSweepHit@3@AEBVPxTriangleMeshGeometry@3@AEBV?$PxTransformT@M@3@2AEBV?$PxVec3T@M@3@_N4@Z 0000000180167100 f   GuSweepsMesh.obj
 0001:001667c0       ?finalizeHit@SweepCapsuleMeshHitCallback@Gu@physx@@QEBA_NAEAUPxGeomSweepHit@3@AEBVCapsule@23@AEBVPxTriangleMeshGeometry@3@AEBV?$PxTransformT@M@3@_N@Z 00000001801677c0 f   GuSweepsMesh.obj
 0001:00166970       ?finalizeHit@SweepConvexMeshHitCallback@Gu@physx@@QEAA_NAEAUPxGeomSweepHit@3@AEBVPxTriangleMeshGeometry@3@AEBV?$PxTransformT@M@3@AEBVPxConvexMeshGeometry@3@2AEBV?$PxVec3T@M@3@M_N555@Z 0000000180167970 f   GuSweepsMesh.obj
 0001:00166e50       ?processHit@SweepBoxMeshHitCallback@Gu@physx@@UEAA_NAEBUPxGeomRaycastHit@3@AEBV?$PxVec3T@M@3@11AEAMPEBI@Z 0000000180167e50 f   GuSweepsMesh.obj
 0001:00167630       ?processHit@SweepCapsuleMeshHitCallback@Gu@physx@@UEAA_NAEBUPxGeomRaycastHit@3@AEBV?$PxVec3T@M@3@11AEAMPEBI@Z 0000000180168630 f   GuSweepsMesh.obj
 0001:00167b90       ?processHit@SweepConvexMeshHitCallback@Gu@physx@@UEAA_NAEBUPxGeomRaycastHit@3@AEBV?$PxVec3T@M@3@11AEAMPEBI@Z 0000000180168b90 f   GuSweepsMesh.obj
 0001:001682b0       ?sweepBox_MeshGeom@@YA_NAEBVPxGeometry@physx@@AEBV?$PxTransformT@M@2@AEBVPxBoxGeometry@2@1AEBVBox@Gu@2@AEBV?$PxVec3T@M@2@MAEAUPxGeomSweepHit@2@V?$PxFlags@W4Enum@PxHitFlag@physx@@G@2@MPEAUPxQueryThreadContext@2@@Z 00000001801692b0 f   GuSweepsMesh.obj
 0001:00168340       ?sweepCapsule_MeshGeom@@YA_NAEBVPxGeometry@physx@@AEBV?$PxTransformT@M@2@AEBVPxCapsuleGeometry@2@1AEBVCapsule@Gu@2@AEBV?$PxVec3T@M@2@MAEAUPxGeomSweepHit@2@V?$PxFlags@W4Enum@PxHitFlag@physx@@G@2@MPEAUPxQueryThreadContext@2@@Z 0000000180169340 f   GuSweepsMesh.obj
 0001:001683d0       ?sweepConvex_MeshGeom@@YA_NAEBVPxGeometry@physx@@AEBV?$PxTransformT@M@2@AEBVPxConvexMeshGeometry@2@1AEBV?$PxVec3T@M@2@MAEAUPxGeomSweepHit@2@V?$PxFlags@W4Enum@PxHitFlag@physx@@G@2@MPEAUPxQueryThreadContext@2@@Z 00000001801693d0 f   GuSweepsMesh.obj
 0001:00168f30       ??0TriangleMesh@Gu@physx@@QEAA@AEBUPxTriangleMeshInternalData@2@@Z 0000000180169f30 f   GuTriangleMesh.obj
 0001:00169010       ??0TriangleMesh@Gu@physx@@QEAA@PEAVMeshFactory@12@AEAVTriangleMeshData@12@@Z 000000018016a010 f   GuTriangleMesh.obj
 0001:00169390       ??1TriangleMesh@Gu@physx@@UEAA@XZ 000000018016a390 f   GuTriangleMesh.obj
 0001:00169600       ??_ETriangleMesh@Gu@physx@@UEAAPEAXI@Z 000000018016a600 f i GuTriangleMesh.obj
 0001:00169600       ??_GTriangleMesh@Gu@physx@@UEAAPEAXI@Z 000000018016a600 f i GuTriangleMesh.obj
 0001:00169670       ?exportExtraData@TriangleMesh@Gu@physx@@UEAAXAEAVPxSerializationContext@3@@Z 000000018016a670 f   GuTriangleMesh.obj
 0001:001698f0       ?getLocalBounds@TriangleMesh@Gu@physx@@UEBA?AVPxBounds3@3@XZ 000000018016a8f0 f i GuTriangleMesh.obj
 0001:00169980       ?getMassInformation@TriangleMesh@Gu@physx@@UEBAXAEAMAEAV?$PxMat33T@M@3@AEAV?$PxVec3T@M@3@@Z 000000018016a980 f i GuTriangleMesh.obj
 0001:00169a00       ?getNbTriangles@TriangleMesh@Gu@physx@@UEBAIXZ 000000018016aa00 f i GuTriangleMesh.obj
 0001:00169a10       ?getPreferSDFProjection@TriangleMesh@Gu@physx@@UEBA_NXZ 000000018016aa10 f i GuTriangleMesh.obj
 0001:00169a20       ?getSDF@TriangleMesh@Gu@physx@@UEBAPEBMXZ 000000018016aa20 f i GuTriangleMesh.obj
 0001:00169a30       ?getSDFDimensions@TriangleMesh@Gu@physx@@UEBAXAEAI00@Z 000000018016aa30 f i GuTriangleMesh.obj
 0001:00169a60       ?getTriangleMaterialIndex@TriangleMesh@Gu@physx@@UEBAGI@Z 000000018016aa60 f i GuTriangleMesh.obj
 0001:00169a80       ?getTriangleMeshFlags@TriangleMesh@Gu@physx@@UEBA?AV?$PxFlags@W4Enum@PxTriangleMeshFlag@physx@@E@3@XZ 000000018016aa80 f i GuTriangleMesh.obj
 0001:00169a90       ?getTrianglesRemap@TriangleMesh@Gu@physx@@UEBAPEBIXZ 000000018016aa90 f i GuTriangleMesh.obj
 0001:00169aa0       ?getVerticesForModification@TriangleMesh@Gu@physx@@UEAAPEAV?$PxVec3T@M@3@XZ 000000018016aaa0 f   GuTriangleMesh.obj
 0001:00169ae0       ?importExtraData@TriangleMesh@Gu@physx@@QEAAXAEAVPxDeserializationContext@3@@Z 000000018016aae0 f   GuTriangleMesh.obj
 0001:00169d00       ?isKindOf@PxTriangleMesh@physx@@MEBA_NPEBD@Z 000000018016ad00 f i GuTriangleMesh.obj
 0001:00169d90       ?onRefCountZero@TriangleMesh@Gu@physx@@UEAAXXZ 000000018016ad90 f   GuTriangleMesh.obj
 0001:00169e60       ?refitBVH@TriangleMesh@Gu@physx@@UEAA?AVPxBounds3@3@XZ 000000018016ae60 f   GuTriangleMesh.obj
 0001:00169f30       ?requestEdgeList@TriangleMesh@Gu@physx@@QEBAPEBVEdgeList@23@XZ 000000018016af30 f   GuTriangleMesh.obj
 0001:0016a010       ?setAllEdgesActive@TriangleMesh@Gu@physx@@QEAAXXZ 000000018016b010 f   GuTriangleMesh.obj
 0001:0016a100       ?setPreferSDFProjection@TriangleMesh@Gu@physx@@UEAAX_N@Z 000000018016b100 f i GuTriangleMesh.obj
 0001:0016a130       ??0BV4TriangleMesh@Gu@physx@@QEAA@AEBUPxTriangleMeshInternalData@2@@Z 000000018016b130 f   GuTriangleMeshBV4.obj
 0001:0016a2a0       ??0BV4TriangleMesh@Gu@physx@@QEAA@PEAVMeshFactory@12@AEAVTriangleMeshData@12@@Z 000000018016b2a0 f   GuTriangleMeshBV4.obj
 0001:0016a330       ??_EBV4TriangleMesh@Gu@physx@@UEAAPEAXI@Z 000000018016b330 f i GuTriangleMeshBV4.obj
 0001:0016a330       ??_GBV4TriangleMesh@Gu@physx@@UEAAPEAXI@Z 000000018016b330 f i GuTriangleMeshBV4.obj
 0001:0016a3c0       ?createObject@BV4TriangleMesh@Gu@physx@@SAPEAVTriangleMesh@23@AEAPEAEAEAVPxDeserializationContext@3@@Z 000000018016b3c0 f   GuTriangleMeshBV4.obj
 0001:0016a490       ?exportExtraData@BV4TriangleMesh@Gu@physx@@UEAAXAEAVPxSerializationContext@3@@Z 000000018016b490 f   GuTriangleMeshBV4.obj
 0001:0016a4d0       ?getConcreteTypeName@BV4TriangleMesh@Gu@physx@@UEBAPEBDXZ 000000018016b4d0 f i GuTriangleMeshBV4.obj
 0001:0016a4e0       ?getInternalData@BV4TriangleMesh@Gu@physx@@UEBA_NAEAUPxTriangleMeshInternalData@3@_N@Z 000000018016b4e0 f   GuTriangleMeshBV4.obj
 0001:0016a5d0       ?getMidphaseID@BV4TriangleMesh@Gu@physx@@UEBA?AW4Enum@PxMeshMidPhase@3@XZ 000000018016b5d0 f i GuTriangleMeshBV4.obj
 0001:0016a5d0       ?getMidphaseID@BV4TriangleMeshBuilder@physx@@UEBA?AW4Enum@PxMeshMidPhase@2@XZ 000000018016b5d0 f i GuCookingTriangleMesh.obj
 0001:0016a5d0       ?length@charNode@@UEBAHXZ  000000018016b5d0 f i libvcruntime:undname.obj
 0001:0016a5d0       ?raw_length@charNode@@UEBAHXZ 000000018016b5d0 f i libvcruntime:undname.obj
 0001:0016a5d0       DllMain                    000000018016b5d0 f i LIBCMT:dll_dllmain_stub.obj
 0001:0016a5d0       _get_startup_argv_mode     000000018016b5d0 f i LIBCMT:argv_mode.obj
 0001:0016a5e0       ?getVerticesForModification@BV4TriangleMesh@Gu@physx@@UEAAPEAV?$PxVec3T@M@3@XZ 000000018016b5e0 f   GuTriangleMeshBV4.obj
 0001:0016a5e0       ?getVerticesForModification@RTreeTriangleMesh@Gu@physx@@UEAAPEAV?$PxVec3T@M@3@XZ 000000018016b5e0 f   GuTriangleMeshRTree.obj
 0001:0016a5f0       ?refitBVH@BV4TriangleMesh@Gu@physx@@UEAA?AVPxBounds3@3@XZ 000000018016b5f0 f   GuTriangleMeshBV4.obj
 0001:0016a760       PxGetTriangleMeshInternalData 000000018016b760 f   GuTriangleMeshBV4.obj
 0001:0016a780       ??0RTreeTriangleMesh@Gu@physx@@QEAA@PEAVMeshFactory@12@AEAVTriangleMeshData@12@@Z 000000018016b780 f   GuTriangleMeshRTree.obj
 0001:0016a8f0       ??_E?$RefitCallback@G@physx@@UEAAPEAXI@Z 000000018016b8f0 f i GuTriangleMeshRTree.obj
 0001:0016a8f0       ??_E?$RefitCallback@I@physx@@UEAAPEAXI@Z 000000018016b8f0 f i GuTriangleMeshRTree.obj
 0001:0016a8f0       ??_G?$RefitCallback@G@physx@@UEAAPEAXI@Z 000000018016b8f0 f i GuTriangleMeshRTree.obj
 0001:0016a8f0       ??_G?$RefitCallback@I@physx@@UEAAPEAXI@Z 000000018016b8f0 f i GuTriangleMeshRTree.obj
 0001:0016a920       ??_ERTreeTriangleMesh@Gu@physx@@UEAAPEAXI@Z 000000018016b920 f i GuTriangleMeshRTree.obj
 0001:0016a920       ??_GRTreeTriangleMesh@Gu@physx@@UEAAPEAXI@Z 000000018016b920 f i GuTriangleMeshRTree.obj
 0001:0016a9d0       ?createObject@RTreeTriangleMesh@Gu@physx@@SAPEAVTriangleMesh@23@AEAPEAEAEAVPxDeserializationContext@3@@Z 000000018016b9d0 f   GuTriangleMeshRTree.obj
 0001:0016aa50       ?exportExtraData@RTreeTriangleMesh@Gu@physx@@UEAAXAEAVPxSerializationContext@3@@Z 000000018016ba50 f   GuTriangleMeshRTree.obj
 0001:0016aa90       ?getConcreteTypeName@RTreeTriangleMesh@Gu@physx@@UEBAPEBDXZ 000000018016ba90 f i GuTriangleMeshRTree.obj
 0001:0016aaa0       ?recomputeBounds@?$RefitCallback@G@physx@@UEAAXIAEAT__m128@@0@Z 000000018016baa0 f i GuTriangleMeshRTree.obj
 0001:0016adc0       ?recomputeBounds@?$RefitCallback@I@physx@@UEAAXIAEAT__m128@@0@Z 000000018016bdc0 f i GuTriangleMeshRTree.obj
 0001:0016b0e0       ?refitBVH@RTreeTriangleMesh@Gu@physx@@UEAA?AVPxBounds3@3@XZ 000000018016c0e0 f   GuTriangleMeshRTree.obj
 0001:0016b200       ??0BV32Tree@Gu@physx@@QEAA@W4PxEMPTY@2@@Z 000000018016c200 f   GuBV32.obj
 0001:0016b220       ??0BV32Tree@Gu@physx@@QEAA@XZ 000000018016c220 f   GuBV32.obj
 0001:0016b250       ??1BV32Tree@Gu@physx@@QEAA@XZ 000000018016c250 f   GuBV32.obj
 0001:0016b260       ?createSOAformatNode@BV32Tree@Gu@physx@@QEAAXAEAUBV32DataPacked@23@AEBUBV32Data@23@IAEAI2@Z 000000018016c260 f   GuBV32.obj
 0001:0016b6c0       ?exportExtraData@BV32Tree@Gu@physx@@QEAAXAEAVPxSerializationContext@3@@Z 000000018016c6c0 f   GuBV32.obj
 0001:0016b700       ?importExtraData@BV32Tree@Gu@physx@@QEAAXAEAVPxDeserializationContext@3@@Z 000000018016c700 f   GuBV32.obj
 0001:0016b730       ?load@BV32Tree@Gu@physx@@QEAA_NAEAVPxInputStream@3@_N@Z 000000018016c730 f   GuBV32.obj
 0001:0016ba70       ?release@BV32Tree@Gu@physx@@QEAAXXZ 000000018016ca70 f   GuBV32.obj
 0001:0016bb30       ??0BV32Node@@QEAA@XZ       000000018016cb30 f i GuBV32Build.obj
 0001:0016bd60       ?BuildBV32Ex@Gu@physx@@YA_NAEAVBV32Tree@12@AEAVSourceMeshBase@12@MI@Z 000000018016cd60 f   GuBV32Build.obj
 0001:0016cd50       ??0BVTetrahedronMesh@Gu@physx@@QEAA@AEAVTetrahedronMeshData@12@AEAVDeformableVolumeCollisionData@12@PEAVMeshFactory@12@@Z 000000018016dd50 f   GuTetrahedronMesh.obj
 0001:0016cfb0       ??0DeformableVolumeMesh@Gu@physx@@QEAA@PEAVMeshFactory@12@AEAVDeformableVolumeMeshData@12@@Z 000000018016dfb0 f   GuTetrahedronMesh.obj
 0001:0016d350       ??0TetrahedronMesh@Gu@physx@@QEAA@PEAVMeshFactory@12@AEAVTetrahedronMeshData@12@@Z 000000018016e350 f   GuTetrahedronMesh.obj
 0001:0016d440       ??1DeformableVolumeAuxData@Gu@physx@@UEAA@XZ 000000018016e440 f   GuTetrahedronMesh.obj
 0001:0016d6c0       ??1TetrahedronMesh@Gu@physx@@UEAA@XZ 000000018016e6c0 f   GuTetrahedronMesh.obj
 0001:0016d760       ??_EBVTetrahedronMesh@Gu@physx@@UEAAPEAXI@Z 000000018016e760 f i GuTetrahedronMesh.obj
 0001:0016d760       ??_GBVTetrahedronMesh@Gu@physx@@UEAAPEAXI@Z 000000018016e760 f i GuTetrahedronMesh.obj
 0001:0016d8e0       ??_EDeformableVolumeAuxData@Gu@physx@@UEAAPEAXI@Z 000000018016e8e0 f i GuTetrahedronMesh.obj
 0001:0016d8e0       ??_GDeformableVolumeAuxData@Gu@physx@@UEAAPEAXI@Z 000000018016e8e0 f i GuTetrahedronMesh.obj
 0001:0016d950       ??_EDeformableVolumeMesh@Gu@physx@@UEAAPEAXI@Z 000000018016e950 f i GuTetrahedronMesh.obj
 0001:0016d950       ??_GDeformableVolumeMesh@Gu@physx@@UEAAPEAXI@Z 000000018016e950 f i GuTetrahedronMesh.obj
 0001:0016da20       ??_ETetrahedronMesh@Gu@physx@@UEAAPEAXI@Z 000000018016ea20 f i GuTetrahedronMesh.obj
 0001:0016da20       ??_GTetrahedronMesh@Gu@physx@@UEAAPEAXI@Z 000000018016ea20 f i GuTetrahedronMesh.obj
 0001:0016da90       ?exportExtraData@DeformableVolumeMesh@Gu@physx@@UEAAXAEAVPxSerializationContext@3@@Z 000000018016ea90 f   GuTetrahedronMesh.obj
 0001:0016db80       ?getConcreteTypeName@DeformableVolumeAuxData@Gu@physx@@UEBAPEBDXZ 000000018016eb80 f i GuTetrahedronMesh.obj
 0001:0016db90       ?getConcreteTypeName@DeformableVolumeMesh@Gu@physx@@UEBAPEBDXZ 000000018016eb90 f i GuTetrahedronMesh.obj
 0001:0016dba0       ?getConcreteTypeName@TetrahedronMesh@Gu@physx@@UEBAPEBDXZ 000000018016eba0 f i GuTetrahedronMesh.obj
 0001:0016dbb0       ?getLocalBounds@TetrahedronMesh@Gu@physx@@UEBA?AVPxBounds3@3@XZ 000000018016ebb0 f i GuTetrahedronMesh.obj
 0001:0016dc40       ?getNbTetrahedrons@TetrahedronMesh@Gu@physx@@UEBAIXZ 000000018016ec40 f i GuTetrahedronMesh.obj
 0001:0016dc50       ?getBounds@BVH@Gu@physx@@UEBAPEBVPxBounds3@3@XZ 000000018016ec50 f i GuBVH.obj
 0001:0016dc50       ?getTetrahedraRemap@BVTetrahedronMesh@Gu@physx@@UEBAPEBIXZ 000000018016ec50 f i GuTetrahedronMesh.obj
 0001:0016dc60       ?getTetrahedronMeshFlags@TetrahedronMesh@Gu@physx@@UEBA?AV?$PxFlags@W4Enum@PxTetrahedronMeshFlag@physx@@E@3@XZ 000000018016ec60 f i GuTetrahedronMesh.obj
 0001:0016dc70       ?getTetrahedrons@TetrahedronMesh@Gu@physx@@UEBAPEBXXZ 000000018016ec70 f i GuTetrahedronMesh.obj
 0001:0016dc80       ?isKindOf@PxDeformableVolumeAuxData@physx@@MEBA_NPEBD@Z 000000018016ec80 f i GuTetrahedronMesh.obj
 0001:0016dd10       ?isKindOf@PxDeformableVolumeMesh@physx@@MEBA_NPEBD@Z 000000018016ed10 f i GuTetrahedronMesh.obj
 0001:0016dda0       ?isKindOf@PxTetrahedronMesh@physx@@MEBA_NPEBD@Z 000000018016eda0 f i GuTetrahedronMesh.obj
 0001:0016de30       ?onRefCountZero@DeformableVolumeAuxData@Gu@physx@@UEAAXXZ 000000018016ee30 f i GuTetrahedronMesh.obj
 0001:0016de30       ?release@SimulationTetrahedronMeshData@Gu@physx@@UEAAXXZ 000000018016ee30 f i GuCookingTetrahedronMesh.obj
 0001:0016de50       ?onRefCountZero@DeformableVolumeMesh@Gu@physx@@UEAAXXZ 000000018016ee50 f   GuTetrahedronMesh.obj
 0001:0016def0       ?onRefCountZero@TetrahedronMesh@Gu@physx@@UEAAXXZ 000000018016eef0 f   GuTetrahedronMesh.obj
 0001:0016df90       ?PxComputeBarycentric@physx@@YAXAEBV?$PxVec3T@M@1@0000AEAV?$PxVec4T@M@1@@Z 000000018016ef90 f i GuTetrahedronMeshUtils.obj
 0001:0016e240       ?addAxisToSimMeshBarycentric@Gu@physx@@YA?AV?$PxVec4T@M@2@AEBVPxTetrahedronMesh@2@IAEBV32@AEBV?$PxVec3T@M@2@@Z 000000018016f240 f   GuTetrahedronMeshUtils.obj
 0001:0016e500       ?closestPtPointTetrahedron@Gu@physx@@YA?AV?$PxVec3T@M@2@AEBV32@0000@Z 000000018016f500 f i GuTetrahedronMeshUtils.obj
 0001:0016f6a0       ?convertDeformableVolumeCollisionToSimMeshTets@Gu@physx@@YAXAEBVPxTetrahedronMesh@2@AEBVDeformableVolumeAuxData@12@AEBVBVTetrahedronMesh@12@IAEBV?$PxVec4T@M@2@AEAIAEAV62@_N@Z 00000001801706a0 f   GuTetrahedronMeshUtils.obj
 0001:00171fc0       ?pcmContactBoxBox@Gu@physx@@YA_NAEBVPxGeometry@2@0AEBUPxTransformPadded@2@1AEBUNarrowPhaseParams@12@AEAUCache@12@AEAVPxContactBuffer@2@PEAVPxRenderOutput@2@@Z 0000000180172fc0 f   GuPCMContactBoxBox.obj
 0001:00172e70       ??$gjkPenetration@U?$RelativeConvex@VBoxV@Gu@physx@@@Gu@physx@@U?$LocalConvex@VConvexHullNoScaleV@Gu@physx@@@23@@Gu@physx@@YA?AW4GjkStatus@01@AEBU?$RelativeConvex@VBoxV@Gu@physx@@@01@AEBU?$LocalConvex@VConvexHullNoScaleV@Gu@physx@@@01@AEBT__m128@@2_NPEIAE4AEAEAEAUGjkOutput@01@@Z 0000000180173e70 f i GuPCMContactBoxConvex.obj
 0001:00172ee0       ??$gjkPenetration@U?$RelativeConvex@VBoxV@Gu@physx@@@Gu@physx@@U?$LocalConvex@VConvexHullNoScaleV@Gu@physx@@@23@@Gu@physx@@YA?AW4GjkStatus@01@AEBU?$RelativeConvex@VBoxV@Gu@physx@@@01@AEBU?$LocalConvex@VConvexHullNoScaleV@Gu@physx@@@01@AEBT__m128@@2_NPEIAE4PEIAT5@5AEAEAEAUGjkOutput@01@@Z 0000000180173ee0 f i GuPCMContactBoxConvex.obj
 0001:00175080       ?pcmContactBoxConvex@Gu@physx@@YA_NAEBVPxGeometry@2@0AEBUPxTransformPadded@2@1AEBUNarrowPhaseParams@12@AEAUCache@12@AEAVPxContactBuffer@2@PEAVPxRenderOutput@2@@Z 0000000180176080 f   GuPCMContactBoxConvex.obj
 0001:00175e70       ?support@?$LocalConvex@VConvexHullNoScaleV@Gu@physx@@@Gu@physx@@UEBA?AT__m128@@AEBT4@@Z 0000000180176e70 f i GuPCMContactBoxConvex.obj
 0001:00175ec0       ?support@?$LocalConvex@VConvexHullNoScaleV@Gu@physx@@@Gu@physx@@UEBA?AT__m128@@AEBT4@AEAH@Z 0000000180176ec0 f i GuPCMContactBoxConvex.obj
 0001:00175f20       ?supportPoint@?$LocalConvex@VConvexHullNoScaleV@Gu@physx@@@Gu@physx@@UEBA?AT__m128@@H@Z 0000000180176f20 f i GuPCMContactBoxConvex.obj
 0001:00175f50       ?pcmContactCapsuleBox@Gu@physx@@YA_NAEBVPxGeometry@2@0AEBUPxTransformPadded@2@1AEBUNarrowPhaseParams@12@AEAUCache@12@AEAVPxContactBuffer@2@PEAVPxRenderOutput@2@@Z 0000000180176f50 f   GuPCMContactCapsuleBox.obj
 0001:00176ed0       ?pcmContactCapsuleCapsule@Gu@physx@@YA_NAEBVPxGeometry@2@0AEBUPxTransformPadded@2@1AEBUNarrowPhaseParams@12@AEAUCache@12@AEAVPxContactBuffer@2@PEAVPxRenderOutput@2@@Z 0000000180177ed0 f   GuPCMContactCapsuleCapsule.obj
 0001:00177670       ??$gjkPenetration@U?$LocalConvex@VCapsuleV@Gu@physx@@@Gu@physx@@U?$LocalConvex@VConvexHullNoScaleV@Gu@physx@@@23@@Gu@physx@@YA?AW4GjkStatus@01@AEBU?$LocalConvex@VCapsuleV@Gu@physx@@@01@AEBU?$LocalConvex@VConvexHullNoScaleV@Gu@physx@@@01@AEBT__m128@@2_NPEIAE4AEAEAEAUGjkOutput@01@@Z 0000000180178670 f i GuPCMContactCapsuleConvex.obj
 0001:001776e0       ??$gjkPenetration@U?$LocalConvex@VCapsuleV@Gu@physx@@@Gu@physx@@U?$LocalConvex@VConvexHullNoScaleV@Gu@physx@@@23@@Gu@physx@@YA?AW4GjkStatus@01@AEBU?$LocalConvex@VCapsuleV@Gu@physx@@@01@AEBU?$LocalConvex@VConvexHullNoScaleV@Gu@physx@@@01@AEBT__m128@@2_NPEIAE4PEIAT5@5AEAEAEAUGjkOutput@01@@Z 00000001801786e0 f i GuPCMContactCapsuleConvex.obj
 0001:00179370       ?pcmContactCapsuleConvex@Gu@physx@@YA_NAEBVPxGeometry@2@0AEBUPxTransformPadded@2@1AEBUNarrowPhaseParams@12@AEAUCache@12@AEAVPxContactBuffer@2@PEAVPxRenderOutput@2@@Z 000000018017a370 f   GuPCMContactCapsuleConvex.obj
 0001:0017a570       ??_EPCMCapsuleVsHeightfieldContactGenerationCallback@@UEAAPEAXI@Z 000000018017b570 f i GuPCMContactCapsuleHeightField.obj
 0001:0017a570       ??_GPCMCapsuleVsHeightfieldContactGenerationCallback@@UEAAPEAXI@Z 000000018017b570 f i GuPCMContactCapsuleHeightField.obj
 0001:0017a5a0       ?pcmContactCapsuleHeightField@Gu@physx@@YA_NAEBVPxGeometry@2@0AEBUPxTransformPadded@2@1AEBUNarrowPhaseParams@12@AEAUCache@12@AEAVPxContactBuffer@2@PEAVPxRenderOutput@2@@Z 000000018017b5a0 f   GuPCMContactCapsuleHeightField.obj
 0001:0017b490       ?reportTouchedTris@?$PCMHeightfieldContactGenerationCallback@UPCMCapsuleVsHeightfieldContactGenerationCallback@@@Gu@physx@@UEAA_NIPEBI@Z 000000018017c490 f i GuPCMContactCapsuleHeightField.obj
 0001:0017baf0       ?generateContacts@PCMCapsuleVsMeshContactGeneration@Gu@physx@@SAXAEBT__m128@@0000I000PEAVMeshPersistentContact@23@AEAI@Z 000000018017caf0 f   GuPCMContactCapsuleMesh.obj
 0001:0017bf30       ?generateEE@PCMCapsuleVsMeshContactGeneration@Gu@physx@@QEAAXAEBT__m128@@000I00PEAVMeshPersistentContact@23@AEAI@Z 000000018017cf30 f   GuPCMContactCapsuleMesh.obj
 0001:0017c1a0       ?generateEEMTD@PCMCapsuleVsMeshContactGeneration@Gu@physx@@SAXAEBT__m128@@000I00PEAVMeshPersistentContact@23@AEAI@Z 000000018017d1a0 f   GuPCMContactCapsuleMesh.obj
 0001:0017c3d0       ?pcmContactCapsuleMesh@Gu@physx@@YA_NAEBVPxGeometry@2@0AEBUPxTransformPadded@2@1AEBUNarrowPhaseParams@12@AEAUCache@12@AEAVPxContactBuffer@2@PEAVPxRenderOutput@2@@Z 000000018017d3d0 f   GuPCMContactCapsuleMesh.obj
 0001:0017dbf0       ?pcmDistanceSegmentTriangleSquaredExported@@YA?AT__m128@@AEBT1@0000AEAT1@11@Z 000000018017ebf0 f   GuPCMContactCapsuleMesh.obj
 0001:0017e050       ?processTriangle@PCMCapsuleVsMeshContactGeneration@Gu@physx@@QEAA_NPEBV?$PxVec3T@M@3@IEPEBI@Z 000000018017f050 f   GuPCMContactCapsuleMesh.obj
 0001:0017ec20       ?processTriangle@PCMCapsuleVsMeshContactGeneration@Gu@physx@@SA_NAEBVTriangleV@23@IAEBVCapsuleV@23@AEBT__m128@@EPEAVMeshPersistentContact@23@AEAI@Z 000000018017fc20 f   GuPCMContactCapsuleMesh.obj
 0001:0017ef30       ?addContactsToPatch@PCMConvexVsMeshContactGeneration@Gu@physx@@QEAAXAEBT__m128@@I@Z 000000018017ff30 f   GuPCMContactConvexCommon.obj
 0001:0017f860       ?doSupport@?$SupportLocalImpl@VTriangleV@Gu@physx@@@Gu@physx@@UEBA?AT__m128@@AEBT4@@Z 0000000180180860 f i GuPCMContactConvexCommon.obj
 0001:0017f8f0       ?doSupport@?$SupportLocalImpl@VTriangleV@Gu@physx@@@Gu@physx@@UEBAXAEBT__m128@@AEAT4@1@Z 00000001801808f0 f i GuPCMContactConvexCommon.obj
 0001:0017f960       ?generateLastContacts@PCMConvexVsMeshContactGeneration@Gu@physx@@QEAAXXZ 0000000180180960 f   GuPCMContactConvexCommon.obj
 0001:0017fdf0       ?get@?$CacheMap@UCachedEdge@Gu@physx@@$0IA@@Gu@physx@@QEBAPEBUCachedEdge@23@AEBU423@@Z 0000000180180df0 f i GuPCMContactConvexCommon.obj
 0001:0017fe70       ?populateVerts@?$SupportLocalImpl@VTriangleV@Gu@physx@@@Gu@physx@@UEBAXPEBEIPEBV?$PxVec3T@M@3@PEAT__m128@@@Z 0000000180180e70 f i GuPCMContactConvexCommon.obj
 0001:0017ffb0       ?processTriangle@PCMConvexVsMeshContactGeneration@Gu@physx@@QEAA_NPEBV?$PxVec3T@M@3@IEPEBI@Z 0000000180180fb0 f   GuPCMContactConvexCommon.obj
 0001:001803e0       ?processTriangle@PCMConvexVsMeshContactGeneration@Gu@physx@@SA_NAEBUPolygonalData@23@PEBVSupportLocal@23@PEBV?$PxVec3T@M@3@IEAEBT__m128@@_NAEBVPxTransformV@aos@3@AEBVPxMatTransformV@93@PEAVMeshPersistentContact@23@AEAI@Z 00000001801813e0 f   GuPCMContactConvexCommon.obj
 0001:00180660       ??$gjkPenetration@U?$RelativeConvex@VConvexHullNoScaleV@Gu@physx@@@Gu@physx@@U?$LocalConvex@VConvexHullNoScaleV@Gu@physx@@@23@@Gu@physx@@YA?AW4GjkStatus@01@AEBU?$RelativeConvex@VConvexHullNoScaleV@Gu@physx@@@01@AEBU?$LocalConvex@VConvexHullNoScaleV@Gu@physx@@@01@AEBT__m128@@2_NPEIAE4AEAEAEAUGjkOutput@01@@Z 0000000180181660 f i GuPCMContactConvexConvex.obj
 0001:001806d0       ??$gjkPenetration@U?$RelativeConvex@VConvexHullNoScaleV@Gu@physx@@@Gu@physx@@U?$LocalConvex@VConvexHullNoScaleV@Gu@physx@@@23@@Gu@physx@@YA?AW4GjkStatus@01@AEBU?$RelativeConvex@VConvexHullNoScaleV@Gu@physx@@@01@AEBU?$LocalConvex@VConvexHullNoScaleV@Gu@physx@@@01@AEBT__m128@@2_NPEIAE4PEIAT5@5AEAEAEAUGjkOutput@01@@Z 00000001801816d0 f i GuPCMContactConvexConvex.obj
 0001:00182170       ??$gjkPenetration@U?$RelativeConvex@VConvexHullNoScaleV@Gu@physx@@@Gu@physx@@U?$LocalConvex@VConvexHullV@Gu@physx@@@23@@Gu@physx@@YA?AW4GjkStatus@01@AEBU?$RelativeConvex@VConvexHullNoScaleV@Gu@physx@@@01@AEBU?$LocalConvex@VConvexHullV@Gu@physx@@@01@AEBT__m128@@2_NPEIAE4AEAEAEAUGjkOutput@01@@Z 0000000180183170 f i GuPCMContactConvexConvex.obj
 0001:001821e0       ??$gjkPenetration@U?$RelativeConvex@VConvexHullNoScaleV@Gu@physx@@@Gu@physx@@U?$LocalConvex@VConvexHullV@Gu@physx@@@23@@Gu@physx@@YA?AW4GjkStatus@01@AEBU?$RelativeConvex@VConvexHullNoScaleV@Gu@physx@@@01@AEBU?$LocalConvex@VConvexHullV@Gu@physx@@@01@AEBT__m128@@2_NPEIAE4PEIAT5@5AEAEAEAUGjkOutput@01@@Z 00000001801831e0 f i GuPCMContactConvexConvex.obj
 0001:00183d40       ??$gjkPenetration@U?$RelativeConvex@VConvexHullV@Gu@physx@@@Gu@physx@@U?$LocalConvex@VConvexHullNoScaleV@Gu@physx@@@23@@Gu@physx@@YA?AW4GjkStatus@01@AEBU?$RelativeConvex@VConvexHullV@Gu@physx@@@01@AEBU?$LocalConvex@VConvexHullNoScaleV@Gu@physx@@@01@AEBT__m128@@2_NPEIAE4AEAEAEAUGjkOutput@01@@Z 0000000180184d40 f i GuPCMContactConvexConvex.obj
 0001:00183db0       ??$gjkPenetration@U?$RelativeConvex@VConvexHullV@Gu@physx@@@Gu@physx@@U?$LocalConvex@VConvexHullNoScaleV@Gu@physx@@@23@@Gu@physx@@YA?AW4GjkStatus@01@AEBU?$RelativeConvex@VConvexHullV@Gu@physx@@@01@AEBU?$LocalConvex@VConvexHullNoScaleV@Gu@physx@@@01@AEBT__m128@@2_NPEIAE4PEIAT5@5AEAEAEAUGjkOutput@01@@Z 0000000180184db0 f i GuPCMContactConvexConvex.obj
 0001:00186360       ?pcmContactConvexConvex@Gu@physx@@YA_NAEBVPxGeometry@2@0AEBUPxTransformPadded@2@1AEBUNarrowPhaseParams@12@AEAUCache@12@AEAVPxContactBuffer@2@PEAVPxRenderOutput@2@@Z 0000000180187360 f   GuPCMContactConvexConvex.obj
 0001:001874b0       ?support@?$RelativeConvex@VConvexHullNoScaleV@Gu@physx@@@Gu@physx@@UEBA?AT__m128@@AEBT4@@Z 00000001801884b0 f i GuPCMContactConvexConvex.obj
 0001:00187560       ?support@?$RelativeConvex@VConvexHullNoScaleV@Gu@physx@@@Gu@physx@@UEBA?AT__m128@@AEBT4@AEAH@Z 0000000180188560 f i GuPCMContactConvexConvex.obj
 0001:00187620       ?supportPoint@?$RelativeConvex@VConvexHullNoScaleV@Gu@physx@@@Gu@physx@@UEBA?AT__m128@@H@Z 0000000180188620 f i GuPCMContactConvexConvex.obj
 0001:001876b0       ?PCMContactConvexHeightfield@Gu@physx@@YA_NAEBUPolygonalData@12@PEBVSupportLocal@12@AEBT__m128@@AEBVPxBounds3@2@AEBVPxHeightFieldGeometry@2@AEBV?$PxTransformT@M@2@5MAEAVPxContactBuffer@2@AEBVFastVertex2ShapeScaling@Cm@2@_NAEAVMultiplePersistentContactManifold@12@PEAVPxRenderOutput@2@@Z 00000001801886b0 f   GuPCMContactConvexHeightField.obj
 0001:00188550       ?pcmContactBoxHeightField@Gu@physx@@YA_NAEBVPxGeometry@2@0AEBUPxTransformPadded@2@1AEBUNarrowPhaseParams@12@AEAUCache@12@AEAVPxContactBuffer@2@PEAVPxRenderOutput@2@@Z 0000000180189550 f   GuPCMContactConvexHeightField.obj
 0001:001887f0       ?pcmContactConvexHeightField@Gu@physx@@YA_NAEBVPxGeometry@2@0AEBUPxTransformPadded@2@1AEBUNarrowPhaseParams@12@AEAUCache@12@AEAVPxContactBuffer@2@PEAVPxRenderOutput@2@@Z 00000001801897f0 f   GuPCMContactConvexHeightField.obj
 0001:001894e0       ?PCMContactConvexMesh@Gu@physx@@YA_NAEBUPolygonalData@12@PEBVSupportLocal@12@AEBT__m128@@AEBVPxBounds3@2@AEBVPxTriangleMeshGeometry@2@AEBV?$PxTransformT@M@2@5MAEAVPxContactBuffer@2@AEBVFastVertex2ShapeScaling@Cm@2@7_N8AEAVMultiplePersistentContactManifold@12@PEAVPxRenderOutput@2@@Z 000000018018a4e0 f   GuPCMContactConvexMesh.obj
 0001:00189fe0       ?pcmContactBoxMesh@Gu@physx@@YA_NAEBVPxGeometry@2@0AEBUPxTransformPadded@2@1AEBUNarrowPhaseParams@12@AEAUCache@12@AEAVPxContactBuffer@2@PEAVPxRenderOutput@2@@Z 000000018018afe0 f   GuPCMContactConvexMesh.obj
 0001:0018a320       ?pcmContactConvexMesh@Gu@physx@@YA_NAEBVPxGeometry@2@0AEBUPxTransformPadded@2@1AEBUNarrowPhaseParams@12@AEAUCache@12@AEAVPxContactBuffer@2@PEAVPxRenderOutput@2@@Z 000000018018b320 f   GuPCMContactConvexMesh.obj
 0001:0018af00       ?addGJKEPAContacts@Gu@physx@@YA_NPEBUGjkConvex@12@0AEBVPxMatTransformV@aos@2@W4GjkStatus@12@PEAVPersistentContact@12@T__m128@@4AEAUGjkOutput@12@AEAVPersistentContactManifold@12@@Z 000000018018bf00 f   GuPCMContactGenBoxConvex.obj
 0001:0018b3b0       ?computeMTD@Gu@physx@@YA_NAEBUPolygonalData@12@0PEBVSupportLocal@12@1AEAT__m128@@2@Z 000000018018c3b0 f   GuPCMContactGenBoxConvex.obj
 0001:0018b9e0       ?generateFullContactManifold@Gu@physx@@YA_NAEBUPolygonalData@12@0PEBVSupportLocal@12@1PEAVPersistentContact@12@AEAIAEBT__m128@@444MM_NPEAVPxRenderOutput@2@M@Z 000000018018c9e0 f   GuPCMContactGenBoxConvex.obj
 0001:0018d9b0       ?computeMTD@Gu@physx@@YA_NAEBVCapsuleV@12@AEBUPolygonalData@12@PEBVSupportLocal@12@AEAT__m128@@3@Z 000000018018e9b0 f   GuPCMContactGenSphereCapsule.obj
 0001:0018daa0       ?generateCapsuleBoxFullContactManifold@Gu@physx@@YA_NAEBVCapsuleV@12@AEBUPolygonalData@12@PEBVSupportLocal@12@AEBVPxMatTransformV@aos@2@PEAVPersistentContact@12@AEAIAEBT__m128@@AEAT9@6M_NMPEAVPxRenderOutput@2@@Z 000000018018eaa0 f   GuPCMContactGenSphereCapsule.obj
 0001:0018dc40       ?generateFullContactManifold@Gu@physx@@YA_NAEBVCapsuleV@12@AEBUPolygonalData@12@PEBVSupportLocal@12@AEBVPxMatTransformV@aos@2@PEAVPersistentContact@12@AEAIAEBT__m128@@AEAT9@6M_NM@Z 000000018018ec40 f   GuPCMContactGenSphereCapsule.obj
 0001:0018de30       ?generateSphereFullContactManifold@Gu@physx@@YA_NAEBVCapsuleV@12@AEBUPolygonalData@12@PEBVSupportLocal@12@PEAVPersistentContact@12@AEAIAEBT__m128@@AEAT7@_N@Z 000000018018ee30 f   GuPCMContactGenSphereCapsule.obj
 0001:0018f380       ?pcmContactPlaneBox@Gu@physx@@YA_NAEBVPxGeometry@2@0AEBUPxTransformPadded@2@1AEBUNarrowPhaseParams@12@AEAUCache@12@AEAVPxContactBuffer@2@PEAVPxRenderOutput@2@@Z 0000000180190380 f   GuPCMContactPlaneBox.obj
 0001:0018ff50       ?pcmContactPlaneCapsule@Gu@physx@@YA_NAEBVPxGeometry@2@0AEBUPxTransformPadded@2@1AEBUNarrowPhaseParams@12@AEAUCache@12@AEAVPxContactBuffer@2@PEAVPxRenderOutput@2@@Z 0000000180190f50 f   GuPCMContactPlaneCapsule.obj
 0001:001906e0       ?pcmContactPlaneConvex@Gu@physx@@YA_NAEBVPxGeometry@2@0AEBUPxTransformPadded@2@1AEBUNarrowPhaseParams@12@AEAUCache@12@AEAVPxContactBuffer@2@PEAVPxRenderOutput@2@@Z 00000001801916e0 f   GuPCMContactPlaneConvex.obj
 0001:00191320       ?pcmContactSphereBox@Gu@physx@@YA_NAEBVPxGeometry@2@0AEBUPxTransformPadded@2@1AEBUNarrowPhaseParams@12@AEAUCache@12@AEAVPxContactBuffer@2@PEAVPxRenderOutput@2@@Z 0000000180192320 f   GuPCMContactSphereBox.obj
 0001:00191780       ?pcmContactSphereCapsule@Gu@physx@@YA_NAEBVPxGeometry@2@0AEBUPxTransformPadded@2@1AEBUNarrowPhaseParams@12@AEAUCache@12@AEAVPxContactBuffer@2@PEAVPxRenderOutput@2@@Z 0000000180192780 f   GuPCMContactSphereCapsule.obj
 0001:00191bf0       ?pcmContactSphereConvex@Gu@physx@@YA_NAEBVPxGeometry@2@0AEBUPxTransformPadded@2@1AEBUNarrowPhaseParams@12@AEAUCache@12@AEAVPxContactBuffer@2@PEAVPxRenderOutput@2@@Z 0000000180192bf0 f   GuPCMContactSphereConvex.obj
 0001:00192900       ??1?$PxArray@USortedTriangle@Gu@physx@@V?$PxInlineAllocator@$0IAA@V?$PxReflectionAllocator@USortedTriangle@Gu@physx@@@physx@@@3@@physx@@QEAA@XZ 0000000180193900 f i GuPCMContactSphereHeightField.obj
 0001:001929c0       ?pcmContactSphereHeightField@Gu@physx@@YA_NAEBVPxGeometry@2@0AEBUPxTransformPadded@2@1AEBUNarrowPhaseParams@12@AEAUCache@12@AEAVPxContactBuffer@2@PEAVPxRenderOutput@2@@Z 00000001801939c0 f   GuPCMContactSphereHeightField.obj
 0001:00193a30       ??$PxSort@USortedTriangle@Gu@physx@@U?$PxLess@USortedTriangle@Gu@physx@@@3@V?$PxReflectionAllocator@USortedTriangle@Gu@physx@@@3@@physx@@YAXPEAUSortedTriangle@Gu@0@IAEBU?$PxLess@USortedTriangle@Gu@physx@@@0@AEBV?$PxReflectionAllocator@USortedTriangle@Gu@physx@@@0@I@Z 0000000180194a30 f i GuPCMContactSphereMesh.obj
 0001:00193f50       ??$processTriangleCache@$0BA@VPCMSphereVsMeshContactGeneration@Gu@physx@@@PCMMeshContactGeneration@Gu@physx@@QEAA_NAEAU?$TriangleCache@$0BA@@12@@Z 0000000180194f50 f i GuPCMContactSphereMesh.obj
 0001:00194420       ?addToPatch@PCMSphereVsMeshContactGeneration@Gu@physx@@QEAAXAEBT__m128@@0T4@I@Z 0000000180195420 f   GuPCMContactSphereMesh.obj
 0001:00194ae0       ?allocate@?$PxArray@IV?$PxInlineAllocator@$0PAA@V?$PxReflectionAllocator@I@physx@@@physx@@@physx@@IEAAPEAIIPEAI@Z 0000000180195ae0 f i GuPCMContactSphereMesh.obj
 0001:00194ba0       ?allocate@?$PxArray@USortedTriangle@Gu@physx@@V?$PxInlineAllocator@$0IAA@V?$PxReflectionAllocator@USortedTriangle@Gu@physx@@@physx@@@3@@physx@@IEAAPEAUSortedTriangle@Gu@2@IPEAI@Z 0000000180195ba0 f i GuPCMContactSphereMesh.obj
 0001:00194c60       ?generateLastContacts@PCMSphereVsMeshContactGeneration@Gu@physx@@QEAAXXZ 0000000180195c60 f   GuPCMContactSphereMesh.obj
 0001:00195290       ?growAndPushBack@?$PxArray@USortedTriangle@Gu@physx@@V?$PxInlineAllocator@$0IAA@V?$PxReflectionAllocator@USortedTriangle@Gu@physx@@@physx@@@3@@physx@@IEAAAEAUSortedTriangle@Gu@2@AEBU342@@Z 0000000180196290 f i GuPCMContactSphereMesh.obj
 0001:001953a0       ?pcmContactSphereMesh@Gu@physx@@YA_NAEBVPxGeometry@2@0AEBUPxTransformPadded@2@1AEBUNarrowPhaseParams@12@AEAUCache@12@AEAVPxContactBuffer@2@PEAVPxRenderOutput@2@@Z 00000001801963a0 f   GuPCMContactSphereMesh.obj
 0001:00196ed0       ?processTriangle@PCMSphereVsMeshContactGeneration@Gu@physx@@QEAA_NPEBV?$PxVec3T@M@3@IEPEBI@Z 0000000180197ed0 f   GuPCMContactSphereMesh.obj
 0001:001972c0       ?recreate@?$PxArray@IV?$PxInlineAllocator@$0PAA@V?$PxReflectionAllocator@I@physx@@@physx@@@physx@@IEAAXI@Z 00000001801982c0 f i GuPCMContactSphereMesh.obj
 0001:00197380       ?pcmContactSpherePlane@Gu@physx@@YA_NAEBVPxGeometry@2@0AEBUPxTransformPadded@2@1AEBUNarrowPhaseParams@12@AEAUCache@12@AEAVPxContactBuffer@2@PEAVPxRenderOutput@2@@Z 0000000180198380 f   GuPCMContactSpherePlane.obj
 0001:00197500       ?pcmContactSphereSphere@Gu@physx@@YA_NAEBVPxGeometry@2@0AEBUPxTransformPadded@2@1AEBUNarrowPhaseParams@12@AEAUCache@12@AEAVPxContactBuffer@2@PEAVPxRenderOutput@2@@Z 0000000180198500 f   GuPCMContactSphereSphere.obj
 0001:00197d90       ?pcmContactGeometryCustomGeometry@Gu@physx@@YA_NAEBVPxGeometry@2@0AEBUPxTransformPadded@2@1AEBUNarrowPhaseParams@12@AEAUCache@12@AEAVPxContactBuffer@2@PEAVPxRenderOutput@2@@Z 0000000180198d90 f   GuPCMContactCustomGeometry.obj
 0001:00197e40       ?getPCMConvexData@Gu@physx@@YAXAEBVConvexHullV@12@_NAEAUPolygonalData@12@@Z 0000000180198e40 f   GuPCMShapeConvex.obj
 0001:00197fd0       ?getPCMConvexData@Gu@physx@@YA_NAEBVPxConvexMeshGeometry@2@AEAVFastVertex2ShapeScaling@Cm@2@AEAVPxBounds3@2@AEAUPolygonalData@12@@Z 0000000180198fd0 f   GuPCMShapeConvex.obj
 0001:001983e0       ?getPolygonalData@PCMPolygonalBox@Gu@physx@@QEBAXPEIAUPolygonalData@23@@Z 00000001801993e0 f   GuPCMShapeConvex.obj
 0001:00198460       ?generatePolyDataContactManifold@PCMConvexVsMeshContactGeneration@Gu@physx@@QEAA_NAEBVTriangleV@23@IIEPEAVMeshPersistentContact@23@AEAIAEBT__m128@@AEAT6@@Z 0000000180199460 f   GuPCMTriangleContactGen.obj
 0001:00198580       ?generateTriangleFullContactManifold@PCMConvexVsMeshContactGeneration@Gu@physx@@QEAA_NAEBVTriangleV@23@IPEBIEAEBUPolygonalData@23@PEBV?$SupportLocalImpl@VTriangleV@Gu@physx@@@23@PEBVSupportLocal@23@PEAVMeshPersistentContact@23@AEAIAEBT__m128@@AEAT9@@Z 0000000180199580 f   GuPCMTriangleContactGen.obj
 0001:00198ab0       ?generateTriangleFullContactManifold@PCMConvexVsMeshContactGeneration@Gu@physx@@SA_NAEBVTriangleV@23@IEAEBUPolygonalData@23@PEBV?$SupportLocalImpl@VTriangleV@Gu@physx@@@23@PEBVSupportLocal@23@PEAVMeshPersistentContact@23@AEAIAEBT__m128@@AEAT9@PEAVPxRenderOutput@3@@Z 0000000180199ab0 f   GuPCMTriangleContactGen.obj
 0001:0019ab40       ?addBatchManifoldContacts2@PersistentContactManifold@Gu@physx@@QEAAXPEBVPersistentContact@23@I@Z 000000018019bb40 f   GuPersistentContactManifold.obj
 0001:0019abb0       ?addBatchManifoldContacts@PersistentContactManifold@Gu@physx@@QEAAXPEBVPersistentContact@23@IM@Z 000000018019bbb0 f   GuPersistentContactManifold.obj
 0001:0019ac30       ?addBatchManifoldContactsCluster@PersistentContactManifold@Gu@physx@@QEAAXPEBVPersistentContact@23@I@Z 000000018019bc30 f   GuPersistentContactManifold.obj
 0001:0019aeb0       ?addManifoldContactPoints@MultiplePersistentContactManifold@Gu@physx@@QEAAXPEAVMeshPersistentContact@23@IPEAPEAUPCMContactPatch@23@IAEBT__m128@@2E@Z 000000018019beb0 f   GuPersistentContactManifold.obj
 0001:0019b2a0       ?addManifoldContactsToContactBuffer@MultiplePersistentContactManifold@Gu@physx@@QEAA_NAEAVPxContactBuffer@3@AEBVPxTransformV@aos@3@1AEBT__m128@@@Z 000000018019c2a0 f   GuPersistentContactManifold.obj
 0001:0019b540       ?addManifoldContactsToContactBuffer@MultiplePersistentContactManifold@Gu@physx@@QEAA_NAEAVPxContactBuffer@3@AEBVPxTransformV@aos@3@@Z 000000018019c540 f   GuPersistentContactManifold.obj
 0001:0019b7d0       ?addManifoldContactsToContactBuffer@PersistentContactManifold@Gu@physx@@QEAAXAEAVPxContactBuffer@3@AEBT__m128@@1AEBVPxTransformV@aos@3@11@Z 000000018019c7d0 f   GuPersistentContactManifold.obj
 0001:0019b960       ?addManifoldContactsToContactBuffer@PersistentContactManifold@Gu@physx@@QEAAXAEAVPxContactBuffer@3@AEBT__m128@@AEBVPxMatTransformV@aos@3@@Z 000000018019c960 f   GuPersistentContactManifold.obj
 0001:0019ba10       ?addManifoldContactsToContactBuffer@PersistentContactManifold@Gu@physx@@QEAAXAEAVPxContactBuffer@3@AEBT__m128@@AEBVPxTransformV@aos@3@1@Z 000000018019ca10 f   GuPersistentContactManifold.obj
 0001:0019bb80       ?addManifoldPoint2@PersistentContactManifold@Gu@physx@@QEAAIAEBT__m128@@000@Z 000000018019cb80 f   GuPersistentContactManifold.obj
 0001:0019bcb0       ?addManifoldPoint@Gu@physx@@YAXPEAVPersistentContact@12@AEAVPersistentContactManifold@12@AEAUGjkOutput@12@AEBVPxMatTransformV@aos@2@T__m128@@@Z 000000018019ccb0 f   GuPersistentContactManifold.obj
 0001:0019be60       ?addManifoldPoint@PersistentContactManifold@Gu@physx@@QEAAIAEBT__m128@@000@Z 000000018019ce60 f   GuPersistentContactManifold.obj
 0001:0019c2a0       ?drawLine@MultiplePersistentContactManifold@Gu@physx@@SAXAEAVPxRenderOutput@3@AEBT__m128@@1I@Z 000000018019d2a0 f   GuPersistentContactManifold.obj
 0001:0019c350       ?drawLine@MultiplePersistentContactManifold@Gu@physx@@SAXAEAVPxRenderOutput@3@V?$PxVec3T@M@3@1I@Z 000000018019d350 f   GuPersistentContactManifold.obj
 0001:0019c3c0       ?drawManifold@MultiplePersistentContactManifold@Gu@physx@@QEBAXAEAVPxRenderOutput@3@AEBVPxTransformV@aos@3@1@Z 000000018019d3c0 f   GuPersistentContactManifold.obj
 0001:0019ca50       ?drawPoint@MultiplePersistentContactManifold@Gu@physx@@SAXAEAVPxRenderOutput@3@AEBT__m128@@MI@Z 000000018019da50 f   GuPersistentContactManifold.obj
 0001:0019cc60       ?drawPolygon@MultiplePersistentContactManifold@Gu@physx@@SAXAEAVPxRenderOutput@3@AEBVPxTransformV@aos@3@PEAT__m128@@II@Z 000000018019dc60 f   GuPersistentContactManifold.obj
 0001:0019cee0       ?findRotationMatrixFromZAxis@Gu@physx@@YA?AUMat33V@aos@2@AEBT__m128@@@Z 000000018019dee0 f   GuPersistentContactManifold.obj
 0001:0019d170       ?fromBuffer@MultiplePersistentContactManifold@Gu@physx@@QEAAXPEIAE@Z 000000018019e170 f   GuPersistentContactManifold.obj
 0001:0019d2d0       ?reduceBatchContacts2@PersistentContactManifold@Gu@physx@@QEAAXPEBVPersistentContact@23@I@Z 000000018019e2d0 f   GuPersistentContactManifold.obj
 0001:0019d4e0       ?reduceBatchContacts@PersistentContactManifold@Gu@physx@@QEAAXPEBVPersistentContact@23@IM@Z 000000018019e4e0 f   GuPersistentContactManifold.obj
 0001:0019d9b0       ?reduceBatchContactsCapsule@SinglePersistentContactManifold@Gu@physx@@QEAA?AT__m128@@PEBVMeshPersistentContact@23@IAEAUPCMContactPatch@23@@Z 000000018019e9b0 f   GuPersistentContactManifold.obj
 0001:0019dc50       ?reduceBatchContactsCluster@PersistentContactManifold@Gu@physx@@QEAAXPEBVPersistentContact@23@I@Z 000000018019ec50 f   GuPersistentContactManifold.obj
 0001:0019e0e0       ?reduceBatchContactsConvex@SinglePersistentContactManifold@Gu@physx@@QEAA?AT__m128@@PEBVMeshPersistentContact@23@IAEAUPCMContactPatch@23@@Z 000000018019f0e0 f   GuPersistentContactManifold.obj
 0001:0019e6d0       ?reduceContacts@SinglePersistentContactManifold@Gu@physx@@SAIPEAVMeshPersistentContact@23@I@Z 000000018019f6d0 f   GuPersistentContactManifold.obj
 0001:0019ec60       ?reduceContactsForPCM@PersistentContactManifold@Gu@physx@@QEAAIAEBT__m128@@00@Z 000000018019fc60 f   GuPersistentContactManifold.obj
 0001:0019f1f0       ?refreshContactPoints@SinglePersistentContactManifold@Gu@physx@@QEAA?AT__m128@@AEBVPxMatTransformV@aos@3@AEBT4@1@Z 00000001801a01f0 f   GuPersistentContactManifold.obj
 0001:0019f350       ?replaceManifoldPoint@PersistentContactManifold@Gu@physx@@QEAA_NAEBT__m128@@000@Z 00000001801a0350 f   GuPersistentContactManifold.obj
 0001:0019f410       ?toBuffer@MultiplePersistentContactManifold@Gu@physx@@QEBAXPEIAE@Z 00000001801a0410 f   GuPersistentContactManifold.obj
 0001:0019f4f0       ?contains@Gu@physx@@YA_NPEAT__m128@@IAEBT3@11@Z 00000001801a04f0 f   GuPCMContactGenUtil.obj
 0001:0019f6b0       ?getPolygonIndex@Gu@physx@@YAHAEBUPolygonalData@12@PEBVSupportLocal@12@AEBT__m128@@AEAH@Z 00000001801a06b0 f   GuPCMContactGenUtil.obj
 0001:0019f950       ?getWitnessPolygonIndex@Gu@physx@@YAIAEBUPolygonalData@12@PEBVSupportLocal@12@AEBT__m128@@2M@Z 00000001801a0950 f   GuPCMContactGenUtil.obj
 0001:0019fe90       ?sweepBoxBox@Gu@physx@@YA_NAEBVBox@12@0AEBV?$PxVec3T@M@2@MV?$PxFlags@W4Enum@PxHitFlag@physx@@G@2@AEAUPxGeomSweepHit@2@@Z 00000001801a0e90 f   GuSweepBoxBox.obj
 0001:001a1420       ?sweepBoxSphere@Gu@physx@@YA_NAEBVBox@12@MAEBV?$PxVec3T@M@2@1MAEAMAEAV42@V?$PxFlags@W4Enum@PxHitFlag@physx@@G@2@@Z 00000001801a2420 f   GuSweepBoxSphere.obj
 0001:001a2100       ?sweepBoxTriangle@Gu@physx@@YA_NAEBVPxTriangle@2@AEBVPxBounds3@2@AEBV?$PxVec3T@M@2@2AEAV52@3AEAM_N@Z 00000001801a3100 f   GuSweepBoxTriangle_FeatureBased.obj
 0001:001a37c0       ?triBoxSweepTestBoxSpace@Gu@physx@@YAHAEBVPxTriangle@2@AEBV?$PxVec3T@M@2@11MAEAM_N@Z 00000001801a47c0 f   GuSweepBoxTriangle_SAT.obj
 0001:001a50c0       ?sweepCapsuleBox@Gu@physx@@YA_NAEBVCapsule@12@AEBV?$PxTransformT@M@2@AEBV?$PxVec3T@M@2@2MAEAV52@AEAM3V?$PxFlags@W4Enum@PxHitFlag@physx@@G@2@@Z 00000001801a60c0 f   GuSweepCapsuleBox.obj
 0001:001a5400       ?distancePointSegmentSquared@Gu@physx@@YAMAEBVSegment@12@AEBV?$PxVec3T@M@2@PEAM@Z 00000001801a6400 f i GuSweepCapsuleCapsule.obj
 0001:001a5510       ?edgeEdgeDist@@YAXAEAV?$PxVec3T@M@physx@@0AEBV12@111@Z 00000001801a6510 f   GuSweepCapsuleCapsule.obj
 0001:001a5780       ?sweepCapsuleCapsule@Gu@physx@@YA_NAEBVCapsule@12@0AEBV?$PxVec3T@M@2@MAEAMAEAV42@3IAEAG@Z 00000001801a6780 f   GuSweepCapsuleCapsule.obj
 0001:001a65a0       ?sweepCapsuleTriangles_Precise@Gu@physx@@YA_NIPEIBVPxTriangle@2@AEBVCapsule@12@AEBV?$PxVec3T@M@2@MPEIBIAEAUPxGeomSweepHit@2@AEAV52@V?$PxFlags@W4Enum@PxHitFlag@physx@@G@2@_NPEBVBoxPadded@12@@Z 00000001801a75a0 f   GuSweepCapsuleTriangle.obj
 0001:001a85c0       ?sweepSphereCapsule@Gu@physx@@YA_NAEBVSphere@12@AEBVCapsule@12@AEBV?$PxVec3T@M@2@MAEAMAEAV52@4V?$PxFlags@W4Enum@PxHitFlag@physx@@G@2@@Z 00000001801a95c0 f   GuSweepSphereCapsule.obj
 0001:001a8c70       ?sweepSphereSphere@Gu@physx@@YA_NAEBV?$PxVec3T@M@2@M0M0AEAMAEAV32@@Z 00000001801a9c70 f   GuSweepSphereSphere.obj
 0001:001a8ec0       ?sweepSphereTriangles@Gu@physx@@YA_NIPEIBVPxTriangle@2@AEBV?$PxVec3T@M@2@M1MPEIBIAEAUPxGeomSweepHit@2@AEAV42@_N555@Z 00000001801a9ec0 f   GuSweepSphereTriangle.obj
 0001:001a9760       ?sweepSphereVSQuad@Gu@physx@@YA_NPEIBV?$PxVec3T@M@2@AEBV32@1M1AEAM@Z 00000001801aa760 f   GuSweepSphereTriangle.obj
 0001:001aa780       ?sweepSphereVSTri@Gu@physx@@YA_NPEIBV?$PxVec3T@M@2@AEBV32@1M1AEAMAEA_N_N@Z 00000001801ab780 f   GuSweepSphereTriangle.obj
 0001:001ab480       ??$gjk@U?$LocalConvex@VTriangleV@Gu@physx@@@Gu@physx@@U?$LocalConvex@VBoxV@Gu@physx@@@23@@Gu@physx@@YA?AW4GjkStatus@01@AEBU?$LocalConvex@VTriangleV@Gu@physx@@@01@AEBU?$LocalConvex@VBoxV@Gu@physx@@@01@AEBT__m128@@2AEAT5@333@Z 00000001801ac480 f i GuSweepTriangleUtils.obj
 0001:001ac0d0       ?computeBoxTriImpactData@Gu@physx@@YAXAEAV?$PxVec3T@M@2@0AEBV32@1AEBVPxTriangle@2@M@Z 00000001801ad0d0 f   GuSweepTriangleUtils.obj
 0001:001ac350       ?computeEdgeEdgeNormal@Gu@physx@@YAXAEAV?$PxVec3T@M@2@AEBV32@1111M@Z 00000001801ad350 f   GuSweepTriangleUtils.obj
 0001:001ac600       ?computeSphereTriImpactData@Gu@physx@@YAXAEAV?$PxVec3T@M@2@0AEBV32@1MAEBVPxTriangle@2@@Z 00000001801ad600 f   GuSweepTriangleUtils.obj
 0001:001acae0       ??0ShapeData@Gu@physx@@QEAA@AEBVPxGeometry@2@AEBV?$PxTransformT@M@2@M@Z 00000001801adae0 f   GuBounds.obj
 0001:001ad040       ?computeBounds@Gu@physx@@YAXAEAVPxBounds3@2@AEBVPxGeometry@2@AEBV?$PxTransformT@M@2@MM@Z 00000001801ae040 f   GuBounds.obj
 0001:001ae310       ?computeBoundsAroundVertices@Gu@physx@@YAXAEAVPxBounds3@2@IPEIBV?$PxVec3T@M@2@@Z 00000001801af310 f   GuBounds.obj
 0001:001ae3a0       ?computeGlobalBox@Gu@physx@@YAXAEAVPxBounds3@2@IPEIBV32@PEIBI@Z 00000001801af3a0 f   GuBounds.obj
 0001:001ae410       ?computeLocalBoundsAndGeomEpsilon@Gu@physx@@YAXPEBV?$PxVec3T@M@2@IAEAVPxBounds3@2@AEAM@Z 00000001801af410 f   GuBounds.obj
 0001:001af580       ?computeTightBounds@Gu@physx@@YAXAEAVPxBounds3@2@IPEIBV?$PxVec3T@M@2@AEBV?$PxTransformT@M@2@AEBVPxMeshScale@2@MM@Z 00000001801b0580 f   GuBounds.obj
 0001:001af920       ??0AABBTree@Gu@physx@@QEAA@XZ 00000001801b0920 f   GuAABBTree.obj
 0001:001af950       ??0BVHPartialRefitData@Gu@physx@@QEAA@XZ 00000001801b0950 f   GuAABBTree.obj
 0001:001af980       ??0NodeAllocator@Gu@physx@@QEAA@XZ 00000001801b0980 f   GuAABBTree.obj
 0001:001af9a0       ??1AABBTree@Gu@physx@@QEAA@XZ 00000001801b09a0 f   GuAABBTree.obj
 0001:001af9c0       ??1BVHPartialRefitData@Gu@physx@@QEAA@XZ 00000001801b09c0 f   GuAABBTree.obj
 0001:001afa70       ??1NodeAllocator@Gu@physx@@QEAA@XZ 00000001801b0a70 f   GuAABBTree.obj
 0001:001afac0       ?addRuntimeChilds@AABBTree@Gu@physx@@AEAAXAEAIAEBVAABBTreeMergeData@23@@Z 00000001801b0ac0 f   GuAABBTree.obj
 0001:001afbc0       ?allocate@?$PxArray@PEAVAABBTreeBuildNode@Gu@physx@@V?$PxInlineAllocator@$0IAA@V?$PxReflectionAllocator@PEAVAABBTreeBuildNode@Gu@physx@@@physx@@@3@@physx@@IEAAPEAPEAVAABBTreeBuildNode@Gu@2@IPEAI@Z 00000001801b0bc0 f i GuAABBTree.obj
 0001:001afc80       ?build@AABBTree@Gu@physx@@QEAA_NAEBVAABBTreeBuildParams@23@AEAVNodeAllocator@23@@Z 00000001801b0c80 f   GuAABBTree.obj
 0001:001afd30       ?buildAABBTree@Gu@physx@@YAPEAIAEBVAABBTreeBuildParams@12@AEAVNodeAllocator@12@AEAUBuildStats@12@@Z 00000001801b0d30 f   GuAABBTree.obj
 0001:001afda0       ?buildAABBTree@Gu@physx@@YAXIAEBVAABBTreeBounds@12@AEAV?$PxArray@UBVHNode@Gu@physx@@V?$PxReflectionAllocator@UBVHNode@Gu@physx@@@3@@2@@Z 00000001801b0da0 f   GuAABBTree.obj
 0001:001aff70       ?buildEnd@AABBTree@Gu@physx@@AEAAXAEBVAABBTreeBuildParams@23@AEAVNodeAllocator@23@AEBUBuildStats@23@@Z 00000001801b0f70 f   GuAABBTree.obj
 0001:001b02e0       ?constructFromTetrahedra@TinyBVH@Gu@physx@@SAXPEBIIPEBV?$PxVec3T@M@3@AEAU123@M@Z 00000001801b12e0 f   GuAABBTree.obj
 0001:001b05d0       ?constructFromTriangles@TinyBVH@Gu@physx@@SAXPEBIIPEBV?$PxVec3T@M@3@AEAU123@M@Z 00000001801b15d0 f   GuAABBTree.obj
 0001:001b0980       ?createUpdateMap@BVHPartialRefitData@Gu@physx@@QEAAXI@Z 00000001801b1980 f   GuAABBTree.obj
 0001:001b0aa0       ?flattenTree@Gu@physx@@YAXAEBVNodeAllocator@12@PEAUBVHNode@12@PEBI@Z 00000001801b1aa0 f   GuAABBTree.obj
 0001:001b0ca0       ?fullRefit@BVHCoreData@Gu@physx@@QEAAXPEBVPxBounds3@3@@Z 00000001801b1ca0 f   GuAABBTree.obj
 0001:001b0e70       ?getBiNode@NodeAllocator@Gu@physx@@QEAAPEAVAABBTreeBuildNode@23@XZ 00000001801b1e70 f   GuAABBTree.obj
 0001:001b0f90       ?getParentIndices@BVHPartialRefitData@Gu@physx@@IEAAPEAIXZ 00000001801b1f90 f   GuAABBTree.obj
 0001:001b1020       ?growAndPushBack@?$PxArray@PEAVAABBTreeBuildNode@Gu@physx@@V?$PxReflectionAllocator@PEAVAABBTreeBuildNode@Gu@physx@@@3@@physx@@IEAAAEAPEAVAABBTreeBuildNode@Gu@2@AEBQEAV342@@Z 00000001801b2020 f i GuAABBTree.obj
 0001:001b1140       ?growAndPushBack@?$PxArray@USlab@NodeAllocator@Gu@physx@@V?$PxReflectionAllocator@USlab@NodeAllocator@Gu@physx@@@4@@physx@@IEAAAEAUSlab@NodeAllocator@Gu@2@AEBU3452@@Z 00000001801b2140 f i GuAABBTree.obj
 0001:001b1260       ?init@AABBTreeBounds@Gu@physx@@QEAAXIPEBVPxBounds3@3@@Z 00000001801b2260 f   GuAABBTree.obj
 0001:001b1320       ?init@NodeAllocator@Gu@physx@@QEAAXII@Z 00000001801b2320 f   GuAABBTree.obj
 0001:001b1660       ?initTree@AABBTree@Gu@physx@@QEAAXAEBVAABBTreeMergeData@23@@Z 00000001801b2660 f   GuAABBTree.obj
 0001:001b17b0       ?markNodeForRefit@BVHPartialRefitData@Gu@physx@@QEAAXI@Z 00000001801b27b0 f   GuAABBTree.obj
 0001:001b18c0       ?mergeRuntimeLeaf@AABBTree@Gu@physx@@AEAAXAEAUBVHNode@23@AEBVAABBTreeMergeData@23@I@Z 00000001801b28c0 f   GuAABBTree.obj
 0001:001b1b30       ?mergeRuntimeNode@AABBTree@Gu@physx@@AEAAXAEAUBVHNode@23@AEBVAABBTreeMergeData@23@I@Z 00000001801b2b30 f   GuAABBTree.obj
 0001:001b1ed0       ?mergeTree@AABBTree@Gu@physx@@QEAAXAEBVAABBTreeMergeData@23@@Z 00000001801b2ed0 f   GuAABBTree.obj
 0001:001b2190       ?progressiveBuild@AABBTree@Gu@physx@@QEAAIAEBVAABBTreeBuildParams@23@AEAVNodeAllocator@23@AEAUBuildStats@23@II@Z 00000001801b3190 f   GuAABBTree.obj
 0001:001b2440       ?recreate@?$PxArray@PEAVAABBTreeBuildNode@Gu@physx@@V?$PxInlineAllocator@$0IAA@V?$PxReflectionAllocator@PEAVAABBTreeBuildNode@Gu@physx@@@physx@@@3@@physx@@IEAAXI@Z 00000001801b3440 f i GuAABBTree.obj
 0001:001b2500       ?refitMarkedNodes@BVHPartialRefitData@Gu@physx@@QEAAXPEBVPxBounds3@3@@Z 00000001801b3500 f   GuAABBTree.obj
 0001:001b2670       ?release@AABBTree@Gu@physx@@QEAAX_N@Z 00000001801b3670 f   GuAABBTree.obj
 0001:001b2760       ?release@AABBTreeBounds@Gu@physx@@QEAAXXZ 00000001801b3760 f   GuAABBTree.obj
 0001:001b27b0       ?release@NodeAllocator@Gu@physx@@QEAAXXZ 00000001801b37b0 f   GuAABBTree.obj
 0001:001b2860       ?releasePartialRefitData@BVHPartialRefitData@Gu@physx@@QEAAX_N@Z 00000001801b3860 f   GuAABBTree.obj
 0001:001b2900       ?reshuffle@Gu@physx@@YAIIQEIAIPEIBV?$PxVec3T@M@2@MI@Z 00000001801b3900 f   GuAABBTree.obj
 0001:001b2a40       ?resize@?$PxArray@USlab@NodeAllocator@Gu@physx@@V?$PxReflectionAllocator@USlab@NodeAllocator@Gu@physx@@@4@@physx@@QEAAXIAEBUSlab@NodeAllocator@Gu@2@@Z 00000001801b3a40 f i GuAABBTree.obj
 0001:001b2ac0       ?resize@AABBTreeBounds@Gu@physx@@QEAAXII@Z 00000001801b3ac0 f   GuAABBTree.obj
 0001:001b2b70       ?resizeUninitialized@?$PxArray@PEAVAABBTreeBuildNode@Gu@physx@@V?$PxInlineAllocator@$0IAA@V?$PxReflectionAllocator@PEAVAABBTreeBuildNode@Gu@physx@@@physx@@@3@@physx@@QEAAXI@Z 00000001801b3b70 f i GuAABBTree.obj
 0001:001b2bc0       ?shiftIndices@AABBTree@Gu@physx@@QEAAXI@Z 00000001801b3bc0 f   GuAABBTree.obj
 0001:001b2be0       ?shiftOrigin@AABBTree@Gu@physx@@QEAAXAEBV?$PxVec3T@M@3@@Z 00000001801b3be0 f   GuAABBTree.obj
 0001:001b2e70       ?subdivide@AABBTreeBuildNode@Gu@physx@@QEAAXAEBVAABBTreeBuildParams@23@AEAUBuildStats@23@AEAVNodeAllocator@23@QEAI@Z 00000001801b3e70 f   GuAABBTree.obj
 0001:001b3050       ?subdivideSAH@AABBTreeBuildNode@Gu@physx@@QEAAXAEBVAABBTreeBuildParams@23@AEAUSAH_Buffers@23@AEAUBuildStats@23@AEAVNodeAllocator@23@QEAI@Z 00000001801b4050 f   GuAABBTree.obj
 0001:001b3140       ?traverseRuntimeNode@AABBTree@Gu@physx@@AEAAXAEAUBVHNode@23@AEBVAABBTreeMergeData@23@I@Z 00000001801b4140 f   GuAABBTree.obj
 0001:001b3270       ?initMap@AABBTreeUpdateMap@Gu@physx@@QEAAXIAEBVAABBTree@23@@Z 00000001801b4270 f   GuAABBTreeUpdateMap.obj
 0001:001b3400       ?invalidate@AABBTreeUpdateMap@Gu@physx@@QEAAXIIAEAVAABBTree@23@@Z 00000001801b4400 f   GuAABBTreeUpdateMap.obj
 0001:001b36b0       ?visualizeTree@@YAXAEAVPxRenderOutput@physx@@IPEBVAABBTree@Gu@2@@Z 00000001801b46b0 f   GuSqInternal.obj
 0001:001b3720       ?visualizeTree@@YAXAEAVPxRenderOutput@physx@@IPEBVBVH@Gu@2@@Z 00000001801b4720 f   GuSqInternal.obj
 0001:001b3790       ?visualizeTree@@YAXAEAVPxRenderOutput@physx@@IPEBVIncrementalAABBTree@Gu@2@PEAVDebugVizCallback@2@@Z 00000001801b4790 f   GuSqInternal.obj
 0001:001b3810       ??$PxSort@PEAXU?$PxLess@PEAX@physx@@V?$PxReflectionAllocator@UAABBTreeIndices@Gu@physx@@@2@@physx@@YAXPEAPEAXIAEBU?$PxLess@PEAX@0@AEBV?$PxReflectionAllocator@UAABBTreeIndices@Gu@physx@@@0@I@Z 00000001801b4810 f i GuIncrementalAABBTree.obj
 0001:001b3c70       ??$PxSort@PEAXU?$PxLess@PEAX@physx@@V?$PxReflectionAllocator@UIncrementalAABBTreeNodePair@Gu@physx@@@2@@physx@@YAXPEAPEAXIAEBU?$PxLess@PEAX@0@AEBV?$PxReflectionAllocator@UIncrementalAABBTreeNodePair@Gu@physx@@@0@I@Z 00000001801b4c70 f i GuIncrementalAABBTree.obj
 0001:001b40d0       ??0IncrementalAABBTree@Gu@physx@@QEAA@XZ 00000001801b50d0 f   GuIncrementalAABBTree.obj
 0001:001b4150       ??1?$PxPoolBase@UAABBTreeIndices@Gu@physx@@V?$PxReflectionAllocator@UAABBTreeIndices@Gu@physx@@@3@@physx@@QEAA@XZ 00000001801b5150 f i GuIncrementalAABBTree.obj
 0001:001b42b0       ??1?$PxPoolBase@UIncrementalAABBTreeNodePair@Gu@physx@@V?$PxReflectionAllocator@UIncrementalAABBTreeNodePair@Gu@physx@@@3@@physx@@QEAA@XZ 00000001801b52b0 f i GuIncrementalAABBTree.obj
 0001:001b4410       ??1IncrementalAABBTree@Gu@physx@@QEAA@XZ 00000001801b5410 f   GuIncrementalAABBTree.obj
 0001:001b4450       ?allocate@?$PxPoolBase@UAABBTreeIndices@Gu@physx@@V?$PxReflectionAllocator@UAABBTreeIndices@Gu@physx@@@3@@physx@@QEAAPEAUAABBTreeIndices@Gu@2@XZ 00000001801b5450 f i GuIncrementalAABBTree.obj
 0001:001b4540       ?allocate@?$PxPoolBase@UIncrementalAABBTreeNodePair@Gu@physx@@V?$PxReflectionAllocator@UIncrementalAABBTreeNodePair@Gu@physx@@@3@@physx@@QEAAPEAUIncrementalAABBTreeNodePair@Gu@2@XZ 00000001801b5540 f i GuIncrementalAABBTree.obj
 0001:001b4630       ?build@IncrementalAABBTree@Gu@physx@@QEAA_NAEBVAABBTreeBuildParams@23@AEAV?$PxArray@PEAVIncrementalAABBTreeNode@Gu@physx@@V?$PxReflectionAllocator@PEAVIncrementalAABBTreeNode@Gu@physx@@@3@@3@@Z 00000001801b5630 f   GuIncrementalAABBTree.obj
 0001:001b4830       ?clone@IncrementalAABBTree@Gu@physx@@AEAAXAEAV?$PxArray@PEAVIncrementalAABBTreeNode@Gu@physx@@V?$PxReflectionAllocator@PEAVIncrementalAABBTreeNode@Gu@physx@@@3@@3@PEBIPEAPEAVIncrementalAABBTreeNode@23@@Z 00000001801b5830 f   GuIncrementalAABBTree.obj
 0001:001b4d40       ?copy@IncrementalAABBTree@Gu@physx@@QEAAXAEBVBVH@23@AEAV?$PxArray@PEAVIncrementalAABBTreeNode@Gu@physx@@V?$PxReflectionAllocator@PEAVIncrementalAABBTreeNode@Gu@physx@@@3@@3@@Z 00000001801b5d40 f   GuIncrementalAABBTree.obj
 0001:001b4df0       ?copyNode@IncrementalAABBTree@Gu@physx@@AEAAXAEAVIncrementalAABBTreeNode@23@AEBUBVHNode@23@PEBU523@PEAV423@PEBIAEAV?$PxArray@PEAVIncrementalAABBTreeNode@Gu@physx@@V?$PxReflectionAllocator@PEAVIncrementalAABBTreeNode@Gu@physx@@@3@@3@@Z 00000001801b5df0 f   GuIncrementalAABBTree.obj
 0001:001b4fa0       ?fixupTreeIndices@IncrementalAABBTree@Gu@physx@@QEAAXPEAVIncrementalAABBTreeNode@23@II@Z 00000001801b5fa0 f   GuIncrementalAABBTree.obj
 0001:001b4fd0       ?getTreeLeafDepth@IncrementalAABBTree@Gu@physx@@QEAAIPEAVIncrementalAABBTreeNode@23@@Z 00000001801b5fd0 f   GuIncrementalAABBTree.obj
 0001:001b4ff0       ?growAndPushBack@?$PxArray@PEAVIncrementalAABBTreeNode@Gu@physx@@V?$PxReflectionAllocator@PEAVIncrementalAABBTreeNode@Gu@physx@@@3@@physx@@IEAAAEAPEAVIncrementalAABBTreeNode@Gu@2@AEBQEAV342@@Z 00000001801b5ff0 f i GuIncrementalAABBTree.obj
 0001:001b5110       ?growAndPushBack@?$PxArray@PEAXV?$PxReflectionAllocator@UAABBTreeIndices@Gu@physx@@@physx@@@physx@@IEAAAEAPEAXAEBQEAX@Z 00000001801b6110 f i GuIncrementalAABBTree.obj
 0001:001b5230       ?growAndPushBack@?$PxArray@PEAXV?$PxReflectionAllocator@UIncrementalAABBTreeNodePair@Gu@physx@@@physx@@@physx@@IEAAAEAPEAXAEBQEAX@Z 00000001801b6230 f i GuIncrementalAABBTree.obj
 0001:001b5350       ?hierarchyCheck@IncrementalAABBTree@Gu@physx@@QEAAXIPEBVPxBounds3@3@@Z 00000001801b6350 f   GuIncrementalAABBTree.obj
 0001:001b54a0       ?hierarchyCheck@IncrementalAABBTree@Gu@physx@@QEAAXPEBVPxBounds3@3@@Z 00000001801b64a0 f   GuIncrementalAABBTree.obj
 0001:001b55f0       ?insert@IncrementalAABBTree@Gu@physx@@QEAAPEAVIncrementalAABBTreeNode@23@IPEBVPxBounds3@3@AEAV?$PxArray@PEAVIncrementalAABBTreeNode@Gu@physx@@V?$PxReflectionAllocator@PEAVIncrementalAABBTreeNode@Gu@physx@@@3@@3@@Z 00000001801b65f0 f   GuIncrementalAABBTree.obj
 0001:001b5cf0       ?recreate@?$PxArray@PEAXV?$PxReflectionAllocator@UAABBTreeIndices@Gu@physx@@@physx@@@physx@@IEAAXI@Z 00000001801b6cf0 f i GuIncrementalAABBTree.obj
 0001:001b5de0       ?recreate@?$PxArray@PEAXV?$PxReflectionAllocator@UIncrementalAABBTreeNodePair@Gu@physx@@@physx@@@physx@@IEAAXI@Z 00000001801b6de0 f i GuIncrementalAABBTree.obj
 0001:001b5ed0       ?release@IncrementalAABBTree@Gu@physx@@QEAAXXZ 00000001801b6ed0 f   GuIncrementalAABBTree.obj
 0001:001b5f00       ?releaseNode@IncrementalAABBTree@Gu@physx@@AEAAXPEAVIncrementalAABBTreeNode@23@@Z 00000001801b6f00 f   GuIncrementalAABBTree.obj
 0001:001b5f90       ?remove@IncrementalAABBTree@Gu@physx@@QEAAPEAVIncrementalAABBTreeNode@23@PEAV423@IPEBVPxBounds3@3@@Z 00000001801b6f90 f   GuIncrementalAABBTree.obj
 0001:001b6300       ?rotateTree@IncrementalAABBTree@Gu@physx@@AEAAXPEAVIncrementalAABBTreeNode@23@AEAV?$PxArray@PEAVIncrementalAABBTreeNode@Gu@physx@@V?$PxReflectionAllocator@PEAVIncrementalAABBTreeNode@Gu@physx@@@3@@3@IPEBVPxBounds3@3@_N@Z 00000001801b7300 f   GuIncrementalAABBTree.obj
 0001:001b6c40       ?shiftOrigin@IncrementalAABBTree@Gu@physx@@QEAAXAEBV?$PxVec3T@M@3@@Z 00000001801b7c40 f   GuIncrementalAABBTree.obj
 0001:001b6ca0       ?splitLeafNode@IncrementalAABBTree@Gu@physx@@AEAAPEAVIncrementalAABBTreeNode@23@PEAV423@IAEBT__m128@@1PEBVPxBounds3@3@@Z 00000001801b7ca0 f   GuIncrementalAABBTree.obj
 0001:001b6f90       ?update@IncrementalAABBTree@Gu@physx@@QEAAPEAVIncrementalAABBTreeNode@23@PEAV423@IPEBVPxBounds3@3@AEAV?$PxArray@PEAVIncrementalAABBTreeNode@Gu@physx@@V?$PxReflectionAllocator@PEAVIncrementalAABBTreeNode@Gu@physx@@@3@@3@@Z 00000001801b7f90 f   GuIncrementalAABBTree.obj
 0001:001b7050       ?updateFast@IncrementalAABBTree@Gu@physx@@QEAAPEAVIncrementalAABBTreeNode@23@PEAV423@IPEBVPxBounds3@3@AEAV?$PxArray@PEAVIncrementalAABBTreeNode@Gu@physx@@V?$PxReflectionAllocator@PEAVIncrementalAABBTreeNode@Gu@physx@@@3@@3@@Z 00000001801b8050 f   GuIncrementalAABBTree.obj
 0001:001b7290       ??0SAH_Buffers@Gu@physx@@QEAA@I@Z 00000001801b8290 f   GuSAH.obj
 0001:001b7390       ??1SAH_Buffers@Gu@physx@@QEAA@XZ 00000001801b8390 f   GuSAH.obj
 0001:001b7450       ?split@SAH_Buffers@Gu@physx@@QEAA_NAEAIIPEIBIPEIBVPxBounds3@3@PEIBV?$PxVec3T@M@3@@Z 00000001801b8450 f   GuSAH.obj
 0001:001b7b20       ??0BVH@Gu@physx@@QEAA@AEBUPxBVHInternalData@2@@Z 00000001801b8b20 f   GuBVH.obj
 0001:001b7be0       ??0BVH@Gu@physx@@QEAA@PEAVMeshFactory@12@@Z 00000001801b8be0 f   GuBVH.obj
 0001:001b7c50       ??0BVH@Gu@physx@@QEAA@PEAVMeshFactory@12@AEAVBVHData@12@@Z 00000001801b8c50 f   GuBVH.obj
 0001:001b7d00       ??1BVHData@Gu@physx@@QEAA@XZ 00000001801b8d00 f i GuBVH.obj
 0001:001bb4b4       ??_EBVH@Gu@physx@@WBA@EAAPEAXI@Z 00000001801bc4b4 f i GuBVH.obj
 0001:001bb4c0       ??_EBVH@Gu@physx@@UEAAPEAXI@Z 00000001801bc4c0 f i GuBVH.obj
 0001:001bb4c0       ??_GBVH@Gu@physx@@UEAAPEAXI@Z 00000001801bc4c0 f i GuBVH.obj
 0001:001bb550       ??_ERefCountable@Cm@physx@@UEAAPEAXI@Z 00000001801bc550 f i GuBVH.obj
 0001:001bb550       ??_GRefCountable@Cm@physx@@UEAAPEAXI@Z 00000001801bc550 f i GuBVH.obj
 0001:001bb780       ?allocate@?$PxArray@PEBUBVHNode@Gu@physx@@V?$PxInlineAllocator@$0IAA@V?$PxReflectionAllocator@PEBUBVHNode@Gu@physx@@@physx@@@3@@physx@@IEAAPEAPEBUBVHNode@Gu@2@IPEAI@Z 00000001801bc780 f i GuBVH.obj
 0001:001bb840       ?build@BVHData@Gu@physx@@QEAA_NIPEBXIMIW4BVHBuildStrategy@23@@Z 00000001801bc840 f   GuBVH.obj
 0001:001bbc40       ?cull@BVH@Gu@physx@@UEBA_NIPEBVPxPlane@3@AEAUOverlapCallback@PxBVH@3@V?$PxFlags@W4Enum@PxGeometryQueryFlag@physx@@I@3@@Z 00000001801bcc40 f   GuBVH.obj
 0001:001bc570       ?getConcreteTypeName@PxBVH@physx@@UEBAPEBDXZ 00000001801bd570 f i GuBVH.obj
 0001:001bc580       ?init@BVH@Gu@physx@@QEAA_NIPEAVAABBTreeBounds@23@PEBXIW4BVHBuildStrategy@23@IM@Z 00000001801bd580 f   GuBVH.obj
 0001:001bc9a0       ?isKindOf@PxBVH@physx@@MEBA_NPEBD@Z 00000001801bd9a0 f i GuBVH.obj
 0001:001bca20       ?load@BVH@Gu@physx@@QEAA_NAEAVPxInputStream@3@@Z 00000001801bda20 f   GuBVH.obj
 0001:001bcbb0       ?onRefCountZero@BVH@Gu@physx@@UEAAXXZ 00000001801bdbb0 f   GuBVH.obj
 0001:001bcc90       ?onRefCountZero@RefCountable@Cm@physx@@UEAAXXZ 00000001801bdc90 f i GuBVH.obj
 0001:001bccb0       ?overlap@BVH@Gu@physx@@QEBA_NAEBVShapeData@23@AEAUOverlapCallback@PxBVH@3@V?$PxFlags@W4Enum@PxGeometryQueryFlag@physx@@I@3@@Z 00000001801bdcb0 f   GuBVH.obj
 0001:001bd2c0       ?overlap@BVH@Gu@physx@@UEBA_NAEBVPxGeometry@3@AEBV?$PxTransformT@M@3@AEAUOverlapCallback@PxBVH@3@V?$PxFlags@W4Enum@PxGeometryQueryFlag@physx@@I@3@@Z 00000001801be2c0 f   GuBVH.obj
 0001:001bd320       ?partialRefit@BVH@Gu@physx@@UEAAXXZ 00000001801be320 f   GuBVH.obj
 0001:001bd330       ?raycast@BVH@Gu@physx@@UEBA_NAEBV?$PxVec3T@M@3@0MAEAURaycastCallback@PxBVH@3@V?$PxFlags@W4Enum@PxGeometryQueryFlag@physx@@I@3@@Z 00000001801be330 f   GuBVH.obj
 0001:001bd410       ?recreate@?$PxArray@PEBUBVHNode@Gu@physx@@V?$PxInlineAllocator@$0IAA@V?$PxReflectionAllocator@PEBUBVHNode@Gu@physx@@@physx@@@3@@physx@@IEAAXI@Z 00000001801be410 f i GuBVH.obj
 0001:001bd4d0       ?refit@BVH@Gu@physx@@UEAAXXZ 00000001801be4d0 f   GuBVH.obj
 0001:001bd4e0       ?release@BVH@Gu@physx@@UEAAXXZ 00000001801be4e0 f   GuBVH.obj
 0001:001bd510       ?resizeUninitialized@?$PxArray@PEBUBVHNode@Gu@physx@@V?$PxInlineAllocator@$0IAA@V?$PxReflectionAllocator@PEBUBVHNode@Gu@physx@@@physx@@@3@@physx@@QEAAXI@Z 00000001801be510 f i GuBVH.obj
 0001:001bd560       ?save@BVHData@Gu@physx@@QEBA_NAEAVPxOutputStream@3@_N@Z 00000001801be560 f   GuBVH.obj
 0001:001bd6d0       ?sweep@BVH@Gu@physx@@QEBA_NAEBVShapeData@23@AEBV?$PxVec3T@M@3@MAEAURaycastCallback@PxBVH@3@V?$PxFlags@W4Enum@PxGeometryQueryFlag@physx@@I@3@@Z 00000001801be6d0 f   GuBVH.obj
 0001:001bd8a0       ?sweep@BVH@Gu@physx@@UEBA_NAEBVPxGeometry@3@AEBV?$PxTransformT@M@3@AEBV?$PxVec3T@M@3@MAEAURaycastCallback@PxBVH@3@V?$PxFlags@W4Enum@PxGeometryQueryFlag@physx@@I@3@@Z 00000001801be8a0 f   GuBVH.obj
 0001:001bd920       ?traverse@BVH@Gu@physx@@UEBA_NAEAUTraversalCallback@PxBVH@3@@Z 00000001801be920 f   GuBVH.obj
 0001:001bda90       ?updateBounds@BVH@Gu@physx@@UEAA_NIAEBVPxBounds3@3@@Z 00000001801bea90 f   GuBVH.obj
 0001:001bdb40       ?updateBoundsInternal@BVH@Gu@physx@@QEAA_NIAEBVPxBounds3@3@@Z 00000001801beb40 f   GuBVH.obj
 0001:001bdbf0       PxFindOverlap              00000001801bebf0 f   GuBVH.obj
 0001:001bdcf0       PxGetBVHInternalData       00000001801becf0 f   GuBVH.obj
 0001:001bdd30       ??0IncrementalAABBPrunerCore@Gu@physx@@QEAA@PEBVPruningPool@12@@Z 00000001801bed30 f   GuIncrementalAABBPrunerCore.obj
 0001:001bde40       ??1IncrementalAABBPrunerCore@Gu@physx@@QEAA@XZ 00000001801bee40 f   GuIncrementalAABBPrunerCore.obj
 0001:001bdfb0       ??R?$AABBTreeOverlap@$00U?$OBBAABBTests@$00@Gu@physx@@VIncrementalAABBTree@23@VIncrementalAABBTreeNode@23@UOverlapCallbackAdapter@23@@Gu@physx@@QEAA_NAEBVAABBTreeBounds@12@AEBVIncrementalAABBTree@12@AEBU?$OBBAABBTests@$00@12@AEAUOverlapCallbackAdapter@12@@Z 00000001801befb0 f i GuIncrementalAABBPrunerCore.obj
 0001:001be550       ??R?$AABBTreeOverlap@$00UAABBAABBTest@Gu@physx@@VIncrementalAABBTree@23@VIncrementalAABBTreeNode@23@UOverlapCallbackAdapter@23@@Gu@physx@@QEAA_NAEBVAABBTreeBounds@12@AEBVIncrementalAABBTree@12@AEBUAABBAABBTest@12@AEAUOverlapCallbackAdapter@12@@Z 00000001801bf550 f i GuIncrementalAABBPrunerCore.obj
 0001:001be7b0       ??R?$AABBTreeOverlap@$00UCapsuleAABBTest@Gu@physx@@VIncrementalAABBTree@23@VIncrementalAABBTreeNode@23@UOverlapCallbackAdapter@23@@Gu@physx@@QEAA_NAEBVAABBTreeBounds@12@AEBVIncrementalAABBTree@12@AEBUCapsuleAABBTest@12@AEAUOverlapCallbackAdapter@12@@Z 00000001801bf7b0 f i GuIncrementalAABBPrunerCore.obj
 0001:001beaf0       ??R?$AABBTreeRaycast@$00$00VIncrementalAABBTree@Gu@physx@@VIncrementalAABBTreeNode@23@URaycastCallbackAdapter@23@@Gu@physx@@QEAA_NAEBVAABBTreeBounds@12@AEBVIncrementalAABBTree@12@AEBV?$PxVec3T@M@2@2AEAM2AEAURaycastCallbackAdapter@12@@Z 00000001801bfaf0 f i GuIncrementalAABBPrunerCore.obj
 0001:001bf1b0       ??R?$AABBTreeRaycast@$0A@$00VIncrementalAABBTree@Gu@physx@@VIncrementalAABBTreeNode@23@URaycastCallbackAdapter@23@@Gu@physx@@QEAA_NAEBVAABBTreeBounds@12@AEBVIncrementalAABBTree@12@AEBV?$PxVec3T@M@2@2AEAM2AEAURaycastCallbackAdapter@12@@Z 00000001801c01b0 f i GuIncrementalAABBPrunerCore.obj
 0001:001bf7e0       ?addObject@IncrementalAABBPrunerCore@Gu@physx@@QEAA_NII@Z 00000001801c07e0 f   GuIncrementalAABBPrunerCore.obj
 0001:001bf8d0       ?allocate@?$PxArray@PEBVIncrementalAABBTreeNode@Gu@physx@@V?$PxInlineAllocator@$0IAA@V?$PxReflectionAllocator@PEBVIncrementalAABBTreeNode@Gu@physx@@@physx@@@3@@physx@@IEAAPEAPEBVIncrementalAABBTreeNode@Gu@2@IPEAI@Z 00000001801c08d0 f i GuIncrementalAABBPrunerCore.obj
 0001:001bf990       ?clear@?$PxHashMapBase@IPEAVIncrementalAABBTreeNode@Gu@physx@@U?$PxHash@I@3@VPxAllocator@3@@physx@@QEAAXXZ 00000001801c0990 f i GuIncrementalAABBPrunerCore.obj
 0001:001bf990       ?clear@?$PxHashMapBase@UPrunerPayload@Gu@physx@@UExtendedBucketPrunerData@23@UExtendedBucketPrunerHash@23@VPxAllocator@3@@physx@@QEAAXXZ 00000001801c0990 f i GuExtendedBucketPruner.obj
 0001:001bfa20       ?create@?$PxHashBase@V?$PxPair@$$CBIPEAVIncrementalAABBTreeNode@Gu@physx@@@physx@@IU?$PxHash@I@2@UGetKey@?$PxHashMapBase@IPEAVIncrementalAABBTreeNode@Gu@physx@@U?$PxHash@I@3@VPxAllocator@3@@2@VPxAllocator@2@$00@physx@@QEAAPEAV?$PxPair@$$CBIPEAVIncrementalAABBTreeNode@Gu@physx@@@2@AEBIAEA_N@Z 00000001801c0a20 f i GuIncrementalAABBPrunerCore.obj
 0001:001bfb70       ?erase@?$PxHashBase@V?$PxPair@$$CBIPEAVIncrementalAABBTreeNode@Gu@physx@@@physx@@IU?$PxHash@I@2@UGetKey@?$PxHashMapBase@IPEAVIncrementalAABBTreeNode@Gu@physx@@U?$PxHash@I@3@VPxAllocator@3@@2@VPxAllocator@2@$00@physx@@QEAA_NAEBIAEAV?$PxPair@$$CBIPEAVIncrementalAABBTreeNode@Gu@physx@@@2@@Z 00000001801c0b70 f i GuIncrementalAABBPrunerCore.obj
 0001:001bfd00       ?getCurrentWorldBoxes@PruningPool@Gu@physx@@QEAAPEAVPxBounds3@3@XZ 00000001801c0d00 f i GuIncrementalAABBPrunerCore.obj
 0001:001bfd00       ?getCurrentWorldBoxes@PruningPool@Gu@physx@@QEBAPEBVPxBounds3@3@XZ 00000001801c0d00 f i GuIncrementalAABBPrunerCore.obj
 0001:001bfd00       ?getMesh@CollisionTetrahedronMeshData@Gu@physx@@UEAAPEAVPxTetrahedronMeshData@3@XZ 00000001801c0d00 f i GuCookingTetrahedronMesh.obj
 0001:001bfd00       ?getMesh@CollisionTetrahedronMeshData@Gu@physx@@UEBAPEBVPxTetrahedronMeshData@3@XZ 00000001801c0d00 f i GuCookingTetrahedronMesh.obj
 0001:001bfd00       ?getMesh@SimulationTetrahedronMeshData@Gu@physx@@UEAAPEAVPxTetrahedronMeshData@3@XZ 00000001801c0d00 f i GuCookingTetrahedronMesh.obj
 0001:001bfd10       ?getGlobalBounds@IncrementalAABBPrunerCore@Gu@physx@@QEBAXAEAVPxBounds3@3@@Z 00000001801c0d10 f   GuIncrementalAABBPrunerCore.obj
 0001:001bfe40       ?getIndex@PruningPool@Gu@physx@@QEBAII@Z 00000001801c0e40 f i GuIncrementalAABBPrunerCore.obj
 0001:001bfe50       ?getPayloadData@PruningPool@Gu@physx@@QEBAAEBUPrunerPayload@23@IPEAUPrunerPayloadData@23@@Z 00000001801c0e50 f i GuIncrementalAABBPrunerCore.obj
 0001:001bfea0       ?overlap@IncrementalAABBPrunerCore@Gu@physx@@QEBA_NAEBVShapeData@23@AEAUPrunerOverlapCallback@23@@Z 00000001801c0ea0 f   GuIncrementalAABBPrunerCore.obj
 0001:001c0a60       ?raycast@IncrementalAABBPrunerCore@Gu@physx@@QEBA_NAEBV?$PxVec3T@M@3@0AEAMAEAUPrunerRaycastCallback@23@@Z 00000001801c1a60 f   GuIncrementalAABBPrunerCore.obj
 0001:001c0b70       ?recreate@?$PxArray@PEAVIncrementalAABBTreeNode@Gu@physx@@V?$PxReflectionAllocator@PEAVIncrementalAABBTreeNode@Gu@physx@@@3@@physx@@IEAAXI@Z 00000001801c1b70 f i GuIncrementalAABBPrunerCore.obj
 0001:001c0c60       ?recreate@?$PxArray@PEBVIncrementalAABBTreeNode@Gu@physx@@V?$PxInlineAllocator@$0IAA@V?$PxReflectionAllocator@PEBVIncrementalAABBTreeNode@Gu@physx@@@physx@@@3@@physx@@IEAAXI@Z 00000001801c1c60 f i GuIncrementalAABBPrunerCore.obj
 0001:001c0d20       ?release@IncrementalAABBPrunerCore@Gu@physx@@QEAAXXZ 00000001801c1d20 f   GuIncrementalAABBPrunerCore.obj
 0001:001c0e20       ?removeMarkedObjects@IncrementalAABBPrunerCore@Gu@physx@@QEAAII@Z 00000001801c1e20 f   GuIncrementalAABBPrunerCore.obj
 0001:001c0e80       ?removeObject@IncrementalAABBPrunerCore@Gu@physx@@QEAA_NIIAEAI@Z 00000001801c1e80 f   GuIncrementalAABBPrunerCore.obj
 0001:001c1090       ?reserveInternal@?$PxHashBase@V?$PxPair@$$CBIPEAVIncrementalAABBTreeNode@Gu@physx@@@physx@@IU?$PxHash@I@2@UGetKey@?$PxHashMapBase@IPEAVIncrementalAABBTreeNode@Gu@physx@@U?$PxHash@I@3@VPxAllocator@3@@2@VPxAllocator@2@$00@physx@@AEAAXI@Z 00000001801c2090 f i GuIncrementalAABBPrunerCore.obj
 0001:001c1250       ?resizeUninitialized@?$PxArray@PEBVIncrementalAABBTreeNode@Gu@physx@@V?$PxInlineAllocator@$0IAA@V?$PxReflectionAllocator@PEBVIncrementalAABBTreeNode@Gu@physx@@@physx@@@3@@physx@@QEAAXI@Z 00000001801c2250 f i GuIncrementalAABBPrunerCore.obj
 0001:001c12a0       ?setTransform@PruningPool@Gu@physx@@QEAA_NIAEBV?$PxTransformT@M@3@@Z 00000001801c22a0 f i GuIncrementalAABBPrunerCore.obj
 0001:001c1300       ?shiftOrigin@IncrementalAABBPrunerCore@Gu@physx@@QEAAXAEBV?$PxVec3T@M@3@@Z 00000001801c2300 f   GuIncrementalAABBPrunerCore.obj
 0001:001c1340       ?swapIndex@IncrementalAABBPrunerCore@Gu@physx@@QEAAXII@Z 00000001801c2340 f   GuIncrementalAABBPrunerCore.obj
 0001:001c1420       ?sweep@IncrementalAABBPrunerCore@Gu@physx@@QEBA_NAEBVShapeData@23@AEBV?$PxVec3T@M@3@AEAMAEAUPrunerRaycastCallback@23@@Z 00000001801c2420 f   GuIncrementalAABBPrunerCore.obj
 0001:001c1640       ?updateMapping@IncrementalAABBPrunerCore@Gu@physx@@AEAAXAEAV?$PxHashMap@IPEAVIncrementalAABBTreeNode@Gu@physx@@U?$PxHash@I@3@VPxAllocator@3@@3@IPEAVIncrementalAABBTreeNode@23@@Z 00000001801c2640 f   GuIncrementalAABBPrunerCore.obj
 0001:001c17b0       ?updateObject@IncrementalAABBPrunerCore@Gu@physx@@QEAA_NI@Z 00000001801c27b0 f   GuIncrementalAABBPrunerCore.obj
 0001:001c1950       ?visualize@IncrementalAABBPrunerCore@Gu@physx@@QEBAXAEAVPxRenderOutput@3@I@Z 00000001801c2950 f   GuIncrementalAABBPrunerCore.obj
 0001:001c19b0       ??0IncrementalAABBPruner@Gu@physx@@QEAA@I_K@Z 00000001801c29b0 f   GuIncrementalAABBPruner.obj
 0001:001c1a60       ??R?$AABBTreeOverlap@$00USphereAABBTest@Gu@physx@@VIncrementalAABBTree@23@VIncrementalAABBTreeNode@23@UOverlapCallbackAdapter@23@@Gu@physx@@QEAA_NAEBVAABBTreeBounds@12@AEBVIncrementalAABBTree@12@AEBUSphereAABBTest@12@AEAUOverlapCallbackAdapter@12@@Z 00000001801c2a60 f i GuIncrementalAABBPruner.obj
 0001:001c1d30       ??_EBasePruner@Gu@physx@@UEAAPEAXI@Z 00000001801c2d30 f i GuIncrementalAABBPruner.obj
 0001:001c1d30       ??_GBasePruner@Gu@physx@@UEAAPEAXI@Z 00000001801c2d30 f i GuIncrementalAABBPruner.obj
 0001:001c1d80       ??_EIncrementalAABBPruner@Gu@physx@@UEAAPEAXI@Z 00000001801c2d80 f i GuIncrementalAABBPruner.obj
 0001:001c1d80       ??_GIncrementalAABBPruner@Gu@physx@@UEAAPEAXI@Z 00000001801c2d80 f i GuIncrementalAABBPruner.obj
 0001:001c1e90       ?addObjects@IncrementalAABBPruner@Gu@physx@@UEAA_NPEAIPEBVPxBounds3@3@PEBUPrunerPayload@23@PEBV?$PxTransformT@M@3@I_N@Z 00000001801c2e90 f   GuIncrementalAABBPruner.obj
 0001:001c2040       ?commit@IncrementalAABBPruner@Gu@physx@@UEAAXXZ 00000001801c3040 f   GuIncrementalAABBPruner.obj
 0001:001c2190       ?getGlobalBounds@IncrementalAABBPruner@Gu@physx@@UEBAXAEAVPxBounds3@3@@Z 00000001801c3190 f   GuIncrementalAABBPruner.obj
 0001:001c2200       ?getPayloadData@IncrementalAABBPruner@Gu@physx@@UEBAAEBUPrunerPayload@23@IPEAUPrunerPayloadData@23@@Z 00000001801c3200 f i GuIncrementalAABBPruner.obj
 0001:001c2250       ?overlap@IncrementalAABBPruner@Gu@physx@@UEBA_NAEBVShapeData@23@AEAUPrunerOverlapCallback@23@@Z 00000001801c3250 f   GuIncrementalAABBPruner.obj
 0001:001c2960       ?preallocate@IncrementalAABBPruner@Gu@physx@@UEAAXI@Z 00000001801c3960 f i GuIncrementalAABBPruner.obj
 0001:001c2970       ?purge@IncrementalAABBPruner@Gu@physx@@UEAAXXZ 00000001801c3970 f   GuIncrementalAABBPruner.obj
 0001:001c29c0       ?raycast@IncrementalAABBPruner@Gu@physx@@UEBA_NAEBV?$PxVec3T@M@3@0AEAMAEAUPrunerRaycastCallback@23@@Z 00000001801c39c0 f   GuIncrementalAABBPruner.obj
 0001:001c2a40       ?removeObjects@IncrementalAABBPruner@Gu@physx@@UEAAXPEBIIPEAUPrunerPayloadRemovalCallback@23@@Z 00000001801c3a40 f   GuIncrementalAABBPruner.obj
 0001:001c2b90       ?resize@?$PxArray@PEAVIncrementalAABBTreeNode@Gu@physx@@V?$PxReflectionAllocator@PEAVIncrementalAABBTreeNode@Gu@physx@@@3@@physx@@QEAAXIAEBQEAVIncrementalAABBTreeNode@Gu@2@@Z 00000001801c3b90 f i GuIncrementalAABBPruner.obj
 0001:001c2c50       ?resizeUninitialized@?$PxArray@PEAVIncrementalAABBTreeNode@Gu@physx@@V?$PxReflectionAllocator@PEAVIncrementalAABBTreeNode@Gu@physx@@@3@@physx@@QEAAXI@Z 00000001801c3c50 f i GuIncrementalAABBPruner.obj
 0001:001c2c90       ?setTransform@IncrementalAABBPruner@Gu@physx@@UEAA_NIAEBV?$PxTransformT@M@3@@Z 00000001801c3c90 f i GuIncrementalAABBPruner.obj
 0001:001c2cf0       ?shiftOrigin@IncrementalAABBPruner@Gu@physx@@UEAAXAEBV?$PxVec3T@M@3@@Z 00000001801c3cf0 f   GuIncrementalAABBPruner.obj
 0001:001c2d30       ?sweep@IncrementalAABBPruner@Gu@physx@@UEBA_NAEBVShapeData@23@AEBV?$PxVec3T@M@3@AEAMAEAUPrunerRaycastCallback@23@@Z 00000001801c3d30 f   GuIncrementalAABBPruner.obj
 0001:001c2e50       ?updateObjects@IncrementalAABBPruner@Gu@physx@@UEAAXPEBIIM0PEBVPxBounds3@3@PEBUPxTransformPadded@3@@Z 00000001801c3e50 f   GuIncrementalAABBPruner.obj
 0001:001c3020       ?visualize@IncrementalAABBPruner@Gu@physx@@UEBAXAEAVPxRenderOutput@3@II@Z 00000001801c4020 f   GuIncrementalAABBPruner.obj
 0001:001c3210       ??0PruningPool@Gu@physx@@QEAA@_KW4TransformCacheMode@12@@Z 00000001801c4210 f   GuPruningPool.obj
 0001:001c3240       ??1PruningPool@Gu@physx@@QEAA@XZ 00000001801c4240 f   GuPruningPool.obj
 0001:001c3310       ?addObjects@PruningPool@Gu@physx@@QEAAIPEAIPEBVPxBounds3@3@PEBUPrunerPayload@23@PEBV?$PxTransformT@M@3@I@Z 00000001801c4310 f   GuPruningPool.obj
 0001:001c34c0       ?preallocate@PruningPool@Gu@physx@@QEAAXI@Z 00000001801c44c0 f   GuPruningPool.obj
 0001:001c34d0       ?removeObject@PruningPool@Gu@physx@@QEAAIIPEAUPrunerPayloadRemovalCallback@23@@Z 00000001801c44d0 f   GuPruningPool.obj
 0001:001c3610       ?resize@PruningPool@Gu@physx@@QEAA_NI@Z 00000001801c4610 f   GuPruningPool.obj
 0001:001c3900       ?shiftOrigin@PruningPool@Gu@physx@@QEAAXAEBV?$PxVec3T@M@3@@Z 00000001801c4900 f   GuPruningPool.obj
 0001:001c3cd0       ?updateAndInflateBounds@PruningPool@Gu@physx@@QEAAXPEBI0PEBVPxBounds3@3@PEBUPxTransformPadded@3@IM@Z 00000001801c4cd0 f   GuPruningPool.obj
 0001:001c5720       ??0BucketPruner@Gu@physx@@QEAA@_K@Z 00000001801c6720 f   GuBucketPruner.obj
 0001:001c5770       ??0BucketPrunerCore@Gu@physx@@QEAA@_N@Z 00000001801c6770 f   GuBucketPruner.obj
 0001:001c5b00       ??1BucketPrunerCore@Gu@physx@@QEAA@XZ 00000001801c6b00 f   GuBucketPruner.obj
 0001:001c5b20       ??R?$BucketPrunerOverlapTraversal@UBucketPrunerAABBAABBTest@@$00@@QEBA_NAEBVBucketPrunerCore@Gu@physx@@AEBUBucketPrunerAABBAABBTest@@AEAUPrunerOverlapCallback@23@AEBVPxBounds3@3@@Z 00000001801c6b20 f i GuBucketPruner.obj
 0001:001c60a0       ??R?$BucketPrunerOverlapTraversal@UOBBAABBTest_SIMD@@$0A@@@QEBA_NAEBVBucketPrunerCore@Gu@physx@@AEBUOBBAABBTest_SIMD@@AEAUPrunerOverlapCallback@23@AEBVPxBounds3@3@@Z 00000001801c70a0 f i GuBucketPruner.obj
 0001:001c68a0       ??R?$BucketPrunerOverlapTraversal@USphereAABBTest_SIMD@@$00@@QEBA_NAEBVBucketPrunerCore@Gu@physx@@AEBUSphereAABBTest_SIMD@@AEAUPrunerOverlapCallback@23@AEBVPxBounds3@3@@Z 00000001801c78a0 f i GuBucketPruner.obj
 0001:001c6e40       ??_FBucketPrunerCore@Gu@physx@@QEAAXXZ 00000001801c7e40 f i GuBucketPruner.obj
 0001:001c6e50       ??_EBucketPruner@Gu@physx@@UEAAPEAXI@Z 00000001801c7e50 f i GuBucketPruner.obj
 0001:001c6e50       ??_GBucketPruner@Gu@physx@@UEAAPEAXI@Z 00000001801c7e50 f i GuBucketPruner.obj
 0001:001c6ef0       ?addObject@BucketPrunerCore@Gu@physx@@QEAA_NAEBUPrunerPayload@23@AEBVPxBounds3@3@AEBV?$PxTransformT@M@3@I@Z 00000001801c7ef0 f   GuBucketPruner.obj
 0001:001c7200       ?addObjects@BucketPruner@Gu@physx@@UEAA_NPEAIPEBVPxBounds3@3@PEBUPrunerPayload@23@PEBV?$PxTransformT@M@3@I_N@Z 00000001801c8200 f   GuBucketPruner.obj
 0001:001c7290       ?addPair@BucketPrunerMap@Gu@physx@@QEAAPEAUBucketPrunerPair@23@AEBUPrunerPayload@23@II@Z 00000001801c8290 f   GuBucketPruner.obj
 0001:001c7480       ?allocateSortedMemory@BucketPrunerCore@Gu@physx@@AEAAXI@Z 00000001801c8480 f   GuBucketPruner.obj
 0001:001c7640       ?classifyBoxes@BucketPrunerCore@Gu@physx@@AEAAXXZ 00000001801c8640 f   GuBucketPruner.obj
 0001:001c7e20       ?classifyBoxes@BucketPrunerNode@Gu@physx@@QEAAXMMIPEIAUBucketBox@23@PEIBUPrunerPayload@23@PEIBV?$PxTransformT@M@3@0PEIAU523@PEIAV63@_NI@Z 00000001801c8e20 f   GuBucketPruner.obj
 0001:001c8690       ?build@CompanionPrunerBucket@@UEAAXXZ 00000001801c9690 f   GuSecondaryPruner.obj
 0001:001c8690       ?commit@BucketPruner@Gu@physx@@UEAAXXZ 00000001801c9690 f   GuBucketPruner.obj
 0001:001c86a0       ?findPair@BucketPrunerMap@Gu@physx@@QEBAPEBUBucketPrunerPair@23@AEBUPrunerPayload@23@@Z 00000001801c96a0 f   GuBucketPruner.obj
 0001:001c8a90       ?getGlobalBounds@BucketPruner@Gu@physx@@UEBAXAEAVPxBounds3@3@@Z 00000001801c9a90 f   GuBucketPruner.obj
 0001:001c8b00       ?getGlobalBounds@BucketPrunerCore@Gu@physx@@QEBAXAEAVPxBounds3@3@@Z 00000001801c9b00 f   GuBucketPruner.obj
 0001:001c8b70       ?getPayloadData@BucketPruner@Gu@physx@@UEBAAEBUPrunerPayload@23@IPEAUPrunerPayloadData@23@@Z 00000001801c9b70 f i GuBucketPruner.obj
 0001:001c8bd0       ?overlap@BucketPruner@Gu@physx@@UEBA_NAEBVShapeData@23@AEAUPrunerOverlapCallback@23@@Z 00000001801c9bd0 f   GuBucketPruner.obj
 0001:001c8bf0       ?overlap@BucketPrunerCore@Gu@physx@@QEBA_NAEBVShapeData@23@AEAUPrunerOverlapCallback@23@@Z 00000001801c9bf0 f   GuBucketPruner.obj
 0001:001c9020       ?preallocate@BucketPruner@Gu@physx@@UEAAXI@Z 00000001801ca020 f i GuBucketPruner.obj
 0001:001c9210       ?purge@BucketPrunerMap@Gu@physx@@QEAAXXZ 00000001801ca210 f   GuBucketPruner.obj
 0001:001c92a0       ?raycast@BucketPruner@Gu@physx@@UEBA_NAEBV?$PxVec3T@M@3@0AEAMAEAUPrunerRaycastCallback@23@@Z 00000001801ca2a0 f   GuBucketPruner.obj
 0001:001c92f0       ?raycast@BucketPrunerCore@Gu@physx@@QEBA_NAEBV?$PxVec3T@M@3@0AEAMAEAUPrunerRaycastCallback@23@@Z 00000001801ca2f0 f   GuBucketPruner.obj
 0001:001c9330       ?reallocPairs@BucketPrunerMap@Gu@physx@@QEAAXXZ 00000001801ca330 f   GuBucketPruner.obj
 0001:001c9570       ?release@BucketPrunerCore@Gu@physx@@QEAAXXZ 00000001801ca570 f   GuBucketPruner.obj
 0001:001c96b0       ?removeMarkedObjects@BucketPrunerCore@Gu@physx@@QEAAII@Z 00000001801ca6b0 f   GuBucketPruner.obj
 0001:001c9aa0       ?removeObject@BucketPrunerCore@Gu@physx@@QEAA_NAEBUPrunerPayload@23@AEAI@Z 00000001801caaa0 f   GuBucketPruner.obj
 0001:001c9d60       ?removeObjects@BucketPruner@Gu@physx@@UEAAXPEBIIPEAUPrunerPayloadRemovalCallback@23@@Z 00000001801cad60 f   GuBucketPruner.obj
 0001:001c9e10       ?removePair@BucketPrunerMap@Gu@physx@@QEAA_NAEBUPrunerPayload@23@AEAI1@Z 00000001801cae10 f   GuBucketPruner.obj
 0001:001c9f90       ?removePairInternal@BucketPrunerMap@Gu@physx@@QEAAXAEBUPrunerPayload@23@II@Z 00000001801caf90 f   GuBucketPruner.obj
 0001:001ca130       ?resizeCore@BucketPrunerCore@Gu@physx@@AEAAXXZ 00000001801cb130 f   GuBucketPruner.obj
 0001:001ca390       ?setTransform@BucketPruner@Gu@physx@@UEAA_NIAEBV?$PxTransformT@M@3@@Z 00000001801cb390 f i GuBucketPruner.obj
 0001:001ca3f0       ?shiftOrigin@BucketPruner@Gu@physx@@UEAAXAEBV?$PxVec3T@M@3@@Z 00000001801cb3f0 f   GuBucketPruner.obj
 0001:001ca3f0       ?shiftOrigin@CompanionPrunerBucket@@UEAAXAEBV?$PxVec3T@M@physx@@@Z 00000001801cb3f0 f   GuSecondaryPruner.obj
 0001:001ca400       ?shiftOrigin@BucketPrunerCore@Gu@physx@@QEAAXAEBV?$PxVec3T@M@3@@Z 00000001801cb400 f   GuBucketPruner.obj
 0001:001cb2c0       ?sweep@BucketPruner@Gu@physx@@UEBA_NAEBVShapeData@23@AEBV?$PxVec3T@M@3@AEAMAEAUPrunerRaycastCallback@23@@Z 00000001801cc2c0 f   GuBucketPruner.obj
 0001:001cb2e0       ?sweep@BucketPrunerCore@Gu@physx@@QEBA_NAEBVShapeData@23@AEBV?$PxVec3T@M@3@AEAMAEAUPrunerRaycastCallback@23@@Z 00000001801cc2e0 f   GuBucketPruner.obj
 0001:001cb3b0       ?updateObject@BucketPrunerCore@Gu@physx@@QEAA_NAEBVPxBounds3@3@AEBUPrunerPayload@23@AEBV?$PxTransformT@M@3@@Z 00000001801cc3b0 f   GuBucketPruner.obj
 0001:001cb410       ?updateObjects@BucketPruner@Gu@physx@@UEAAXPEBIIM0PEBVPxBounds3@3@PEBUPxTransformPadded@3@@Z 00000001801cc410 f   GuBucketPruner.obj
 0001:001cb520       ?visualize@BucketPruner@Gu@physx@@UEBAXAEAVPxRenderOutput@3@II@Z 00000001801cc520 f   GuBucketPruner.obj
 0001:001cb520       ?visualize@CompanionPrunerBucket@@UEBAXAEAVPxRenderOutput@physx@@I@Z 00000001801cc520 f   GuSecondaryPruner.obj
 0001:001cb530       ?visualize@BucketPrunerCore@Gu@physx@@QEBAXAEAVPxRenderOutput@3@I@Z 00000001801cc530 f   GuBucketPruner.obj
 0001:001cba70       ?addObject@MaverickNode@Gu@physx@@QEAA_NAEBUPrunerPayload@23@IAEBVPxBounds3@3@AEBV?$PxTransformT@M@3@I@Z 00000001801cca70 f   GuMaverickNode.obj
 0001:001cbb50       ?removeMarkedObjects@MaverickNode@Gu@physx@@QEAAII@Z 00000001801ccb50 f   GuMaverickNode.obj
 0001:001cbcd0       ?removeObject@MaverickNode@Gu@physx@@QEAA_NIAEAI@Z 00000001801cccd0 f   GuMaverickNode.obj
 0001:001cbe60       ?shiftOrigin@MaverickNode@Gu@physx@@QEAAXAEBV?$PxVec3T@M@3@@Z 00000001801cce60 f   GuMaverickNode.obj
 0001:001cbf50       ?updateObject@MaverickNode@Gu@physx@@QEAA_NIAEBVPxBounds3@3@AEBV?$PxTransformT@M@3@@Z 00000001801ccf50 f   GuMaverickNode.obj
 0001:001cc030       ??0ExtendedBucketPruner@Gu@physx@@QEAA@_KW4CompanionPrunerType@12@PEBVPruningPool@12@@Z 00000001801cd030 f   GuExtendedBucketPruner.obj
 0001:001cc260       ??1ExtendedBucketPruner@Gu@physx@@QEAA@XZ 00000001801cd260 f   GuExtendedBucketPruner.obj
 0001:001cc3d0       ??R?$AABBTreeOverlap@$00U?$OBBAABBTests@$00@Gu@physx@@VAABBTree@23@UBVHNode@23@U?$MainTreeOverlapPrunerCallback@U?$OBBAABBTests@$00@Gu@physx@@@@@Gu@physx@@QEAA_NAEBVAABBTreeBounds@12@AEBVAABBTree@12@AEBU?$OBBAABBTests@$00@12@AEAU?$MainTreeOverlapPrunerCallback@U?$OBBAABBTests@$00@Gu@physx@@@@@Z 00000001801cd3d0 f i GuExtendedBucketPruner.obj
 0001:001cc9b0       ??R?$AABBTreeOverlap@$00U?$OBBAABBTests@$00@Gu@physx@@VAABBTree@23@UBVHNode@23@UOverlapCallbackAdapter@23@@Gu@physx@@QEAA_NAEBVAABBTreeBounds@12@AEBVAABBTree@12@AEBU?$OBBAABBTests@$00@12@AEAUOverlapCallbackAdapter@12@@Z 00000001801cd9b0 f i GuExtendedBucketPruner.obj
 0001:001ccf70       ??R?$AABBTreeOverlap@$00UAABBAABBTest@Gu@physx@@VAABBTree@23@UBVHNode@23@U?$MainTreeOverlapPrunerCallback@UAABBAABBTest@Gu@physx@@@@@Gu@physx@@QEAA_NAEBVAABBTreeBounds@12@AEBVAABBTree@12@AEBUAABBAABBTest@12@AEAU?$MainTreeOverlapPrunerCallback@UAABBAABBTest@Gu@physx@@@@@Z 00000001801cdf70 f i GuExtendedBucketPruner.obj
 0001:001cd220       ??R?$AABBTreeOverlap@$00UAABBAABBTest@Gu@physx@@VAABBTree@23@UBVHNode@23@UOverlapCallbackAdapter@23@@Gu@physx@@QEAA_NAEBVAABBTreeBounds@12@AEBVAABBTree@12@AEBUAABBAABBTest@12@AEAUOverlapCallbackAdapter@12@@Z 00000001801ce220 f i GuExtendedBucketPruner.obj
 0001:001cd4b0       ??R?$AABBTreeOverlap@$00UCapsuleAABBTest@Gu@physx@@VAABBTree@23@UBVHNode@23@U?$MainTreeOverlapPrunerCallback@UCapsuleAABBTest@Gu@physx@@@@@Gu@physx@@QEAA_NAEBVAABBTreeBounds@12@AEBVAABBTree@12@AEBUCapsuleAABBTest@12@AEAU?$MainTreeOverlapPrunerCallback@UCapsuleAABBTest@Gu@physx@@@@@Z 00000001801ce4b0 f i GuExtendedBucketPruner.obj
 0001:001cd860       ??R?$AABBTreeOverlap@$00UCapsuleAABBTest@Gu@physx@@VAABBTree@23@UBVHNode@23@UOverlapCallbackAdapter@23@@Gu@physx@@QEAA_NAEBVAABBTreeBounds@12@AEBVAABBTree@12@AEBUCapsuleAABBTest@12@AEAUOverlapCallbackAdapter@12@@Z 00000001801ce860 f i GuExtendedBucketPruner.obj
 0001:001cdbf0       ??R?$AABBTreeOverlap@$00USphereAABBTest@Gu@physx@@VAABBTree@23@UBVHNode@23@U?$MainTreeOverlapPrunerCallback@USphereAABBTest@Gu@physx@@@@@Gu@physx@@QEAA_NAEBVAABBTreeBounds@12@AEBVAABBTree@12@AEBUSphereAABBTest@12@AEAU?$MainTreeOverlapPrunerCallback@USphereAABBTest@Gu@physx@@@@@Z 00000001801cebf0 f i GuExtendedBucketPruner.obj
 0001:001cdf00       ??R?$AABBTreeOverlap@$00USphereAABBTest@Gu@physx@@VAABBTree@23@UBVHNode@23@UOverlapCallbackAdapter@23@@Gu@physx@@QEAA_NAEBVAABBTreeBounds@12@AEBVAABBTree@12@AEBUSphereAABBTest@12@AEAUOverlapCallbackAdapter@12@@Z 00000001801cef00 f i GuExtendedBucketPruner.obj
 0001:001ce1f0       ??R?$AABBTreeRaycast@$00$00VAABBTree@Gu@physx@@UBVHNode@23@U?$MainTreeRaycastPrunerCallback@$00@@@Gu@physx@@QEAA_NAEBVAABBTreeBounds@12@AEBVAABBTree@12@AEBV?$PxVec3T@M@2@2AEAM2AEAU?$MainTreeRaycastPrunerCallback@$00@@@Z 00000001801cf1f0 f i GuExtendedBucketPruner.obj
 0001:001ce8f0       ??R?$AABBTreeRaycast@$00$00VAABBTree@Gu@physx@@UBVHNode@23@URaycastCallbackAdapter@23@@Gu@physx@@QEAA_NAEBVAABBTreeBounds@12@AEBVAABBTree@12@AEBV?$PxVec3T@M@2@2AEAM2AEAURaycastCallbackAdapter@12@@Z 00000001801cf8f0 f i GuExtendedBucketPruner.obj
 0001:001cefd0       ??R?$AABBTreeRaycast@$0A@$00VAABBTree@Gu@physx@@UBVHNode@23@U?$MainTreeRaycastPrunerCallback@$0A@@@@Gu@physx@@QEAA_NAEBVAABBTreeBounds@12@AEBVAABBTree@12@AEBV?$PxVec3T@M@2@2AEAM2AEAU?$MainTreeRaycastPrunerCallback@$0A@@@@Z 00000001801cffd0 f i GuExtendedBucketPruner.obj
 0001:001cf680       ??R?$AABBTreeRaycast@$0A@$00VAABBTree@Gu@physx@@UBVHNode@23@URaycastCallbackAdapter@23@@Gu@physx@@QEAA_NAEBVAABBTreeBounds@12@AEBVAABBTree@12@AEBV?$PxVec3T@M@2@2AEAM2AEAURaycastCallbackAdapter@12@@Z 00000001801d0680 f i GuExtendedBucketPruner.obj
 0001:001cfcf0       ?addTree@ExtendedBucketPruner@Gu@physx@@QEAAXAEBVAABBTreeMergeData@23@I@Z 00000001801d0cf0 f   GuExtendedBucketPruner.obj
 0001:001cfe70       ?buildMainAABBTree@ExtendedBucketPruner@Gu@physx@@AEAAXXZ 00000001801d0e70 f   GuExtendedBucketPruner.obj
 0001:001cff20       ?create@?$PxHashBase@V?$PxPair@$$CBUPrunerPayload@Gu@physx@@UExtendedBucketPrunerData@23@@physx@@UPrunerPayload@Gu@2@UExtendedBucketPrunerHash@42@UGetKey@?$PxHashMapBase@UPrunerPayload@Gu@physx@@UExtendedBucketPrunerData@23@UExtendedBucketPrunerHash@23@VPxAllocator@3@@2@VPxAllocator@2@$00@physx@@QEAAPEAV?$PxPair@$$CBUPrunerPayload@Gu@physx@@UExtendedBucketPrunerData@23@@2@AEBUPrunerPayload@Gu@2@AEA_N@Z 00000001801d0f20 f i GuExtendedBucketPruner.obj
 0001:001d0100       ?eraseInternal@?$PxHashBase@V?$PxPair@$$CBUPrunerPayload@Gu@physx@@UExtendedBucketPrunerData@23@@physx@@UPrunerPayload@Gu@2@UExtendedBucketPrunerHash@42@UGetKey@?$PxHashMapBase@UPrunerPayload@Gu@physx@@UExtendedBucketPrunerData@23@UExtendedBucketPrunerHash@23@VPxAllocator@3@@2@VPxAllocator@2@$00@physx@@AEAA_NPEAI@Z 00000001801d1100 f i GuExtendedBucketPruner.obj
 0001:001d0220       ?find@?$PxHashMapBase@UPrunerPayload@Gu@physx@@UExtendedBucketPrunerData@23@UExtendedBucketPrunerHash@23@VPxAllocator@3@@physx@@QEBAPEBV?$PxPair@$$CBUPrunerPayload@Gu@physx@@UExtendedBucketPrunerData@23@@2@AEBUPrunerPayload@Gu@2@@Z 00000001801d1220 f i GuExtendedBucketPruner.obj
 0001:001d0310       ?getGlobalBounds@ExtendedBucketPruner@Gu@physx@@QEBAXAEAVPxBounds3@3@@Z 00000001801d1310 f   GuExtendedBucketPruner.obj
 0001:001d03e0       ?invalidateObject@ExtendedBucketPruner@Gu@physx@@AEAAXAEBUExtendedBucketPrunerData@23@IAEBUPrunerPayload@23@I@Z 00000001801d13e0 f   GuExtendedBucketPruner.obj
 0001:001d0520       ?overlap@ExtendedBucketPruner@Gu@physx@@QEBA_NAEBVShapeData@23@AEAUPrunerOverlapCallback@23@@Z 00000001801d1520 f   GuExtendedBucketPruner.obj
 0001:001d0d30       ?raycast@ExtendedBucketPruner@Gu@physx@@QEBA_NAEBV?$PxVec3T@M@3@0AEAMAEAUPrunerRaycastCallback@23@@Z 00000001801d1d30 f   GuExtendedBucketPruner.obj
 0001:001d0e10       ?refitMarkedNodes@ExtendedBucketPruner@Gu@physx@@QEAAXPEBVPxBounds3@3@@Z 00000001801d1e10 f   GuExtendedBucketPruner.obj
 0001:001d1380       ?release@ExtendedBucketPruner@Gu@physx@@QEAAXXZ 00000001801d2380 f   GuExtendedBucketPruner.obj
 0001:001d1450       ?removeMarkedObjects@ExtendedBucketPruner@Gu@physx@@QEAAII@Z 00000001801d2450 f   GuExtendedBucketPruner.obj
 0001:001d1770       ?removeObject@ExtendedBucketPruner@Gu@physx@@QEAA_NAEBUPrunerPayload@23@II0I@Z 00000001801d2770 f   GuExtendedBucketPruner.obj
 0001:001d1950       ?reserveInternal@?$PxHashBase@V?$PxPair@$$CBUPrunerPayload@Gu@physx@@UExtendedBucketPrunerData@23@@physx@@UPrunerPayload@Gu@2@UExtendedBucketPrunerHash@42@UGetKey@?$PxHashMapBase@UPrunerPayload@Gu@physx@@UExtendedBucketPrunerData@23@UExtendedBucketPrunerHash@23@VPxAllocator@3@@2@VPxAllocator@2@$00@physx@@AEAAXI@Z 00000001801d2950 f i GuExtendedBucketPruner.obj
 0001:001d1b50       ?resize@ExtendedBucketPruner@Gu@physx@@AEAAXI@Z 00000001801d2b50 f   GuExtendedBucketPruner.obj
 0001:001d1cf0       ?shiftOrigin@ExtendedBucketPruner@Gu@physx@@QEAAXAEBV?$PxVec3T@M@3@@Z 00000001801d2cf0 f   GuExtendedBucketPruner.obj
 0001:001d1d70       ?swapIndex@ExtendedBucketPruner@Gu@physx@@QEAAXIAEBUPrunerPayload@23@I_N@Z 00000001801d2d70 f   GuExtendedBucketPruner.obj
 0001:001d1e40       ?sweep@ExtendedBucketPruner@Gu@physx@@QEBA_NAEBVShapeData@23@AEBV?$PxVec3T@M@3@AEAMAEAUPrunerRaycastCallback@23@@Z 00000001801d2e40 f   GuExtendedBucketPruner.obj
 0001:001d1fd0       ?updateObject@ExtendedBucketPruner@Gu@physx@@QEAA_NAEBVPxBounds3@3@AEBV?$PxTransformT@M@3@AEBUPrunerPayload@23@II@Z 00000001801d2fd0 f   GuExtendedBucketPruner.obj
 0001:001d20a0       ?visualize@ExtendedBucketPruner@Gu@physx@@QEBAXAEAVPxRenderOutput@3@I@Z 00000001801d30a0 f   GuExtendedBucketPruner.obj
 0001:001d2130       ??0?$OBBAABBTests@$00@Gu@physx@@QEAA@AEBV?$PxVec3T@M@2@AEBV?$PxMat33T@M@2@0@Z 00000001801d3130 f i GuSecondaryPruner.obj
 0001:001d4080       ??_ECompanionPruner@Gu@physx@@UEAAPEAXI@Z 00000001801d5080 f i GuSecondaryPruner.obj
 0001:001d4080       ??_GCompanionPruner@Gu@physx@@UEAAPEAXI@Z 00000001801d5080 f i GuSecondaryPruner.obj
 0001:001d40d0       ??_ECompanionPrunerAABBTree@@UEAAPEAXI@Z 00000001801d50d0 f i GuSecondaryPruner.obj
 0001:001d40d0       ??_GCompanionPrunerAABBTree@@UEAAPEAXI@Z 00000001801d50d0 f i GuSecondaryPruner.obj
 0001:001d4180       ??_ECompanionPrunerBucket@@UEAAPEAXI@Z 00000001801d5180 f i GuSecondaryPruner.obj
 0001:001d4180       ??_GCompanionPrunerBucket@@UEAAPEAXI@Z 00000001801d5180 f i GuSecondaryPruner.obj
 0001:001d4200       ??_ECompanionPrunerIncremental@@UEAAPEAXI@Z 00000001801d5200 f i GuSecondaryPruner.obj
 0001:001d4200       ??_GCompanionPrunerIncremental@@UEAAPEAXI@Z 00000001801d5200 f i GuSecondaryPruner.obj
 0001:001d4280       ?addObject@CompanionPrunerAABBTree@@UEAA_NAEBUPrunerPayload@Gu@physx@@IAEBVPxBounds3@4@AEBV?$PxTransformT@M@4@II@Z 00000001801d5280 f   GuSecondaryPruner.obj
 0001:001d44d0       ?addObject@CompanionPrunerBucket@@UEAA_NAEBUPrunerPayload@Gu@physx@@IAEBVPxBounds3@4@AEBV?$PxTransformT@M@4@II@Z 00000001801d54d0 f i GuSecondaryPruner.obj
 0001:001d44f0       ?addObject@CompanionPrunerIncremental@@UEAA_NAEBUPrunerPayload@Gu@physx@@IAEBVPxBounds3@4@AEBV?$PxTransformT@M@4@II@Z 00000001801d54f0 f i GuSecondaryPruner.obj
 0001:001d4510       ?addObjectInternal@CompanionPrunerAABBTree@@QEAA_NII@Z 00000001801d5510 f   GuSecondaryPruner.obj
 0001:001d46c0       ?build@CompanionPrunerAABBTree@@UEAAXXZ 00000001801d56c0 f   GuSecondaryPruner.obj
 0001:001d4bd0       ?createCompanionPruner@Gu@physx@@YAPEAVCompanionPruner@12@_KW4CompanionPrunerType@12@PEBVPruningPool@12@@Z 00000001801d5bd0 f   GuSecondaryPruner.obj
 0001:001d4dd0       ?getGlobalBounds@CompanionPrunerAABBTree@@UEBAXAEAVPxBounds3@physx@@@Z 00000001801d5dd0 f   GuSecondaryPruner.obj
 0001:001d4ec0       ?getGlobalBounds@CompanionPrunerBucket@@UEBAXAEAVPxBounds3@physx@@@Z 00000001801d5ec0 f i GuSecondaryPruner.obj
 0001:001d4ed0       ?getGlobalBounds@CompanionPrunerIncremental@@UEBAXAEAVPxBounds3@physx@@@Z 00000001801d5ed0 f i GuSecondaryPruner.obj
 0001:001d4ee0       ?getNbObjects@CompanionPrunerAABBTree@@UEBAIXZ 00000001801d5ee0 f   GuSecondaryPruner.obj
 0001:001d4ef0       ?getNbObjects@CompanionPrunerBucket@@UEBAIXZ 00000001801d5ef0 f i GuSecondaryPruner.obj
 0001:001d4f00       ?getNbObjects@CompanionPrunerIncremental@@UEBAIXZ 00000001801d5f00 f i GuSecondaryPruner.obj
 0001:001d4f10       ?growAndPushBack@?$PxArray@ULocalData@CompanionPrunerAABBTree@@V?$PxReflectionAllocator@ULocalData@CompanionPrunerAABBTree@@@physx@@@physx@@IEAAAEAULocalData@CompanionPrunerAABBTree@@AEBU34@@Z 00000001801d5f10 f i GuSecondaryPruner.obj
 0001:001d5030       ?overlap@CompanionPrunerAABBTree@@UEBA_NAEBVShapeData@Gu@physx@@AEAUPrunerOverlapCallback@34@@Z 00000001801d6030 f   GuSecondaryPruner.obj
 0001:001d5fa0       ?overlap@CompanionPrunerBucket@@UEBA_NAEBVShapeData@Gu@physx@@AEAUPrunerOverlapCallback@34@@Z 00000001801d6fa0 f i GuSecondaryPruner.obj
 0001:001d5fc0       ?overlap@CompanionPrunerIncremental@@UEBA_NAEBVShapeData@Gu@physx@@AEAUPrunerOverlapCallback@34@@Z 00000001801d6fc0 f i GuSecondaryPruner.obj
 0001:001d5fe0       ?raycast@CompanionPrunerAABBTree@@UEBA_NAEBV?$PxVec3T@M@physx@@0AEAMAEAUPrunerRaycastCallback@Gu@3@@Z 00000001801d6fe0 f   GuSecondaryPruner.obj
 0001:001d63c0       ?raycast@CompanionPrunerBucket@@UEBA_NAEBV?$PxVec3T@M@physx@@0AEAMAEAUPrunerRaycastCallback@Gu@3@@Z 00000001801d73c0 f i GuSecondaryPruner.obj
 0001:001d63e0       ?raycast@CompanionPrunerIncremental@@UEBA_NAEBV?$PxVec3T@M@physx@@0AEAMAEAUPrunerRaycastCallback@Gu@3@@Z 00000001801d73e0 f i GuSecondaryPruner.obj
 0001:001d6400       ?release@CompanionPrunerAABBTree@@UEAAXXZ 00000001801d7400 f   GuSecondaryPruner.obj
 0001:001d6410       ?release@CompanionPrunerBucket@@UEAAXXZ 00000001801d7410 f i GuSecondaryPruner.obj
 0001:001d6420       ?release@CompanionPrunerIncremental@@UEAAXXZ 00000001801d7420 f i GuSecondaryPruner.obj
 0001:001d6430       ?releaseInternal@CompanionPrunerAABBTree@@QEAAXXZ 00000001801d7430 f   GuSecondaryPruner.obj
 0001:001d64b0       ?removeMarkedObjects@CompanionPrunerAABBTree@@UEAAII@Z 00000001801d74b0 f   GuSecondaryPruner.obj
 0001:001d64d0       ?removeMarkedObjects@CompanionPrunerBucket@@UEAAII@Z 00000001801d74d0 f i GuSecondaryPruner.obj
 0001:001d64e0       ?removeMarkedObjects@CompanionPrunerIncremental@@UEAAII@Z 00000001801d74e0 f i GuSecondaryPruner.obj
 0001:001d64f0       ?removeObject@CompanionPrunerAABBTree@@UEAA_NAEBUPrunerPayload@Gu@physx@@III@Z 00000001801d74f0 f   GuSecondaryPruner.obj
 0001:001d6590       ?removeObject@CompanionPrunerBucket@@UEAA_NAEBUPrunerPayload@Gu@physx@@III@Z 00000001801d7590 f i GuSecondaryPruner.obj
 0001:001d65b0       ?removeObject@CompanionPrunerIncremental@@UEAA_NAEBUPrunerPayload@Gu@physx@@III@Z 00000001801d75b0 f i GuSecondaryPruner.obj
 0001:001d65d0       ?shiftOrigin@CompanionPrunerAABBTree@@UEAAXAEBV?$PxVec3T@M@physx@@@Z 00000001801d75d0 f   GuSecondaryPruner.obj
 0001:001d6700       ?shiftOrigin@CompanionPrunerIncremental@@UEAAXAEBV?$PxVec3T@M@physx@@@Z 00000001801d7700 f i GuSecondaryPruner.obj
 0001:001d6710       ?swapIndex@CompanionPrunerIncremental@@UEAAXII@Z 00000001801d7710 f i GuSecondaryPruner.obj
 0001:001d6720       ?sweep@CompanionPrunerAABBTree@@UEBA_NAEBVShapeData@Gu@physx@@AEBV?$PxVec3T@M@4@AEAMAEAUPrunerRaycastCallback@34@@Z 00000001801d7720 f   GuSecondaryPruner.obj
 0001:001d6c60       ?sweep@CompanionPrunerBucket@@UEBA_NAEBVShapeData@Gu@physx@@AEBV?$PxVec3T@M@4@AEAMAEAUPrunerRaycastCallback@34@@Z 00000001801d7c60 f i GuSecondaryPruner.obj
 0001:001d6c80       ?sweep@CompanionPrunerIncremental@@UEBA_NAEBVShapeData@Gu@physx@@AEBV?$PxVec3T@M@4@AEAMAEAUPrunerRaycastCallback@34@@Z 00000001801d7c80 f i GuSecondaryPruner.obj
 0001:001d6ca0       ?timeStampChange@CompanionPrunerIncremental@@UEAAXXZ 00000001801d7ca0 f i GuSecondaryPruner.obj
 0001:001d6cc0       ?updateObject@CompanionPrunerAABBTree@@UEAA_NAEBUPrunerPayload@Gu@physx@@IAEBVPxBounds3@4@AEBV?$PxTransformT@M@4@I@Z 00000001801d7cc0 f   GuSecondaryPruner.obj
 0001:001d6d40       ?updateObject@CompanionPrunerBucket@@UEAA_NAEBUPrunerPayload@Gu@physx@@IAEBVPxBounds3@4@AEBV?$PxTransformT@M@4@I@Z 00000001801d7d40 f i GuSecondaryPruner.obj
 0001:001d6d60       ?updateObject@CompanionPrunerIncremental@@UEAA_NAEBUPrunerPayload@Gu@physx@@IAEBVPxBounds3@4@AEBV?$PxTransformT@M@4@I@Z 00000001801d7d60 f i GuSecondaryPruner.obj
 0001:001d6d70       ?visualize@CompanionPrunerAABBTree@@UEBAXAEAVPxRenderOutput@physx@@I@Z 00000001801d7d70 f   GuSecondaryPruner.obj
 0001:001d6d90       ?visualize@CompanionPrunerIncremental@@UEBAXAEAVPxRenderOutput@physx@@I@Z 00000001801d7d90 f i GuSecondaryPruner.obj
 0001:001d6da0       ??0AABBPruner@Gu@physx@@QEAA@_N_KW4CompanionPrunerType@12@W4BVHBuildStrategy@12@I@Z 00000001801d7da0 f   GuAABBPruner.obj
 0001:001d6ed0       ??1AABBPruner@Gu@physx@@UEAA@XZ 00000001801d7ed0 f   GuAABBPruner.obj
 0001:001d7030       ??_EAABBPruner@Gu@physx@@UEAAPEAXI@Z 00000001801d8030 f i GuAABBPruner.obj
 0001:001d7030       ??_GAABBPruner@Gu@physx@@UEAAPEAXI@Z 00000001801d8030 f i GuAABBPruner.obj
 0001:001d70a0       ?addObjects@AABBPruner@Gu@physx@@UEAA_NPEAIPEBVPxBounds3@3@PEBUPrunerPayload@23@PEBV?$PxTransformT@M@3@I_N@Z 00000001801d80a0 f   GuAABBPruner.obj
 0001:001d7200       ?buildStep@AABBPruner@Gu@physx@@UEAA_N_N@Z 00000001801d8200 f   GuAABBPruner.obj
 0001:001d7430       ?commit@AABBPruner@Gu@physx@@UEAAXXZ 00000001801d8430 f   GuAABBPruner.obj
 0001:001d7820       ?getGlobalBounds@AABBPruner@Gu@physx@@UEBAXAEAVPxBounds3@3@@Z 00000001801d8820 f   GuAABBPruner.obj
 0001:001d7940       ?getPayloadData@AABBPruner@Gu@physx@@UEBAAEBUPrunerPayload@23@IPEAUPrunerPayloadData@23@@Z 00000001801d8940 f i GuAABBPruner.obj
 0001:001d79a0       ?growAndPushBack@?$PxArray@UNewTreeFixup@AABBPruner@Gu@physx@@V?$PxReflectionAllocator@UNewTreeFixup@AABBPruner@Gu@physx@@@4@@physx@@IEAAAEAUNewTreeFixup@AABBPruner@Gu@2@AEBU3452@@Z 00000001801d89a0 f i GuAABBPruner.obj
 0001:001d7ac0       ?isDynamic@AABBPruner@Gu@physx@@UEBA_NXZ 00000001801d8ac0 f i GuAABBPruner.obj
 0001:001d7ad0       ?merge@AABBPruner@Gu@physx@@UEAAXPEBX@Z 00000001801d8ad0 f   GuAABBPruner.obj
 0001:001d7b50       ?overlap@AABBPruner@Gu@physx@@UEBA_NAEBVShapeData@23@AEAUPrunerOverlapCallback@23@@Z 00000001801d8b50 f   GuAABBPruner.obj
 0001:001d82b0       ?preallocate@AABBPruner@Gu@physx@@UEAAXI@Z 00000001801d92b0 f i GuAABBPruner.obj
 0001:001d82c0       ?prepareBuild@AABBPruner@Gu@physx@@UEAA_NXZ 00000001801d92c0 f   GuAABBPruner.obj
 0001:001d8450       ?purge@AABBPruner@Gu@physx@@UEAAXXZ 00000001801d9450 f   GuAABBPruner.obj
 0001:001d8470       ?raycast@AABBPruner@Gu@physx@@UEBA_NAEBV?$PxVec3T@M@3@0AEAMAEAUPrunerRaycastCallback@23@@Z 00000001801d9470 f   GuAABBPruner.obj
 0001:001d8560       ?release@AABBPruner@Gu@physx@@QEAAXXZ 00000001801d9560 f   GuAABBPruner.obj
 0001:001d8690       ?removeObjects@AABBPruner@Gu@physx@@UEAAXPEBIIPEAUPrunerPayloadRemovalCallback@23@@Z 00000001801d9690 f   GuAABBPruner.obj
 0001:001d88a0       ?setRebuildRateHint@AABBPruner@Gu@physx@@UEAAXI@Z 00000001801d98a0 f   GuAABBPruner.obj
 0001:001d88c0       ?setTransform@AABBPruner@Gu@physx@@UEAA_NIAEBV?$PxTransformT@M@3@@Z 00000001801d98c0 f i GuAABBPruner.obj
 0001:001d8920       ?shiftOrigin@AABBPruner@Gu@physx@@UEAAXAEBV?$PxVec3T@M@3@@Z 00000001801d9920 f   GuAABBPruner.obj
 0001:001d8990       ?sweep@AABBPruner@Gu@physx@@UEBA_NAEBVShapeData@23@AEBV?$PxVec3T@M@3@AEAMAEAUPrunerRaycastCallback@23@@Z 00000001801d9990 f   GuAABBPruner.obj
 0001:001d8b20       ?updateObjects@AABBPruner@Gu@physx@@UEAAXPEBIIM0PEBVPxBounds3@3@PEBUPxTransformPadded@3@@Z 00000001801d9b20 f   GuAABBPruner.obj
 0001:001d8cc0       ?visualize@AABBPruner@Gu@physx@@UEBAXAEAVPxRenderOutput@3@II@Z 00000001801d9cc0 f   GuAABBPruner.obj
 0001:001d8d70       ??0ActorShapeMap@Gu@physx@@QEAA@XZ 00000001801d9d70 f   GuActorShapeMap.obj
 0001:001d8dd0       ??1ActorShapeMap@Gu@physx@@QEAA@XZ 00000001801d9dd0 f   GuActorShapeMap.obj
 0001:001d8e30       ?add@ActorShapeMap@Gu@physx@@QEAA_NIPEBX0_K@Z 00000001801d9e30 f   GuActorShapeMap.obj
 0001:001d8fe0       ?create@?$PxHashBase@V?$PxPair@$$CBUActorShape@ActorShapeMap@Gu@physx@@_K@physx@@UActorShape@ActorShapeMap@Gu@2@U?$PxHash@UActorShape@ActorShapeMap@Gu@physx@@@2@UGetKey@?$PxHashMapBase@UActorShape@ActorShapeMap@Gu@physx@@_KU?$PxHash@UActorShape@ActorShapeMap@Gu@physx@@@4@VPxAllocator@4@@2@VPxAllocator@2@$00@physx@@QEAAPEAV?$PxPair@$$CBUActorShape@ActorShapeMap@Gu@physx@@_K@2@AEBUActorShape@ActorShapeMap@Gu@2@AEA_N@Z 00000001801d9fe0 f i GuActorShapeMap.obj
 0001:001d91d0       ?eraseInternal@?$PxHashBase@V?$PxPair@$$CBUActorShape@ActorShapeMap@Gu@physx@@_K@physx@@UActorShape@ActorShapeMap@Gu@2@U?$PxHash@UActorShape@ActorShapeMap@Gu@physx@@@2@UGetKey@?$PxHashMapBase@UActorShape@ActorShapeMap@Gu@physx@@_KU?$PxHash@UActorShape@ActorShapeMap@Gu@physx@@@4@VPxAllocator@4@@2@VPxAllocator@2@$00@physx@@AEAA_NPEAI@Z 00000001801da1d0 f i GuActorShapeMap.obj
 0001:001d92e0       ?find@ActorShapeMap@Gu@physx@@QEBA_KIPEBX0@Z 00000001801da2e0 f   GuActorShapeMap.obj
 0001:001d93d0       ?remove@ActorShapeMap@Gu@physx@@QEAA_NIPEBX0PEA_K@Z 00000001801da3d0 f   GuActorShapeMap.obj
 0001:001d9510       ?reserveInternal@?$PxHashBase@V?$PxPair@$$CBUActorShape@ActorShapeMap@Gu@physx@@_K@physx@@UActorShape@ActorShapeMap@Gu@2@U?$PxHash@UActorShape@ActorShapeMap@Gu@physx@@@2@UGetKey@?$PxHashMapBase@UActorShape@ActorShapeMap@Gu@physx@@_KU?$PxHash@UActorShape@ActorShapeMap@Gu@physx@@@4@VPxAllocator@4@@2@VPxAllocator@2@$00@physx@@AEAAXI@Z 00000001801da510 f i GuActorShapeMap.obj
 0001:001d9720       ??0QuerySystem@Gu@physx@@QEAA@_KMAEBVAdapter@12@_N@Z 00000001801da720 f   GuQuerySystem.obj
 0001:001d97f0       ??1QuerySystem@Gu@physx@@QEAA@XZ 00000001801da7f0 f   GuQuerySystem.obj
 0001:001d9a10       ??_GPrunerExt@QuerySystem@Gu@physx@@QEAAPEAXI@Z 00000001801daa10 f i GuQuerySystem.obj
 0001:001d9b20       ?addPruner@QuerySystem@Gu@physx@@QEAAIPEAVPruner@23@I@Z 00000001801dab20 f   GuQuerySystem.obj
 0001:001d9c40       ?addPrunerShape@QuerySystem@Gu@physx@@QEAA_KAEBUPrunerPayload@23@I_NAEBV?$PxTransformT@M@3@PEBVPxBounds3@3@@Z 00000001801dac40 f   GuQuerySystem.obj
 0001:001d9d80       ?addToDirtyList@PrunerExt@QuerySystem@Gu@physx@@QEAAXIIAEBV?$PxTransformT@M@4@PEBVPxBounds3@4@@Z 00000001801dad80 f   GuQuerySystem.obj
 0001:001d9fd0       ?commitUpdates@QuerySystem@Gu@physx@@QEAAXXZ 00000001801dafd0 f   GuQuerySystem.obj
 0001:001da080       ?createTreeOfPruners@QuerySystem@Gu@physx@@QEAAXXZ 00000001801db080 f   GuQuerySystem.obj
 0001:001da1e0       ?flushMemory@QuerySystem@Gu@physx@@QEAAXXZ 00000001801db1e0 f   GuQuerySystem.obj
 0001:001da270       ?getPayloadData@QuerySystem@Gu@physx@@QEBAAEBUPrunerPayload@23@_KPEAUPrunerPayloadData@23@@Z 00000001801db270 f   GuQuerySystem.obj
 0001:001da290       ?growAndPushBack@?$PxArray@PEAUPrunerExt@QuerySystem@Gu@physx@@V?$PxReflectionAllocator@PEAUPrunerExt@QuerySystem@Gu@physx@@@4@@physx@@IEAAAEAPEAUPrunerExt@QuerySystem@Gu@2@AEBQEAU3452@@Z 00000001801db290 f i GuQuerySystem.obj
 0001:001da3b0       ?overlap@QuerySystem@Gu@physx@@QEBAXAEBVShapeData@23@AEAUPrunerOverlapCallback@23@PEBVPrunerFilter@23@@Z 00000001801db3b0 f   GuQuerySystem.obj
 0001:001da4b0       ?processDirtyLists@QuerySystem@Gu@physx@@AEAAXXZ 00000001801db4b0 f   GuQuerySystem.obj
 0001:001da790       ?raycast@QuerySystem@Gu@physx@@QEBAXAEBV?$PxVec3T@M@3@0AEAMAEAUPrunerRaycastCallback@23@PEBVPrunerFilter@23@@Z 00000001801db790 f   GuQuerySystem.obj
 0001:001da8d0       ?recreate@?$PxArray@UData@PrunerExt@QuerySystem@Gu@physx@@V?$PxReflectionAllocator@UData@PrunerExt@QuerySystem@Gu@physx@@@5@@physx@@IEAAXI@Z 00000001801db8d0 f i GuQuerySystem.obj
 0001:001dabc0       ?removePruner@QuerySystem@Gu@physx@@QEAAXI@Z 00000001801dbbc0 f   GuQuerySystem.obj
 0001:001dac80       ?removePrunerShape@QuerySystem@Gu@physx@@QEAAX_KPEAUPrunerPayloadRemovalCallback@23@@Z 00000001801dbc80 f   GuQuerySystem.obj
 0001:001daeb0       ?sweep@QuerySystem@Gu@physx@@QEBAXAEBVShapeData@23@AEBV?$PxVec3T@M@3@AEAMAEAUPrunerRaycastCallback@23@PEBVPrunerFilter@23@@Z 00000001801dbeb0 f   GuQuerySystem.obj
 0001:001dafe0       ?sync@QuerySystem@Gu@physx@@QEAAXIPEBI0PEBVPxBounds3@3@PEBUPxTransformPadded@3@I@Z 00000001801dbfe0 f   GuQuerySystem.obj
 0001:001db090       ?update@QuerySystem@Gu@physx@@QEAAX_N0@Z 00000001801dc090 f   GuQuerySystem.obj
 0001:001db160       ?updatePrunerShape@QuerySystem@Gu@physx@@QEAAX_K_NAEBV?$PxTransformT@M@3@PEBVPxBounds3@3@@Z 00000001801dc160 f   GuQuerySystem.obj
 0001:001db350       createAABBPruner           00000001801dc350 f   GuFactory.obj
 0001:001db410       createBucketPruner         00000001801dc410 f   GuFactory.obj
 0001:001db4a0       createIncrementalPruner    00000001801dc4a0 f   GuFactory.obj
 0001:001db530       ??$PxSmallSort@I$$CBUSortBoundsPredicate@physx@@@physx@@YAXPEAIHHAEBUSortBoundsPredicate@0@@Z 00000001801dc530 f i GuRTreeCooking.obj
 0001:001db7a0       ??$PxSort@IU?$PxLess@I@physx@@V?$PxReflectionAllocator@I@2@@physx@@YAXPEAIIAEBU?$PxLess@I@0@AEBV?$PxReflectionAllocator@I@0@I@Z 00000001801dc7a0 f i GuRTreeCooking.obj
 0001:001dbbf0       ??$PxSort@IUSortBoundsPredicate@physx@@V?$PxReflectionAllocator@I@2@@physx@@YAXPEAIIAEBUSortBoundsPredicate@0@AEBV?$PxReflectionAllocator@I@0@I@Z 00000001801dcbf0 f i GuRTreeCooking.obj
 0001:001dc0a0       ??$quickSelectFirstK@UBoundsLTE@physx@@@quickSelect@physx@@YAXPEIAIIIIAEBUBoundsLTE@1@@Z 00000001801dd0a0 f i GuRTreeCooking.obj
 0001:001dc280       ?allocate@?$PxArray@UInterval@physx@@V?$PxInlineAllocator@$0CAAA@V?$PxReflectionAllocator@UInterval@physx@@@physx@@@2@@physx@@IEAAPEAUInterval@2@IPEAI@Z 00000001801dd280 f i GuRTreeCooking.obj
 0001:001dcfd0       ?buildFromTriangles@RTreeCooker@physx@@SAXAEAURTree@Gu@2@PEBV?$PxVec3T@M@2@IPEBGPEBIIAEAV?$PxArray@IV?$PxReflectionAllocator@I@physx@@@2@PEAURemapCallback@12@MW4Enum@PxMeshCookingHint@2@@Z 00000001801ddfd0 f   GuRTreeCooking.obj
 0001:001dd250       ?copy@?$PxArray@URTreeNodeNQ@physx@@V?$PxReflectionAllocator@URTreeNodeNQ@physx@@@2@@physx@@KAXPEAURTreeNodeNQ@2@0PEBU32@@Z 00000001801de250 f i GuRTreeCooking.obj
 0001:001dd410       ?growAndPushBack@?$PxArray@UInterval@physx@@V?$PxInlineAllocator@$0CAAA@V?$PxReflectionAllocator@UInterval@physx@@@physx@@@2@@physx@@IEAAAEAUInterval@2@AEBU32@@Z 00000001801de410 f i GuRTreeCooking.obj
 0001:001dd500       ?growAndPushBack@?$PxArray@UPxBounds3V@physx@@V?$PxReflectionAllocator@UPxBounds3V@physx@@@2@@physx@@IEAAAEAUPxBounds3V@2@AEBU32@@Z 00000001801de500 f i GuRTreeCooking.obj
 0001:001dd630       ?growAndPushBack@?$PxArray@URTreeNodeNQ@physx@@V?$PxReflectionAllocator@URTreeNodeNQ@physx@@@2@@physx@@IEAAAEAURTreeNodeNQ@2@AEBU32@@Z 00000001801de630 f i GuRTreeCooking.obj
 0001:001dd770       ?growAndPushBack@?$PxArray@URTreeNodeQ@Gu@physx@@V?$PxReflectionAllocator@URTreeNodeQ@Gu@physx@@@3@@physx@@IEAAAEAURTreeNodeQ@Gu@2@AEBU342@@Z 00000001801de770 f i GuRTreeCooking.obj
 0001:001dd8b0       ?recreate@?$PxArray@UPxBounds3V@physx@@V?$PxReflectionAllocator@UPxBounds3V@physx@@@2@@physx@@IEAAXI@Z 00000001801de8b0 f i GuRTreeCooking.obj
 0001:001dd9b0       ?recreate@?$PxArray@URTreeNodeNQ@physx@@V?$PxReflectionAllocator@URTreeNodeNQ@physx@@@2@@physx@@IEAAXI@Z 00000001801de9b0 f i GuRTreeCooking.obj
 0001:001dda80       ?recreate@?$PxArray@URTreeNodeQ@Gu@physx@@V?$PxReflectionAllocator@URTreeNodeQ@Gu@physx@@@3@@physx@@IEAAXI@Z 00000001801dea80 f i GuRTreeCooking.obj
 0001:001ddb80       ?resizeUninitialized@?$PxArray@URTreeNodeNQ@physx@@V?$PxReflectionAllocator@URTreeNodeNQ@physx@@@2@@physx@@QEAAXI@Z 00000001801deb80 f i GuRTreeCooking.obj
 0001:001ddbc0       ?sort4@SubSortQuick@physx@@QEAAXPEIAIIAEAV?$PxArray@URTreeNodeNQ@physx@@V?$PxReflectionAllocator@URTreeNodeNQ@physx@@@2@@2@AEAIAEAUPxBounds3V@2@I@Z 00000001801debc0 f i GuRTreeCooking.obj
 0001:001ddf50       ?sort4@SubSortSAH@physx@@QEAAXPEAIIAEAV?$PxArray@URTreeNodeNQ@physx@@V?$PxReflectionAllocator@URTreeNodeNQ@physx@@@2@@2@AEAIIPEAURTreeNodeNQ@2@@Z 00000001801def50 f i GuRTreeCooking.obj
 0001:001de820       ?split@SubSortSAH@physx@@QEAAIPEAII@Z 00000001801df820 f i GuRTreeCooking.obj
 0001:001df2d0       cookBVH                    00000001801e02d0 f   GuCookingBVH.obj
 0001:001df460       createBVH                  00000001801e0460 f   GuCookingBVH.obj
 0001:001df5f0       cookHeightField            00000001801e05f0 f   GuCookingHF.obj
 0001:001df700       createHeightField          00000001801e0700 f   GuCookingHF.obj
 0001:001dfdb0       ?isFinite@?$PxVec3T@M@physx@@QEBA_NXZ 00000001801e0db0 f i GuCookingConvexMesh.obj
 0001:001dfe10       computeHullPolygons        00000001801e0e10 f   GuCookingConvexMesh.obj
 0001:001e0000       cookConvexMesh             00000001801e1000 f   GuCookingConvexMesh.obj
 0001:001e0170       createConvexMesh           00000001801e1170 f   GuCookingConvexMesh.obj
 0001:001e0310       validateConvexMesh         00000001801e1310 f   GuCookingConvexMesh.obj
 0001:001e0430       ??1BV4TriangleMeshBuilder@physx@@UEAA@XZ 00000001801e1430 f   GuCookingTriangleMesh.obj
 0001:001e04c0       ??1RTreeTriangleMeshBuilder@physx@@UEAA@XZ 00000001801e14c0 f   GuCookingTriangleMesh.obj
 0001:001e0530       ??_EBV4TriangleMeshBuilder@physx@@UEAAPEAXI@Z 00000001801e1530 f i GuCookingTriangleMesh.obj
 0001:001e0530       ??_GBV4TriangleMeshBuilder@physx@@UEAAPEAXI@Z 00000001801e1530 f i GuCookingTriangleMesh.obj
 0001:001e0570       ??_ERTreeTriangleMeshBuilder@physx@@UEAAPEAXI@Z 00000001801e1570 f i GuCookingTriangleMesh.obj
 0001:001e0570       ??_GRTreeTriangleMeshBuilder@physx@@UEAAPEAXI@Z 00000001801e1570 f i GuCookingTriangleMesh.obj
 0001:001e05b0       ??_ETriangleMeshBuilder@physx@@UEAAPEAXI@Z 00000001801e15b0 f i GuCookingTriangleMesh.obj
 0001:001e05b0       ??_GTriangleMeshBuilder@physx@@UEAAPEAXI@Z 00000001801e15b0 f i GuCookingTriangleMesh.obj
 0001:001e0f50       ?buildInertiaTensor@TriangleMeshBuilder@physx@@IEAAX_N@Z 00000001801e1f50 f   GuCookingTriangleMesh.obj
 0001:001e10f0       ?buildInertiaTensorFromSDF@TriangleMeshBuilder@physx@@IEAAXXZ 00000001801e20f0 f   GuCookingTriangleMesh.obj
 0001:001e1360       ?checkMeshIndicesSize@TriangleMeshBuilder@physx@@QEAAXXZ 00000001801e2360 f   GuCookingTriangleMesh.obj
 0001:001e1680       ?cleanMesh@TriangleMeshBuilder@physx@@QEAA_N_NPEAW4Enum@PxTriangleMeshCookingResult@2@@Z 00000001801e2680 f   GuCookingTriangleMesh.obj
 0001:001e1b70       ?createGRBMidPhaseAndData@TriangleMeshBuilder@physx@@QEAA_NI@Z 00000001801e2b70 f   GuCookingTriangleMesh.obj
 0001:001e1d20       ?createMidPhaseStructure@BV32TriangleMeshBuilder@physx@@SA_NAEBUPxCookingParams@2@AEAVTriangleMeshData@Gu@2@AEAVBV32Tree@52@@Z 00000001801e2d20 f   GuCookingTriangleMesh.obj
 0001:001e1f70       ?createMidPhaseStructure@BV4TriangleMeshBuilder@physx@@UEAA_NXZ 00000001801e2f70 f   GuCookingTriangleMesh.obj
 0001:001e2230       ?createMidPhaseStructure@RTreeTriangleMeshBuilder@physx@@UEAA_NXZ 00000001801e3230 f   GuCookingTriangleMesh.obj
 0001:001e2320       ?createSharedEdgeData@TriangleMeshBuilder@physx@@QEAAX_N0@Z 00000001801e3320 f   GuCookingTriangleMesh.obj
 0001:001e28c0       ?createVertMapping@TriangleMeshBuilder@physx@@QEAAXXZ 00000001801e38c0 f   GuCookingTriangleMesh.obj
 0001:001e2c30       ?importMesh@TriangleMeshBuilder@physx@@IEAA_NAEBVPxTriangleMeshDesc@2@PEAW4Enum@PxTriangleMeshCookingResult@2@_N@Z 00000001801e3c30 f   GuCookingTriangleMesh.obj
 0001:001e31c0       ?isValid@PxTriangleMeshDesc@physx@@QEBA_NXZ 00000001801e41c0 f i GuCookingTriangleMesh.obj
 0001:001e32a0       ?loadFromDescInternal@TriangleMeshBuilder@physx@@IEAA_NAEAVPxTriangleMeshDesc@2@PEAW4Enum@PxTriangleMeshCookingResult@2@_N@Z 00000001801e42a0 f   GuCookingTriangleMesh.obj
 0001:001e34c0       ?onMeshIndexFormatChange@BV4TriangleMeshBuilder@physx@@UEAAXXZ 00000001801e44c0 f   GuCookingTriangleMesh.obj
 0001:001e3500       ?remap@RTreeCookerRemap@@UEAAXPEAIII@Z 00000001801e4500 f i GuCookingTriangleMesh.obj
 0001:001e3520       ?remapTopology@TriangleMeshBuilder@physx@@QEAAXPEBI@Z 00000001801e4520 f   GuCookingTriangleMesh.obj
 0001:001e37c0       ?save@TriangleMeshBuilder@physx@@QEBA_NAEAVPxOutputStream@2@_NAEBUPxCookingParams@2@@Z 00000001801e47c0 f   GuCookingTriangleMesh.obj
 0001:001e3f80       ?saveMidPhaseStructure@BV32TriangleMeshBuilder@physx@@SAXPEAVBV32Tree@Gu@2@AEAVPxOutputStream@2@_N@Z 00000001801e4f80 f   GuCookingTriangleMesh.obj
 0001:001e4180       ?saveMidPhaseStructure@BV4TriangleMeshBuilder@physx@@UEBAXAEAVPxOutputStream@2@_N@Z 00000001801e5180 f   GuCookingTriangleMesh.obj
 0001:001e4330       ?saveMidPhaseStructure@RTreeTriangleMeshBuilder@physx@@UEBAXAEAVPxOutputStream@2@_N@Z 00000001801e5330 f   GuCookingTriangleMesh.obj
 0001:001e4570       cookTriangleMesh           00000001801e5570 f   GuCookingTriangleMesh.obj
 0001:001e4880       createTriangleMesh         00000001801e5880 f   GuCookingTriangleMesh.obj
 0001:001e4aa0       validateTriangleMesh       00000001801e5aa0 f   GuCookingTriangleMesh.obj
 0001:001e4d60       ??0DeformableVolumeCollisionData@Gu@physx@@QEAA@XZ 00000001801e5d60 f i GuCookingTetrahedronMesh.obj
 0001:001e4dc0       ??_ECollisionTetrahedronMeshData@Gu@physx@@UEAAPEAXI@Z 00000001801e5dc0 f i GuCookingTetrahedronMesh.obj
 0001:001e4dc0       ??_GCollisionTetrahedronMeshData@Gu@physx@@UEAAPEAXI@Z 00000001801e5dc0 f i GuCookingTetrahedronMesh.obj
 0001:001e4e90       ??_EPxCollisionTetrahedronMeshData@physx@@UEAAPEAXI@Z 00000001801e5e90 f i GuCookingTetrahedronMesh.obj
 0001:001e4e90       ??_GPxCollisionTetrahedronMeshData@physx@@UEAAPEAXI@Z 00000001801e5e90 f i GuCookingTetrahedronMesh.obj
 0001:001e4ee0       ??_EPxSimulationTetrahedronMeshData@physx@@UEAAPEAXI@Z 00000001801e5ee0 f i GuCookingTetrahedronMesh.obj
 0001:001e4ee0       ??_GPxSimulationTetrahedronMeshData@physx@@UEAAPEAXI@Z 00000001801e5ee0 f i GuCookingTetrahedronMesh.obj
 0001:001e4f30       ??_ESimulationTetrahedronMeshData@Gu@physx@@UEAAPEAXI@Z 00000001801e5f30 f i GuCookingTetrahedronMesh.obj
 0001:001e4f30       ??_GSimulationTetrahedronMeshData@Gu@physx@@UEAAPEAXI@Z 00000001801e5f30 f i GuCookingTetrahedronMesh.obj
 0001:001e5000       ?PointOutsideOfPlane4@Gu@physx@@YA?AV?$PxVec4T@M@2@AEBV?$PxVec3T@M@2@0000@Z 00000001801e6000 f i GuCookingTetrahedronMesh.obj
 0001:001e5470       ?combineGridModelPartitions@@YAXAEBVTetrahedronMeshData@Gu@physx@@AEAVDeformableVolumeSimulationData@23@PEAPEAI@Z 00000001801e6470 f   GuCookingTetrahedronMesh.obj
 0001:001e5cb0       ?combineGridModelPartitionsHexMesh_parallelGS@@YAXAEBVTetrahedronMeshData@Gu@physx@@AEAVDeformableVolumeSimulationData@23@PEAPEAI@Z 00000001801e6cb0 f   GuCookingTetrahedronMesh.obj
 0001:001e6080       ?computeCollisionData@TetrahedronMeshBuilder@physx@@SA_NAEBVPxTetrahedronMeshDesc@2@AEAVTetrahedronMeshData@Gu@2@AEAVDeformableVolumeCollisionData@52@AEBUPxCookingParams@2@_N@Z 00000001801e7080 f   GuCookingTetrahedronMesh.obj
 0001:001e62c0       ?computeGridModelTetrahedronPartitions@@YAPEAIAEBVTetrahedronMeshData@Gu@physx@@AEAVDeformableVolumeSimulationData@23@@Z 00000001801e72c0 f   GuCookingTetrahedronMesh.obj
 0001:001e6790       ?computeGridModelVoxelPartitions@@YAPEAIAEBVTetrahedronMeshData@Gu@physx@@AEAVDeformableVolumeSimulationData@23@@Z 00000001801e7790 f   GuCookingTetrahedronMesh.obj
 0001:001e7070       ?computeModelsMapping@TetrahedronMeshBuilder@physx@@SAXAEAVTetrahedronMeshData@Gu@2@AEBV342@AEBVDeformableVolumeCollisionData@42@AEAVCollisionMeshMappingData@42@_NPEBUPxBoundedData@2@@Z 00000001801e8070 f   GuCookingTetrahedronMesh.obj
 0001:001e7c70       ?computeRestPoseAndPointMass@@YAXPEAU?$TetrahedronT@I@Gu@physx@@IPEBV?$PxVec3T@M@3@PEAMPEAV?$PxMat33T@M@3@@Z 00000001801e8c70 f   GuCookingTetrahedronMesh.obj
 0001:001e81f0       ?computeSimData@TetrahedronMeshBuilder@physx@@SAXAEBVPxTetrahedronMeshDesc@2@AEAVTetrahedronMeshData@Gu@2@AEAVDeformableVolumeSimulationData@52@AEBUPxCookingParams@2@@Z 00000001801e91f0 f   GuCookingTetrahedronMesh.obj
 0001:001e8910       ?computeTetData@TetrahedronMeshBuilder@physx@@SAXAEBVPxTetrahedronMeshDesc@2@AEAVTetrahedronMeshData@Gu@2@@Z 00000001801e9910 f   GuCookingTetrahedronMesh.obj
 0001:001e8a00       ?computeTetrahedronPartition@@YAIPEBU?$TetrahedronT@I@Gu@physx@@IPEAII@Z 00000001801e9a00 f   GuCookingTetrahedronMesh.obj
 0001:001e8af0       ?create@?$PxHashBase@IIU?$PxHash@I@physx@@UGetKey@?$PxHashSetBase@IU?$PxHash@I@physx@@VPxAllocator@2@$0A@@2@VPxAllocator@2@$0A@@physx@@QEAAPEAIAEBIAEA_N@Z 00000001801e9af0 f i GuCookingTetrahedronMesh.obj
 0001:001e8c70       ?createCollisionModelMapping@TetrahedronMeshBuilder@physx@@SAXAEBVTetrahedronMeshData@Gu@2@AEBVDeformableVolumeCollisionData@42@AEAVCollisionMeshMappingData@42@@Z 00000001801e9c70 f   GuCookingTetrahedronMesh.obj
 0001:001e9270       ?createGRBMidPhaseAndData@TetrahedronMeshBuilder@physx@@SA_NIAEAVTetrahedronMeshData@Gu@2@AEAVDeformableVolumeCollisionData@42@AEBUPxCookingParams@2@@Z 00000001801ea270 f   GuCookingTetrahedronMesh.obj
 0001:001e9fe0       ?createMidPhaseStructure@BV32TetrahedronMeshBuilder@physx@@SA_NAEBUPxCookingParams@2@AEAVTetrahedronMeshData@Gu@2@AEAVBV32Tree@52@AEAVDeformableVolumeCollisionData@52@@Z 00000001801eafe0 f   GuCookingTetrahedronMesh.obj
 0001:001ea2b0       ?createMidPhaseStructure@TetrahedronMeshBuilder@physx@@SA_NAEAVTetrahedronMeshData@Gu@2@AEAVDeformableVolumeCollisionData@42@AEBUPxCookingParams@2@@Z 00000001801eb2b0 f   GuCookingTetrahedronMesh.obj
 0001:001ea460       ?freeListAdd@?$PxHashBase@IIU?$PxHash@I@physx@@UGetKey@?$PxHashSetBase@IU?$PxHash@I@physx@@VPxAllocator@2@$0A@@2@VPxAllocator@2@$0A@@physx@@AEAAXII@Z 00000001801eb460 f i GuCookingTetrahedronMesh.obj
 0001:001eb0c0       ?getData@CollisionTetrahedronMeshData@Gu@physx@@UEAAPEAVPxDeformableVolumeCollisionData@3@XZ 00000001801ec0c0 f i GuCookingTetrahedronMesh.obj
 0001:001eb0c0       ?getData@CollisionTetrahedronMeshData@Gu@physx@@UEBAPEBVPxDeformableVolumeCollisionData@3@XZ 00000001801ec0c0 f i GuCookingTetrahedronMesh.obj
 0001:001eb0c0       ?getData@SimulationTetrahedronMeshData@Gu@physx@@UEAAPEAVPxDeformableVolumeSimulationData@3@XZ 00000001801ec0c0 f i GuCookingTetrahedronMesh.obj
 0001:001eb0e0       ?importMesh@TetrahedronMeshBuilder@physx@@SA_NAEBVPxTetrahedronMeshDesc@2@AEBUPxCookingParams@2@AEAVTetrahedronMeshData@Gu@2@AEAVDeformableVolumeCollisionData@62@_N@Z 00000001801ec0e0 f   GuCookingTetrahedronMesh.obj
 0001:001eb3e0       ?isValid@PxTetrahedronMeshDesc@physx@@QEBA_NXZ 00000001801ec3e0 f i GuCookingTetrahedronMesh.obj
 0001:001eb460       ?loadFromDesc@TetrahedronMeshBuilder@physx@@SA_NAEBVPxTetrahedronMeshDesc@2@0VPxDeformableVolumeSimulationDataDesc@2@AEAVTetrahedronMeshData@Gu@2@AEAVDeformableVolumeSimulationData@62@2AEAVDeformableVolumeCollisionData@62@AEAVCollisionMeshMappingData@62@AEBUPxCookingParams@2@_N@Z 00000001801ec460 f   GuCookingTetrahedronMesh.obj
 0001:001eb5d0       ?recreate@?$PxArray@V?$PxArray@IV?$PxReflectionAllocator@I@physx@@@physx@@V?$PxReflectionAllocator@V?$PxArray@IV?$PxReflectionAllocator@I@physx@@@physx@@@2@@physx@@IEAAXI@Z 00000001801ec5d0 f i GuCookingTetrahedronMesh.obj
 0001:001eb6e0       ?release@CollisionTetrahedronMeshData@Gu@physx@@UEAAXXZ 00000001801ec6e0 f i GuCookingTetrahedronMesh.obj
 0001:001eb700       ?reserveInternal@?$PxHashBase@IIU?$PxHash@I@physx@@UGetKey@?$PxHashSetBase@IU?$PxHash@I@physx@@VPxAllocator@2@$0A@@2@VPxAllocator@2@$0A@@physx@@AEAAXI@Z 00000001801ec700 f i GuCookingTetrahedronMesh.obj
 0001:001eb9c0       ?reserveInternal@?$PxHashBase@V?$PxPair@$$CBVSortedTriangleInds@@I@physx@@VSortedTriangleInds@@USortedTriangleIndsHash@@UGetKey@?$PxHashMapBase@VSortedTriangleInds@@IUSortedTriangleIndsHash@@VPxAllocator@physx@@@2@VPxAllocator@2@$00@physx@@AEAAXI@Z 00000001801ec9c0 f i GuCookingTetrahedronMesh.obj
 0001:001ebc00       ?resize@?$PxArray@V?$PxArray@IV?$PxReflectionAllocator@I@physx@@@physx@@V?$PxReflectionAllocator@V?$PxArray@IV?$PxReflectionAllocator@I@physx@@@physx@@@2@@physx@@QEAAXIAEBV?$PxArray@IV?$PxReflectionAllocator@I@physx@@@2@@Z 00000001801ecc00 f i GuCookingTetrahedronMesh.obj
 0001:001ebca0       ?saveDeformableVolumeMeshData@TetrahedronMeshBuilder@physx@@SA_NAEAVPxOutputStream@2@_NAEBUPxCookingParams@2@AEBVTetrahedronMeshData@Gu@2@AEBVDeformableVolumeSimulationData@62@3AEBVDeformableVolumeCollisionData@62@AEBVCollisionMeshMappingData@62@@Z 00000001801ecca0 f   GuCookingTetrahedronMesh.obj
 0001:001ec3d0       ?saveTetrahedronMeshData@TetrahedronMeshBuilder@physx@@SA_NAEAVPxOutputStream@2@_NAEBUPxCookingParams@2@AEBVTetrahedronMeshData@Gu@2@@Z 00000001801ed3d0 f   GuCookingTetrahedronMesh.obj
 0001:001ec580       ?smoothMassRatiosWhilePreservingTotalMass@@YAXPEAMIPEBIHMM@Z 00000001801ed580 f   GuCookingTetrahedronMesh.obj
 0001:001eca20       ?support@?$LocalConvex@VTetrahedronV@Gu@physx@@@Gu@physx@@UEBA?AT__m128@@AEBT4@@Z 00000001801eda20 f i GuCookingTetrahedronMesh.obj
 0001:001ecae0       ?support@?$LocalConvex@VTetrahedronV@Gu@physx@@@Gu@physx@@UEBA?AT__m128@@AEBT4@AEAH@Z 00000001801edae0 f i GuCookingTetrahedronMesh.obj
 0001:001ecca0       assembleDeformableVolumeMesh 00000001801edca0 f   GuCookingTetrahedronMesh.obj
 0001:001ecd00       computeCollisionData       00000001801edd00 f   GuCookingTetrahedronMesh.obj
 0001:001ecf00       computeModelsMapping       00000001801edf00 f   GuCookingTetrahedronMesh.obj
 0001:001ed000       computeSimulationData      00000001801ee000 f   GuCookingTetrahedronMesh.obj
 0001:001ed1d0       cookDeformableVolumeMesh   00000001801ee1d0 f   GuCookingTetrahedronMesh.obj
 0001:001ed7e0       cookTetrahedronMesh        00000001801ee7e0 f   GuCookingTetrahedronMesh.obj
 0001:001ed8e0       createDeformableVolumeMesh 00000001801ee8e0 f   GuCookingTetrahedronMesh.obj
 0001:001edf70       createTetrahedronMesh      00000001801eef70 f   GuCookingTetrahedronMesh.obj
 0001:001efcd0       ?computeVolumeIntegrals@physx@@YA_NAEBVPxSimpleTriangleMesh@1@MAEAUPxIntegrals@1@@Z 00000001801f0cd0 f   GuCookingVolumeIntegration.obj
 0001:001efd10       ?computeVolumeIntegralsEberly@physx@@YA_NAEBVPxConvexMeshDesc@1@MAEAUPxIntegrals@1@AEBV?$PxVec3T@M@1@_N@Z 00000001801f0d10 f   GuCookingVolumeIntegration.obj
 0001:001f0370       ??0QuickHull@local@@QEAA@AEBUPxCookingParams@physx@@AEBVPxConvexMeshDesc@3@@Z 00000001801f1370 f   GuCookingQuickHullConvexHullLib.obj
 0001:001f0420       ??0QuickHullConvexHullLib@physx@@QEAA@AEBVPxConvexMeshDesc@1@AEBUPxCookingParams@1@@Z 00000001801f1420 f   GuCookingQuickHullConvexHullLib.obj
 0001:001f0500       ??1?$MemBlock@UQuickHullFace@local@@$00@local@@QEAA@XZ 00000001801f1500 f i GuCookingQuickHullConvexHullLib.obj
 0001:001f0500       ??1?$MemBlock@UQuickHullHalfEdge@local@@$0A@@local@@QEAA@XZ 00000001801f1500 f i GuCookingQuickHullConvexHullLib.obj
 0001:001f05c0       ??1QuickHull@local@@QEAA@XZ 00000001801f15c0 f   GuCookingQuickHullConvexHullLib.obj
 0001:001f0720       ??_GConvexHull@physx@@QEAAPEAXI@Z 00000001801f1720 f i GuCookingQuickHullConvexHullLib.obj
 0001:001f0810       ??_EConvexHullLib@physx@@UEAAPEAXI@Z 00000001801f1810 f i GuCookingQuickHullConvexHullLib.obj
 0001:001f0810       ??_GConvexHullLib@physx@@UEAAPEAXI@Z 00000001801f1810 f i GuCookingQuickHullConvexHullLib.obj
 0001:001f0850       ??_EQuickHullConvexHullLib@physx@@UEAAPEAXI@Z 00000001801f1850 f i GuCookingQuickHullConvexHullLib.obj
 0001:001f0850       ??_GQuickHullConvexHullLib@physx@@UEAAPEAXI@Z 00000001801f1850 f i GuCookingQuickHullConvexHullLib.obj
 0001:001f0970       ?addPointToHull@QuickHull@local@@IEAA_NPEBUQuickHullVertex@2@AEAUQuickHullFace@2@AEA_N@Z 00000001801f1970 f   GuCookingQuickHullConvexHullLib.obj
 0001:001f0c40       ?addSimplex@QuickHull@local@@IEAA_NPEAUQuickHullVertex@2@_N@Z 00000001801f1c40 f   GuCookingQuickHullConvexHullLib.obj
 0001:001f1180       ?buildHull@QuickHull@local@@QEAA?AW4Enum@QuickHullResult@2@XZ 00000001801f2180 f   GuCookingQuickHullConvexHullLib.obj
 0001:001f13d0       ?calculateHorizon@QuickHull@local@@IEAAXAEBV?$PxVec3T@M@physx@@PEAUQuickHullHalfEdge@2@AEAUQuickHullFace@2@AEAV?$PxArray@PEAUQuickHullHalfEdge@local@@V?$PxReflectionAllocator@PEAUQuickHullHalfEdge@local@@@physx@@@4@AEAV?$PxArray@PEAUQuickHullFace@local@@V?$PxReflectionAllocator@PEAUQuickHullFace@local@@@physx@@@4@@Z 00000001801f23d0 f   GuCookingQuickHullConvexHullLib.obj
 0001:001f1580       ?canMergeFaces@QuickHull@local@@IEAA_NAEBUQuickHullHalfEdge@2@@Z 00000001801f2580 f   GuCookingQuickHullConvexHullLib.obj
 0001:001f1db0       ?cleanupForSimplex@QuickHullConvexHullLib@physx@@IEAA_NPEAV?$PxVec3T@M@2@IPEAUQuickHullVertex@local@@1AEAM2@Z 00000001801f2db0 f   GuCookingQuickHullConvexHullLib.obj
 0001:001f2a00       ?computeMinMaxVerts@QuickHull@local@@IEAAXXZ 00000001801f3a00 f   GuCookingQuickHullConvexHullLib.obj
 0001:001f2dd0       ?connectHalfEdges@QuickHullFace@local@@AEAAPEAU12@PEAUQuickHullHalfEdge@2@0@Z 00000001801f3dd0 f   GuCookingQuickHullConvexHullLib.obj
 0001:001f3140       ?copy@?$PxArray@UExpandPoint@local@@V?$PxReflectionAllocator@UExpandPoint@local@@@physx@@@physx@@KAXPEAUExpandPoint@local@@0PEBU34@@Z 00000001801f4140 f i GuCookingQuickHullConvexHullLib.obj
 0001:001f33a0       ?copy@?$PxArray@VPxPlane@physx@@V?$PxReflectionAllocator@VPxPlane@physx@@@2@@physx@@KAXPEAVPxPlane@2@0PEBV32@@Z 00000001801f43a0 f i GuCookingQuickHullConvexHullLib.obj
 0001:001f34a0       ?createConvexHull@QuickHullConvexHullLib@physx@@UEAA?AW4Enum@PxConvexMeshCookingResult@2@XZ 00000001801f44a0 f   GuCookingQuickHullConvexHullLib.obj
 0001:001f38c0       ?createEdgeList@QuickHullConvexHullLib@physx@@UEAA_NIPEBEPEAPEAEPEAPEAG2@Z 00000001801f48c0 f   GuCookingQuickHullConvexHullLib.obj
 0001:001f3ae0       ?createTriangle@QuickHull@local@@IEAAPEAUQuickHullFace@2@AEBUQuickHullVertex@2@00@Z 00000001801f4ae0 f   GuCookingQuickHullConvexHullLib.obj
 0001:001f3ec0       ?doAdjacentMerge@QuickHull@local@@IEAA_NAEAUQuickHullFace@2@_NAEA_N@Z 00000001801f4ec0 f   GuCookingQuickHullConvexHullLib.obj
 0001:001f4210       ?expandHull@QuickHullConvexHullLib@physx@@IEAA?AW4Enum@PxConvexMeshCookingResult@2@XZ 00000001801f5210 f   GuCookingQuickHullConvexHullLib.obj
 0001:001f4b60       ?expandHullOBB@QuickHullConvexHullLib@physx@@IEAA?AW4Enum@PxConvexMeshCookingResult@2@XZ 00000001801f5b60 f   GuCookingQuickHullConvexHullLib.obj
 0001:001f4fb0       ?fillConvexMeshDesc@QuickHullConvexHullLib@physx@@UEAAXAEAVPxConvexMeshDesc@2@@Z 00000001801f5fb0 f   GuCookingQuickHullConvexHullLib.obj
 0001:001f5000       ?fillConvexMeshDescFromCroppedHull@QuickHullConvexHullLib@physx@@IEAAXAEAVPxConvexMeshDesc@2@@Z 00000001801f6000 f   GuCookingQuickHullConvexHullLib.obj
 0001:001f51f0       ?fillConvexMeshDescFromQuickHull@QuickHullConvexHullLib@physx@@IEAAXAEAVPxConvexMeshDesc@2@@Z 00000001801f61f0 f   GuCookingQuickHullConvexHullLib.obj
 0001:001f5580       ?findSimplex@QuickHull@local@@IEAA_NXZ 00000001801f6580 f   GuCookingQuickHullConvexHullLib.obj
 0001:001f61d0       ?getFreeItem@?$MemBlock@UQuickHullFace@local@@$00@local@@QEAAPEAUQuickHullFace@2@XZ 00000001801f71d0 f i GuCookingQuickHullConvexHullLib.obj
 0001:001f6300       ?getFreeItem@?$MemBlock@UQuickHullHalfEdge@local@@$0A@@local@@QEAAPEAUQuickHullHalfEdge@2@XZ 00000001801f7300 f i GuCookingQuickHullConvexHullLib.obj
 0001:001f63d0       ?growAndPushBack@?$PxArray@PEAUQuickHullFace@local@@V?$PxReflectionAllocator@PEAUQuickHullFace@local@@@physx@@@physx@@IEAAAEAPEAUQuickHullFace@local@@AEBQEAU34@@Z 00000001801f73d0 f i GuCookingQuickHullConvexHullLib.obj
 0001:001f64f0       ?growAndPushBack@?$PxArray@PEAUQuickHullHalfEdge@local@@V?$PxReflectionAllocator@PEAUQuickHullHalfEdge@local@@@physx@@@physx@@IEAAAEAPEAUQuickHullHalfEdge@local@@AEBQEAU34@@Z 00000001801f74f0 f i GuCookingQuickHullConvexHullLib.obj
 0001:001f6610       ?growAndPushBack@?$PxArray@PEAUQuickHullVertex@local@@V?$PxReflectionAllocator@PEAUQuickHullVertex@local@@@physx@@@physx@@IEAAAEAPEAUQuickHullVertex@local@@AEBQEAU34@@Z 00000001801f7610 f i GuCookingQuickHullConvexHullLib.obj
 0001:001f6730       ?growAndPushBack@?$PxArray@UExpandPoint@local@@V?$PxReflectionAllocator@UExpandPoint@local@@@physx@@@physx@@IEAAAEAUExpandPoint@local@@AEBU34@@Z 00000001801f7730 f i GuCookingQuickHullConvexHullLib.obj
 0001:001f68a0       ?growAndPushBack@?$PxArray@VPxPlane@physx@@V?$PxReflectionAllocator@VPxPlane@physx@@@2@@physx@@IEAAAEAVPxPlane@2@AEBV32@@Z 00000001801f78a0 f i GuCookingQuickHullConvexHullLib.obj
 0001:001f69c0       ?init@?$MemBlock@UQuickHullFace@local@@$00@local@@QEAAXI@Z 00000001801f79c0 f i GuCookingQuickHullConvexHullLib.obj
 0001:001f6ac0       ?init@?$MemBlock@UQuickHullHalfEdge@local@@$0A@@local@@QEAAXI@Z 00000001801f7ac0 f i GuCookingQuickHullConvexHullLib.obj
 0001:001f6b60       ?mergeAdjacentFace@QuickHullFace@local@@QEAA_NPEAUQuickHullHalfEdge@2@AEAV?$PxArray@PEAUQuickHullFace@local@@V?$PxReflectionAllocator@PEAUQuickHullFace@local@@@physx@@@physx@@@Z 00000001801f7b60 f   GuCookingQuickHullConvexHullLib.obj
 0001:001f6fa0       ?nextPointToAdd@QuickHull@local@@IEAAPEAUQuickHullVertex@2@AEAPEAUQuickHullFace@2@@Z 00000001801f7fa0 f   GuCookingQuickHullConvexHullLib.obj
 0001:001f7120       ?parseInputVertices@QuickHull@local@@QEAAXPEBV?$PxVec3T@M@physx@@I@Z 00000001801f8120 f   GuCookingQuickHullConvexHullLib.obj
 0001:001f72a0       ?postMergeHull@QuickHull@local@@IEAAXXZ 00000001801f82a0 f   GuCookingQuickHullConvexHullLib.obj
 0001:001f7500       ?preallocate@QuickHull@local@@QEAAXI@Z 00000001801f8500 f   GuCookingQuickHullConvexHullLib.obj
 0001:001f7640       ?recreate@?$PxArray@PEAUQuickHullFace@local@@V?$PxReflectionAllocator@PEAUQuickHullFace@local@@@physx@@@physx@@IEAAXI@Z 00000001801f8640 f i GuCookingQuickHullConvexHullLib.obj
 0001:001f7730       ?recreate@?$PxArray@PEAUQuickHullHalfEdge@local@@V?$PxReflectionAllocator@PEAUQuickHullHalfEdge@local@@@physx@@@physx@@IEAAXI@Z 00000001801f8730 f i GuCookingQuickHullConvexHullLib.obj
 0001:001f7820       ?recreate@?$PxArray@PEAUQuickHullVertex@local@@V?$PxReflectionAllocator@PEAUQuickHullVertex@local@@@physx@@@physx@@IEAAXI@Z 00000001801f8820 f i GuCookingQuickHullConvexHullLib.obj
 0001:001f7910       ?recreate@?$PxArray@UExpandPoint@local@@V?$PxReflectionAllocator@UExpandPoint@local@@@physx@@@physx@@IEAAXI@Z 00000001801f8910 f i GuCookingQuickHullConvexHullLib.obj
 0001:001f79e0       ?recreate@?$PxArray@VPxPlane@physx@@V?$PxReflectionAllocator@VPxPlane@physx@@@2@@physx@@IEAAXI@Z 00000001801f89e0 f i GuCookingQuickHullConvexHullLib.obj
 0001:001f7ab0       ?resolveUnclaimedPoints@QuickHull@local@@IEAAXAEBV?$PxArray@PEAUQuickHullFace@local@@V?$PxReflectionAllocator@PEAUQuickHullFace@local@@@physx@@@physx@@@Z 00000001801f8ab0 f   GuCookingQuickHullConvexHullLib.obj
 0001:001f7d30       ??$copy@V?$PxReflectionAllocator@VPair@@@physx@@@?$PxArray@VPair@@V?$PxReflectionAllocator@VPair@@@physx@@@physx@@IEAAXAEBV01@@Z 00000001801f8d30 f i GuCookingConvexPolygonsBuilder.obj
 0001:001f7db0       ??0ConvexPolygonsBuilder@physx@@QEAA@PEAUConvexHullData@Gu@1@_N@Z 00000001801f8db0 f   GuCookingConvexPolygonsBuilder.obj
 0001:001f7dd0       ??1ConvexPolygonsBuilder@physx@@QEAA@XZ 00000001801f8dd0 f   GuCookingConvexPolygonsBuilder.obj
 0001:001f8610       ?allocate@?$PxArray@VPair@@V?$PxReflectionAllocator@VPair@@@physx@@@physx@@IEAAPEAVPair@@IPEAI@Z 00000001801f9610 f i GuCookingConvexPolygonsBuilder.obj
 0001:001f90f0       ?computeHullPolygons@ConvexPolygonsBuilder@physx@@QEAA_NAEBIPEBV?$PxVec3T@M@2@0PEBI@Z 00000001801fa0f0 f   GuCookingConvexPolygonsBuilder.obj
 0001:001fa3c0       ?createPolygonData@ConvexPolygonsBuilder@physx@@AEAA_NXZ 00000001801fb3c0 f   GuCookingConvexPolygonsBuilder.obj
 0001:001fae20       ?createTrianglesFromPolygons@ConvexPolygonsBuilder@physx@@AEAA_NXZ 00000001801fbe20 f   GuCookingConvexPolygonsBuilder.obj
 0001:001fc4a0       ?growAndPushBack@?$PxArray@VPair@@V?$PxReflectionAllocator@VPair@@@physx@@@physx@@IEAAAEAVPair@@AEBV3@@Z 00000001801fd4a0 f i GuCookingConvexPolygonsBuilder.obj
 0001:001fc690       ??0ConvexMeshBuilder@physx@@QEAA@_N@Z 00000001801fd690 f   GuCookingConvexMeshBuilder.obj
 0001:001fc700       ??1ConvexMeshBuilder@physx@@QEAA@XZ 00000001801fd700 f   GuCookingConvexMeshBuilder.obj
 0001:001fcbc0       ?build@ConvexMeshBuilder@physx@@QEAA_NAEBVPxConvexMeshDesc@2@I_NPEAVConvexHullLib@2@@Z 00000001801fdbc0 f   GuCookingConvexMeshBuilder.obj
 0001:001fcf50       ?checkExtentRadiusRatio@ConvexMeshBuilder@physx@@QEAA_NXZ 00000001801fdf50 f   GuCookingConvexMeshBuilder.obj
 0001:001fcf80       ?computeHullPolygons@ConvexMeshBuilder@physx@@QEAA_NAEBIPEBV?$PxVec3T@M@2@0PEBIAEAVPxAllocatorCallback@2@AEAIAEAPEAV32@4AEAPEAI4AEAPEAUPxHullPolygon@2@@Z 00000001801fdf80 f   GuCookingConvexMeshBuilder.obj
 0001:001fd180       ?computeMassInfo@ConvexMeshBuilder@physx@@QEAAX_N@Z 00000001801fe180 f   GuCookingConvexMeshBuilder.obj
 0001:001fd570       ?computeSDF@ConvexMeshBuilder@physx@@QEAAXAEBVPxConvexMeshDesc@2@@Z 00000001801fe570 f   GuCookingConvexMeshBuilder.obj
 0001:001fda30       ?copy@ConvexMeshBuilder@physx@@QEAA_NAEAUConvexHullInitData@Gu@2@@Z 00000001801fea30 f   GuCookingConvexMeshBuilder.obj
 0001:001fdb90       ?loadConvexHull@ConvexMeshBuilder@physx@@QEAA_NAEBVPxConvexMeshDesc@2@PEAVConvexHullLib@2@@Z 00000001801feb90 f   GuCookingConvexMeshBuilder.obj
 0001:001fdde0       ?save@ConvexMeshBuilder@physx@@QEBA_NAEAVPxOutputStream@2@_N@Z 00000001801fede0 f   GuCookingConvexMeshBuilder.obj
 0001:001fe200       ??0ConvexHull@physx@@QEAA@AEBV?$PxVec3T@M@1@AEBV?$PxTransformT@M@1@AEBV?$PxArray@VPxPlane@physx@@V?$PxReflectionAllocator@VPxPlane@physx@@@2@@1@@Z 00000001801ff200 f   GuCookingConvexHullUtils.obj
 0001:001ff2c0       ?assertIntact@ConvexHull@physx@@QEBA_NM@Z 00000001802002c0 f   GuCookingConvexHullUtils.obj
 0001:001ff5c0       ?computeOBBFromConvex@physx@@YA_NAEBVPxConvexMeshDesc@1@AEAV?$PxVec3T@M@1@AEAV?$PxTransformT@M@1@@Z 00000001802005c0 f   GuCookingConvexHullUtils.obj
 0001:001ffc70       ?computeOBBSIMD@local@@YAXIPEBT__m128@@AEAT2@AEBT2@1@Z 0000000180200c70 f   GuCookingConvexHullUtils.obj
 0001:00200020       ?convexHullCrop@physx@@YAPEAVConvexHull@1@AEBV21@AEBVPxPlane@1@M@Z 0000000180201020 f   GuCookingConvexHullUtils.obj
 0001:00200e40       ?findCandidatePlane@ConvexHull@physx@@QEBAHMM@Z 0000000180201e40 f   GuCookingConvexHullUtils.obj
 0001:00201270       ?growAndPushBack@?$PxArray@VHalfEdge@ConvexHull@physx@@V?$PxReflectionAllocator@VHalfEdge@ConvexHull@physx@@@3@@physx@@IEAAAEAVHalfEdge@ConvexHull@2@AEBV342@@Z 0000000180202270 f i GuCookingConvexHullUtils.obj
 0001:00201390       ?maxNumVertsPerFace@ConvexHull@physx@@QEBAIXZ 0000000180202390 f   GuCookingConvexHullUtils.obj
 0001:00201400       ?recreate@?$PxArray@VHalfEdge@ConvexHull@physx@@V?$PxReflectionAllocator@VHalfEdge@ConvexHull@physx@@@3@@physx@@IEAAXI@Z 0000000180202400 f i GuCookingConvexHullUtils.obj
 0001:002014f0       ?resize@?$PxArray@VHalfEdge@ConvexHull@physx@@V?$PxReflectionAllocator@VHalfEdge@ConvexHull@physx@@@3@@physx@@QEAAXIAEBVHalfEdge@ConvexHull@2@@Z 00000001802024f0 f i GuCookingConvexHullUtils.obj
 0001:002015b0       ?resize@?$PxArray@VPxPlane@physx@@V?$PxReflectionAllocator@VPxPlane@physx@@@2@@physx@@QEAAXIAEBVPxPlane@2@@Z 00000001802025b0 f i GuCookingConvexHullUtils.obj
 0001:002016d0       ??1ConvexHullLib@physx@@UEAA@XZ 00000001802026d0 f   GuCookingConvexHullLib.obj
 0001:00201c90       ?cleanupVertices@ConvexHullLib@physx@@IEAA_NIPEBV?$PxVec3T@M@2@IAEAIPEAV32@@Z 0000000180202c90 f   GuCookingConvexHullLib.obj
 0001:00201dd0       ?shiftAndcleanupVertices@ConvexHullLib@physx@@IEAA_NIPEBV?$PxVec3T@M@2@IAEAIPEAV32@@Z 0000000180202dd0 f   GuCookingConvexHullLib.obj
 0001:002023a0       ?shiftConvexMeshDesc@ConvexHullLib@physx@@IEAAXAEAVPxConvexMeshDesc@2@@Z 00000001802033a0 f   GuCookingConvexHullLib.obj
 0001:00202460       ?swapLargestFace@ConvexHullLib@physx@@IEAAXAEAVPxConvexMeshDesc@2@@Z 0000000180203460 f   GuCookingConvexHullLib.obj
 0001:002026d0       ??0ConvexHullBuilder@physx@@QEAA@PEAUConvexHullData@Gu@1@_N@Z 00000001802036d0 f   GuCookingConvexHullBuilder.obj
 0001:00202700       ??1ConvexHullBuilder@physx@@QEAA@XZ 0000000180203700 f   GuCookingConvexHullBuilder.obj
 0001:00202810       ?calculateVertexMapTable@ConvexHullBuilder@physx@@QEAA_NI_N@Z 0000000180203810 f   GuCookingConvexHullBuilder.obj
 0001:002029d0       ?checkHullPolygons@ConvexHullBuilder@physx@@QEBA_NXZ 00000001802039d0 f   GuCookingConvexHullBuilder.obj
 0001:00203170       ?copy@ConvexHullBuilder@physx@@QEAA_NAEAUConvexHullData@Gu@2@AEAI@Z 0000000180204170 f   GuCookingConvexHullBuilder.obj
 0001:00203410       ?createEdgeList@ConvexHullBuilder@physx@@QEAA_N_NI@Z 0000000180204410 f   GuCookingConvexHullBuilder.obj
 0001:00203b60       ?init@ConvexHullBuilder@physx@@QEAA_NIPEBV?$PxVec3T@M@2@PEBIIIPEBUPxHullPolygon@2@_NPEAVConvexHullLib@2@@Z 0000000180204b60 f   GuCookingConvexHullBuilder.obj
 0001:002044d0       ?save@ConvexHullBuilder@physx@@QEBA_NAEAVPxOutputStream@2@_N@Z 00000001802054d0 f   GuCookingConvexHullBuilder.obj
 0001:00204810       ??0BigConvexDataBuilder@physx@@QEAA@PEBUConvexHullData@Gu@1@PEAVBigConvexData@1@PEBV?$PxVec3T@M@1@@Z 0000000180205810 f   GuCookingBigConvexDataBuilder.obj
 0001:00204820       ?computeValencies@BigConvexDataBuilder@physx@@QEAA_NAEBVConvexHullBuilder@2@@Z 0000000180205820 f   GuCookingBigConvexDataBuilder.obj
 0001:00204c00       ?precompute@BigConvexDataBuilder@physx@@QEAA_NI@Z 0000000180205c00 f   GuCookingBigConvexDataBuilder.obj
 0001:00205830       ?save@BigConvexDataBuilder@physx@@QEBA_NAEAVPxOutputStream@2@_N@Z 0000000180206830 f   GuCookingBigConvexDataBuilder.obj
 0001:00205d70       ?buildSDF@physx@@YA_NAEAVPxTriangleMeshDesc@1@AEAV?$PxArray@MV?$PxReflectionAllocator@M@physx@@@1@AEAV?$PxArray@EV?$PxReflectionAllocator@E@physx@@@1@AEAV?$PxArray@IV?$PxReflectionAllocator@I@physx@@@1@@Z 0000000180206d70 f   GuCookingSDF.obj
 0001:00206e10       ?recreate@?$PxArray@EV?$PxReflectionAllocator@E@physx@@@physx@@IEAAXI@Z 0000000180207e10 f i GuCookingSDF.obj
 0001:00206f00       ?resize@?$PxArray@EV?$PxReflectionAllocator@E@physx@@@physx@@QEAAXIAEBE@Z 0000000180207f00 f i GuCookingSDF.obj
 0001:00206fba       __tailMerge_physxfoundation_64_dll 0000000180207fba     PhysXFoundation_64:PhysXFoundation_64.dll
 0001:00207033       __imp_load_PxGetFoundation 0000000180208033 f   PhysXFoundation_64:PhysXFoundation_64.dll
 0001:0020703f       __imp_load_PxGetBroadcastAllocator 000000018020803f f   PhysXFoundation_64:PhysXFoundation_64.dll
 0001:0020704b       __imp_load_?PxAtomicIncrement@physx@@YAHPECH@Z 000000018020804b f   PhysXFoundation_64:PhysXFoundation_64.dll
 0001:00207057       __imp_load_??0PxMutexImpl@physx@@QEAA@XZ 0000000180208057 f   PhysXFoundation_64:PhysXFoundation_64.dll
 0001:00207063       __imp_load_??1PxMutexImpl@physx@@QEAA@XZ 0000000180208063 f   PhysXFoundation_64:PhysXFoundation_64.dll
 0001:0020706f       __imp_load_?lock@PxMutexImpl@physx@@QEAAXXZ 000000018020806f f   PhysXFoundation_64:PhysXFoundation_64.dll
 0001:0020707b       __imp_load_?unlock@PxMutexImpl@physx@@QEAAXXZ 000000018020807b f   PhysXFoundation_64:PhysXFoundation_64.dll
 0001:00207087       __imp_load_?getSize@PxMutexImpl@physx@@SAIXZ 0000000180208087 f   PhysXFoundation_64:PhysXFoundation_64.dll
 0001:00207093       __imp_load_?PxTransformFromSegment@physx@@YA?AV?$PxTransformT@M@1@AEBV?$PxVec3T@M@1@0PEAM@Z 0000000180208093 f   PhysXFoundation_64:PhysXFoundation_64.dll
 0001:0020709f       __imp_load_?PxAtomicAdd@physx@@YAHPECHH@Z 000000018020809f f   PhysXFoundation_64:PhysXFoundation_64.dll
 0001:002070ab       __imp_load_?getDefaultStackSize@PxThreadImpl@physx@@SAIXZ 00000001802080ab f   PhysXFoundation_64:PhysXFoundation_64.dll
 0001:002070b7       __imp_load_??0PxThreadImpl@physx@@QEAA@P6APEAXPEAX@Z0PEBD@Z 00000001802080b7 f   PhysXFoundation_64:PhysXFoundation_64.dll
 0001:002070c3       __imp_load_??1PxThreadImpl@physx@@QEAA@XZ 00000001802080c3 f   PhysXFoundation_64:PhysXFoundation_64.dll
 0001:002070cf       __imp_load_?start@PxThreadImpl@physx@@QEAAXIPEAVPxRunnable@2@@Z 00000001802080cf f   PhysXFoundation_64:PhysXFoundation_64.dll
 0001:002070db       __imp_load_?waitForQuit@PxThreadImpl@physx@@QEAA_NXZ 00000001802080db f   PhysXFoundation_64:PhysXFoundation_64.dll
 0001:002070e7       __imp_load_?getSize@PxThreadImpl@physx@@SAIXZ 00000001802080e7 f   PhysXFoundation_64:PhysXFoundation_64.dll
 0001:002070f3       __imp_load_?allocate@PxTempAllocator@physx@@QEAAPEAX_KPEBDH@Z 00000001802080f3 f   PhysXFoundation_64:PhysXFoundation_64.dll
 0001:002070ff       __imp_load_?deallocate@PxTempAllocator@physx@@QEAAXPEAX@Z 00000001802080ff f   PhysXFoundation_64:PhysXFoundation_64.dll
 0001:0020710b       __imp_load_?PxOptimizeBoundingBox@physx@@YA?AV?$PxVec3T@M@1@AEAV?$PxMat33T@M@1@@Z 000000018020810b f   PhysXFoundation_64:PhysXFoundation_64.dll
 0001:00207117       __imp_load_?Pxstrcmp@physx@@YAHPEBD0@Z 0000000180208117 f   PhysXFoundation_64:PhysXFoundation_64.dll
 0001:00207123       __imp_load_?PxAtomicDecrement@physx@@YAHPECH@Z 0000000180208123 f   PhysXFoundation_64:PhysXFoundation_64.dll
 0001:0020712f       __imp_load_??0PxFPUGuard@physx@@QEAA@XZ 000000018020812f f   PhysXFoundation_64:PhysXFoundation_64.dll
 0001:0020713b       __imp_load_??1PxFPUGuard@physx@@QEAA@XZ 000000018020813b f   PhysXFoundation_64:PhysXFoundation_64.dll
 0001:00207147       __imp_load_?PxDiagonalize@physx@@YA?AV?$PxVec3T@M@1@AEBV?$PxMat33T@M@1@AEAV?$PxQuatT@M@1@@Z 0000000180208147 f   PhysXFoundation_64:PhysXFoundation_64.dll
 0001:00207240       ?DloadAcquireSectionWriteAccess@@YAXXZ 0000000180208240 f i Delayimp:delayhlp.obj
 0001:002072fc       ?DloadGetSRWLockFunctionPointers@@YAEXZ 00000001802082fc f i Delayimp:delayhlp.obj
 0001:0020739c       ?DloadMakePermanentImageCommit@@YAXPEAX_K@Z 000000018020839c f i Delayimp:delayhlp.obj
 0001:00207434       ?DloadObtainSection@@YAPEAXPEAK0@Z 0000000180208434 f i Delayimp:delayhlp.obj
 0001:002074d0       ?DloadProtectSection@@YAXPEAX_KKPEAK@Z 00000001802084d0 f i Delayimp:delayhlp.obj
 0001:002075c8       ?DloadReleaseSectionWriteAccess@@YAXXZ 00000001802085c8 f i Delayimp:delayhlp.obj
 0001:00207674       __delayLoadHelper2         0000000180208674 f   Delayimp:delayhlp.obj
 0001:00207970       ??3@YAXPEAX_K@Z            0000000180208970 f   LIBCMT:delete_scalar_size.obj
 0001:00207970       ??_V@YAXPEAX@Z             0000000180208970 f   LIBCMT:delete_array.obj
 0001:00207978       ??_Etype_info@@UEAAPEAXI@Z 0000000180208978 f i LIBCMT:std_type_info_static.obj
 0001:00207978       ??_Gtype_info@@UEAAPEAXI@Z 0000000180208978 f i LIBCMT:std_type_info_static.obj
 0001:002079a4       ?__scrt_initialize_type_info@@YAXXZ 00000001802089a4 f   LIBCMT:tncleanup.obj
 0001:002079b4       ?__scrt_uninitialize_type_info@@YAXXZ 00000001802089b4 f   LIBCMT:tncleanup.obj
 0001:002079d0       __chkstk                   00000001802089d0 f   LIBCMT:chkstk.obj
 0001:002079d0       _alloca_probe              00000001802089d0 f   LIBCMT:chkstk.obj
 0001:00207a20       __vdecl_sinf4              0000000180208a20 f   LIBCMT:svml_ssinf4_dispatch.obj
 0001:00207a40       __libm_sse2_sincosf_       0000000180208a40 f   LIBCMT:svml_ssinf4_dispatch.obj
 0001:00207a83       __libm_sse2_sincosf4_      0000000180208a83 f   LIBCMT:svml_ssinf4_dispatch.obj
 0001:00207a90       ??3@YAXPEAX@Z              0000000180208a90 f   LIBCMT:delete_scalar.obj
 0001:00207a98       __scrt_acquire_startup_lock 0000000180208a98 f   LIBCMT:utility.obj
 0001:00207ad4       __scrt_dllmain_after_initialize_c 0000000180208ad4 f   LIBCMT:utility.obj
 0001:00207b08       __scrt_dllmain_before_initialize_c 0000000180208b08 f   LIBCMT:utility.obj
 0001:00207b20       __scrt_dllmain_crt_thread_attach 0000000180208b20 f   LIBCMT:utility.obj
 0001:00207b48       __scrt_dllmain_crt_thread_detach 0000000180208b48 f   LIBCMT:utility.obj
 0001:00207b60       __scrt_dllmain_exception_filter 0000000180208b60 f   LIBCMT:utility.obj
 0001:00207bc0       __scrt_dllmain_uninitialize_c 0000000180208bc0 f   LIBCMT:utility.obj
 0001:00207bf0       __scrt_dllmain_uninitialize_critical 0000000180208bf0 f   LIBCMT:utility.obj
 0001:00207c04       __scrt_initialize_crt      0000000180208c04 f   LIBCMT:utility.obj
 0001:00207c40       __scrt_initialize_onexit_tables 0000000180208c40 f   LIBCMT:utility.obj
 0001:00207ccc       __scrt_is_nonwritable_in_current_image 0000000180208ccc f   LIBCMT:utility.obj
 0001:00207d64       __scrt_release_startup_lock 0000000180208d64 f   LIBCMT:utility.obj
 0001:00207d88       __scrt_uninitialize_crt    0000000180208d88 f   LIBCMT:utility.obj
 0001:00207db4       _onexit                    0000000180208db4 f   LIBCMT:utility.obj
 0001:00207df0       atexit                     0000000180208df0 f   LIBCMT:utility.obj
 0001:00207e08       __isa_available_init       0000000180208e08 f   LIBCMT:cpu_disp.obj
 0001:002083e4       _DllMainCRTStartup         00000001802093e4 f   LIBCMT:dll_dllmain.obj
 0001:00208430       __sse2_sinf4@@16           0000000180209430 f   LIBCMT:svml_ssinf4_sse2.obj
 0001:00208d70       __sse4_sinf4@@16           0000000180209d70 f   LIBCMT:svml_ssinf4_sse4.obj
 0001:002094e4       __scrt_is_ucrt_dll_in_use  000000018020a4e4 f   LIBCMT:ucrt_detection.obj
 0001:002094f0       __crt_debugger_hook        000000018020a4f0 f   LIBCMT:utility_desktop.obj
 0001:002094f8       __scrt_fastfail            000000018020a4f8 f   LIBCMT:utility_desktop.obj
 0001:00209640       __security_init_cookie     000000018020a640 f   LIBCMT:gs_support.obj
 0001:002096ec       __local_stdio_scanf_options 000000018020a6ec f i LIBCMT:default_local_stdio_options.obj
 0001:002096f4       __scrt_initialize_default_local_stdio_options 000000018020a6f4 f   LIBCMT:default_local_stdio_options.obj
 0001:00209710       __scrt_get_dyn_tls_init_callback 000000018020a710 f   LIBCMT:dyn_tls_init.obj
 0001:00209718       _RTC_Initialize            000000018020a718 f   LIBCMT:initsect.obj
 0001:00209754       _RTC_Terminate             000000018020a754 f   LIBCMT:initsect.obj
 0001:00209790       __common_ssin_cout_rare    000000018020a790 f   LIBCMT:svml_s_sin_cout.obj
 0001:00209800       _get_purecall_handler      000000018020a800 f   libvcruntime:purevirt.obj
 0001:0020980c       _purecall                  000000018020a80c f   libvcruntime:purevirt.obj
 0001:00209830       __std_type_info_compare    000000018020a830 f   libvcruntime:std_type_info.obj
 0001:00209858       __std_type_info_destroy_list 000000018020a858 f   libvcruntime:std_type_info.obj
 0001:00209884       __std_type_info_name       000000018020a884 f   libvcruntime:std_type_info.obj
 0001:002099a0       strstr                     000000018020a9a0 f   libvcruntime:strstr.obj
 0001:00209b90       __vcrt_initialize          000000018020ab90 f   libvcruntime:initialization.obj
 0001:00209bb8       __vcrt_thread_attach       000000018020abb8 f   libvcruntime:initialization.obj
 0001:00209bcc       __vcrt_thread_detach       000000018020abcc f   libvcruntime:initialization.obj
 0001:00209bdc       __vcrt_uninitialize        000000018020abdc f   libvcruntime:initialization.obj
 0001:00209bf8       __vcrt_uninitialize_critical 000000018020abf8 f   libvcruntime:initialization.obj
 0001:00209c08       __C_specific_handler       000000018020ac08 f   libvcruntime:riscchandler.obj
 0001:00209e20       __DestructExceptionObject  000000018020ae20 f   libvcruntime:ehhelpers.obj
 0001:00209e90       ?_CallMemberFunction0@@YAXQEAX0@Z 000000018020ae90 f i libvcruntime:ehhelpers.obj
 0001:00209e94       _IsExceptionObjectToBeDestroyed 000000018020ae94 f   libvcruntime:ehhelpers.obj
 0001:00209ec4       __AdjustPointer            000000018020aec4 f   libvcruntime:ehhelpers.obj
 0001:00209ee8       __FrameUnwindFilter        000000018020aee8 f   libvcruntime:ehhelpers.obj
 0001:00209f50       __std_terminate            000000018020af50 f   libvcruntime:ehhelpers.obj
 0001:00209f5c       ??$?0$00@DName@@QEAA@PEBDU?$StringLifeSelector@$00@@@Z 000000018020af5c f i libvcruntime:undname.obj
 0001:00209f9c       ??$?0$01@DName@@QEAA@PEBDU?$StringLifeSelector@$01@@@Z 000000018020af9c f i libvcruntime:undname.obj
 0001:00209f9c       ??$?0$0A@@DName@@QEAA@PEBDU?$StringLifeSelector@$0A@@@@Z 000000018020af9c f i libvcruntime:undname.obj
 0001:00209fdc       ??$?0$01@pcharNode@@QEAA@PEBDHU?$StringLifeSelector@$01@@@Z 000000018020afdc f i libvcruntime:undname.obj
 0001:00209fdc       ??$?0$0A@@pcharNode@@QEAA@PEBDHU?$StringLifeSelector@$0A@@@@Z 000000018020afdc f i libvcruntime:undname.obj
 0001:0020a050       ??$append@VDNameNode@@@DName@@AEAAXPEBVDNameNode@@@Z 000000018020b050 f i libvcruntime:undname.obj
 0001:0020a050       ??$append@VDNameStatusNode@@@DName@@AEAAXPEBVDNameStatusNode@@@Z 000000018020b050 f i libvcruntime:undname.obj
 0001:0020a050       ??$append@VcharNode@@@DName@@AEAAXPEBVcharNode@@@Z 000000018020b050 f i libvcruntime:undname.obj
 0001:0020a050       ??$append@VpcharNode@@@DName@@AEAAXPEBVpcharNode@@@Z 000000018020b050 f i libvcruntime:undname.obj
 0001:0020a0b4       ??$doPchar@$00@DName@@AEAAXPEBDH@Z 000000018020b0b4 f i libvcruntime:undname.obj
 0001:0020a14c       ??$doPchar@$01@DName@@AEAAXPEBDH@Z 000000018020b14c f i libvcruntime:undname.obj
 0001:0020a14c       ??$doPchar@$0A@@DName@@AEAAXPEBDH@Z 000000018020b14c f i libvcruntime:undname.obj
 0001:0020a1e4       ??0DName@@QEAA@AEAPEBDD@Z  000000018020b1e4 f   libvcruntime:undname.obj
 0001:0020a298       ??0DName@@QEAA@AEBUStringLiteral@@@Z 000000018020b298 f   libvcruntime:undname.obj
 0001:0020a2c4       ??0DName@@QEAA@PEAV0@@Z    000000018020b2c4 f   libvcruntime:undname.obj
 0001:0020a348       ??0DName@@QEAA@_J@Z        000000018020b348 f   libvcruntime:undname.obj
 0001:0020a3ec       ??0DName@@QEAA@_K@Z        000000018020b3ec f   libvcruntime:undname.obj
 0001:0020a474       ??0UnDecorator@@QEAA@PEBDP6APEADJ@ZK@Z 000000018020b474 f i libvcruntime:undname.obj
 0001:0020a528       ??2@YAPEAX_KAEAV_HeapManager@@H@Z 000000018020b528 f   libvcruntime:undname.obj
 0001:0020a554       ??AReplicator@@QEBA?AVDName@@H@Z 000000018020b554 f   libvcruntime:undname.obj
 0001:0020a594       ??HDName@@QEBA?AV0@AEBUStringLiteral@@@Z 000000018020b594 f   libvcruntime:undname.obj
 0001:0020a5c0       ??HDName@@QEBA?AV0@AEBV0@@Z 000000018020b5c0 f   libvcruntime:undname.obj
 0001:0020a5ec       ??HDName@@QEBA?AV0@D@Z     000000018020b5ec f   libvcruntime:undname.obj
 0001:0020a618       ??HDName@@QEBA?AV0@W4DNameStatus@@@Z 000000018020b618 f   libvcruntime:undname.obj
 0001:0020a644       ??YDName@@QEAAAEAV0@AEBUStringLiteral@@@Z 000000018020b644 f   libvcruntime:undname.obj
 0001:0020a6c4       ??YDName@@QEAAAEAV0@AEBV0@@Z 000000018020b6c4 f   libvcruntime:undname.obj
 0001:0020a778       ??YDName@@QEAAAEAV0@D@Z    000000018020b778 f   libvcruntime:undname.obj
 0001:0020a7e4       ??YDName@@QEAAAEAV0@W4DNameStatus@@@Z 000000018020b7e4 f   libvcruntime:undname.obj
 0001:0020a850       ??YReplicator@@QEAAAEAV0@AEBVDName@@@Z 000000018020b850 f   libvcruntime:undname.obj
 0001:0020a8a8       ?UScore@UnDecorator@@SA?AUStringLiteral@@W4Tokens@@@Z 000000018020b8a8 f   libvcruntime:undname.obj
 0001:0020a8f4       ?composeDeclaration@UnDecorator@@CA?AVDName@@AEBV2@@Z 000000018020b8f4 f i libvcruntime:undname.obj
 0001:0020b8b0       ?doPchar@DName@@AEAAXD@Z   000000018020c8b0 f   libvcruntime:undname.obj
 0001:0020b900       ?getAddressOf@UnDecorator@@CA?AVDName@@XZ 000000018020c900 f   libvcruntime:undname.obj
 0001:0020b990       ?getArgumentList@UnDecorator@@CA?AVDName@@XZ 000000018020c990 f   libvcruntime:undname.obj
 0001:0020bb24       ?getArgumentTypes@UnDecorator@@CA?AVDName@@XZ 000000018020cb24 f   libvcruntime:undname.obj
 0001:0020bc70       ?getArrayAccess@UnDecorator@@CA?AVDName@@XZ 000000018020cc70 f   libvcruntime:undname.obj
 0001:0020bd0c       ?getArrayObject@UnDecorator@@CA?AVDName@@XZ 000000018020cd0c f   libvcruntime:undname.obj
 0001:0020bddc       ?getArrayType@UnDecorator@@CA?AVDName@@AEBV2@@Z 000000018020cddc f i libvcruntime:undname.obj
 0001:0020c038       ?getBasedType@UnDecorator@@CA?AVDName@@XZ 000000018020d038 f   libvcruntime:undname.obj
 0001:0020c130       ?getBasicDataType@UnDecorator@@CA?AVDName@@AEBV2@@Z 000000018020d130 f   libvcruntime:undname.obj
 0001:0020c734       ?getCallingConvention@UnDecorator@@CA?AVDName@@XZ 000000018020d734 f   libvcruntime:undname.obj
 0001:0020c854       ?getDataIndirectType@UnDecorator@@CA?AVDName@@AEBV2@W4IndirectionKind@@0H@Z 000000018020d854 f   libvcruntime:undname.obj
 0001:0020d308       ?getDataType@UnDecorator@@CA?AVDName@@PEAV2@@Z 000000018020e308 f   libvcruntime:undname.obj
 0001:0020d41c       ?getDecoratedName@UnDecorator@@CA?AVDName@@XZ 000000018020e41c f   libvcruntime:undname.obj
 0001:0020d704       ?getDimension@UnDecorator@@CA?AVDName@@_N@Z 000000018020e704 f   libvcruntime:undname.obj
 0001:0020d84c       ?getDispatchTarget@UnDecorator@@CA?AVDName@@XZ 000000018020e84c f   libvcruntime:undname.obj
 0001:0020d8ac       ?getECSUDataType@UnDecorator@@CA?AVDName@@XZ 000000018020e8ac f   libvcruntime:undname.obj
 0001:0020daa8       ?getEnumType@UnDecorator@@CA?AVDName@@XZ 000000018020eaa8 f i libvcruntime:undname.obj
 0001:0020dbd0       ?getExtendedDataIndirectType@UnDecorator@@CA?AVDName@@AEAW4IndirectionKind@@AEA_NH@Z 000000018020ebd0 f   libvcruntime:undname.obj
 0001:0020de40       ?getExternalDataType@UnDecorator@@CA?AVDName@@AEBV2@@Z 000000018020ee40 f i libvcruntime:undname.obj
 0001:0020df00       ?getFloatingPoint@UnDecorator@@CA?AVDName@@H@Z 000000018020ef00 f   libvcruntime:undname.obj
 0001:0020e068       ?getFunctionIndirectType@UnDecorator@@CA?AVDName@@AEBV2@@Z 000000018020f068 f   libvcruntime:undname.obj
 0001:0020e59c       ?getLastChar@DNameStatusNode@@UEBADXZ 000000018020f59c f i libvcruntime:undname.obj
 0001:0020e5a8       ?getLastChar@charNode@@UEBADXZ 000000018020f5a8 f i libvcruntime:undname.obj
 0001:0020e5ac       ?getLastChar@pDNameNode@@UEBADXZ 000000018020f5ac f i libvcruntime:undname.obj
 0001:0020e5d8       ?getLastChar@pairNode@@UEBADXZ 000000018020f5d8 f i libvcruntime:undname.obj
 0001:0020e610       ?getLastChar@pcharNode@@UEBADXZ 000000018020f610 f i libvcruntime:undname.obj
 0001:0020e624       ?getLexicalFrame@UnDecorator@@CA?AVDName@@XZ 000000018020f624 f i libvcruntime:undname.obj
 0001:0020e688       ?getMemberAccess@UnDecorator@@CA?AVDName@@XZ 000000018020f688 f   libvcruntime:undname.obj
 0001:0020e71c       ?getMemoryWithBuffer@_HeapManager@@QEAAPEAX_K@Z 000000018020f71c f   libvcruntime:undname.obj
 0001:0020e7ac       ?getNoexcept@UnDecorator@@CA?AVDName@@XZ 000000018020f7ac f   libvcruntime:undname.obj
 0001:0020e810       ?getNumberOfDimensions@UnDecorator@@CAHXZ 000000018020f810 f   libvcruntime:undname.obj
 0001:0020e86c       ?getOperatorName@UnDecorator@@CA?AVDName@@_NPEA_N@Z 000000018020f86c f i libvcruntime:undname.obj
 0001:0020f208       ?getPointerToMember@UnDecorator@@CA?AVDName@@XZ 0000000180210208 f   libvcruntime:undname.obj
 0001:0020f300       ?getPrimaryDataType@UnDecorator@@CA?AVDName@@AEBV2@@Z 0000000180210300 f   libvcruntime:undname.obj
 0001:0020f5b8       ?getPtrRefDataType@UnDecorator@@CA?AVDName@@AEBV2@H@Z 00000001802105b8 f   libvcruntime:undname.obj
 0001:0020f784       ?getPtrRefType@UnDecorator@@CA?AVDName@@AEBV2@0W4IndirectionKind@@@Z 0000000180210784 f   libvcruntime:undname.obj
 0001:0020f96c       ?getRestrictionSpec@UnDecorator@@CA?AVDName@@XZ 000000018021096c f   libvcruntime:undname.obj
 0001:0020fb48       ?getReturnType@UnDecorator@@CA?AVDName@@PEAV2@@Z 0000000180210b48 f   libvcruntime:undname.obj
 0001:0020fb7c       ?getScope@UnDecorator@@CA?AVDName@@XZ 0000000180210b7c f   libvcruntime:undname.obj
 0001:00210034       ?getScopedName@UnDecorator@@CA?AVDName@@XZ 0000000180211034 f   libvcruntime:undname.obj
 0001:00210174       ?getSignedDimension@UnDecorator@@CA?AVDName@@XZ 0000000180211174 f   libvcruntime:undname.obj
 0001:002101fc       ?getString@DNameStatusNode@@UEBAPEADPEAD0@Z 00000001802111fc f i libvcruntime:undname.obj
 0001:00210244       ?getString@charNode@@UEBAPEADPEAD0@Z 0000000180211244 f i libvcruntime:undname.obj
 0001:00210258       ?getString@pDNameNode@@UEBAPEADPEAD0@Z 0000000180211258 f i libvcruntime:undname.obj
 0001:00210288       ?getString@pairNode@@UEBAPEADPEAD0@Z 0000000180211288 f i libvcruntime:undname.obj
 0001:002102d4       ?getString@pcharNode@@UEBAPEADPEAD0@Z 00000001802112d4 f i libvcruntime:undname.obj
 0001:0021030c       ?getStringEncoding@UnDecorator@@CA?AVDName@@W4PrefixKind@@H@Z 000000018021130c f   libvcruntime:undname.obj
 0001:0021041c       ?getStringObject@UnDecorator@@CA?AVDName@@XZ 000000018021141c f   libvcruntime:undname.obj
 0001:002104ac       ?getSymbolName@UnDecorator@@CA?AVDName@@XZ 00000001802114ac f i libvcruntime:undname.obj
 0001:002104f8       ?getTemplateArgumentList@UnDecorator@@CA?AVDName@@XZ 00000001802114f8 f   libvcruntime:undname.obj
 0001:00210718       ?getTemplateName@UnDecorator@@CA?AVDName@@_N@Z 0000000180211718 f   libvcruntime:undname.obj
 0001:002109c8       ?getTemplateNonTypeArgument@UnDecorator@@CA?AVDName@@XZ 00000001802119c8 f   libvcruntime:undname.obj
 0001:00210f18       ?getTemplateTypeArgument@UnDecorator@@CA?AVDName@@XZ 0000000180211f18 f   libvcruntime:undname.obj
 0001:00211080       ?getThrowTypes@UnDecorator@@CA?AVDName@@XZ 0000000180212080 f   libvcruntime:undname.obj
 0001:002110a4       ?getTypeEncoding@UnDecorator@@CAHXZ 00000001802120a4 f i libvcruntime:undname.obj
 0001:0021145c       ?getUndecoratedName@UnDecorator@@QEAAPEADPEADH@Z 000000018021245c f i libvcruntime:undname.obj
 0001:002115bc       ?getUnionObject@UnDecorator@@CA?AVDName@@XZ 00000001802125bc f   libvcruntime:undname.obj
 0001:00211694       ?getVCallThunkType@UnDecorator@@CA?AVDName@@XZ 0000000180212694 f i libvcruntime:undname.obj
 0001:0021170c       ?getValue@UnDecorator@@CA?AV?$optional@_K@std@@XZ 000000018021270c f   libvcruntime:undname.obj
 0001:00211750       ?getValueObject@UnDecorator@@CA?AVDName@@XZ 0000000180212750 f   libvcruntime:undname.obj
 0001:002118d4       ?getVdispMapType@UnDecorator@@CA?AVDName@@AEBV2@@Z 00000001802128d4 f i libvcruntime:undname.obj
 0001:00211950       ?getVfTableType@UnDecorator@@CA?AVDName@@AEBV2@@Z 0000000180212950 f i libvcruntime:undname.obj
 0001:00211b5c       ?getZName@UnDecorator@@CA?AVDName@@_N0@Z 0000000180212b5c f   libvcruntime:undname.obj
 0001:00211e34       ?length@pDNameNode@@UEBAHXZ 0000000180212e34 f i libvcruntime:undname.obj
 0001:00211e5c       ?length@pairNode@@UEBAHXZ  0000000180212e5c f i libvcruntime:undname.obj
 0001:00211ea4       ?make@DNameStatusNode@@SAPEBV1@W4DNameStatus@@@Z 0000000180212ea4 f i libvcruntime:undname.obj
 0001:00211ec4       ?parseDecoratedName@UnDecorator@@CA?AVDName@@XZ 0000000180212ec4 f   libvcruntime:undname.obj
 0001:00211fdc       ?raw_length@pDNameNode@@UEBAHXZ 0000000180212fdc f i libvcruntime:undname.obj
 0001:00211fe0       ?raw_length@pairNode@@UEBAHXZ 0000000180212fe0 f i libvcruntime:undname.obj
 0001:00211fe4       __unDName                  0000000180212fe4 f   libvcruntime:undname.obj
 0001:0021200c       __unDNameEx                000000018021300c f   libvcruntime:undname.obj
 0001:002120fc       snprintf                   00000001802130fc f i libvcruntime:undname.obj
 0001:00212154       sprintf_s                  0000000180213154 f i libvcruntime:undname.obj
 0001:002121a8       __vcrt_freefls             00000001802131a8 f   libvcruntime:per_thread_data.obj
 0001:002121c8       __vcrt_freeptd_for_this_thread 00000001802131c8 f   libvcruntime:per_thread_data.obj
 0001:00212210       __vcrt_getptd              0000000180213210 f   libvcruntime:per_thread_data.obj
 0001:0021222c       __vcrt_getptd_noexit       000000018021322c f   libvcruntime:per_thread_data.obj
 0001:002122ec       __vcrt_initialize_ptd      00000001802132ec f   libvcruntime:per_thread_data.obj
 0001:00212334       __vcrt_uninitialize_ptd    0000000180213334 f   libvcruntime:per_thread_data.obj
 0001:00212358       __vcrt_initialize_locks    0000000180213358 f   libvcruntime:locks.obj
 0001:002123a0       __vcrt_lock                00000001802133a0 f   libvcruntime:locks.obj
 0001:002123bc       __vcrt_uninitialize_locks  00000001802133bc f   libvcruntime:locks.obj
 0001:002123f4       __vcrt_unlock              00000001802133f4 f   libvcruntime:locks.obj
 0001:00212440       _NLG_Notify                0000000180213440 f   libvcruntime:notify.obj
 0001:00212460       __NLG_Dispatch2            0000000180213460 f   libvcruntime:notify.obj
 0001:00212470       __NLG_Return2              0000000180213470 f   libvcruntime:notify.obj
 0001:00212474       __except_validate_context_record 0000000180213474 f   libvcruntime:jbcxrval.obj
 0001:002124ac       ??$_CallSETranslator@V__FrameHandler3@@@@YAHPEAUEHExceptionRecord@@PEA_KPEAU_CONTEXT@@PEAU_xDISPATCHER_CONTEXT@@PEBU_s_FuncInfo@@K1H@Z 00000001802134ac f i libvcruntime:risctrnsctrl.obj
 0001:00212500       ??$_CallSETranslator@V__FrameHandler4@@@@YAHPEAUEHExceptionRecord@@PEA_KPEAU_CONTEXT@@PEAU_xDISPATCHER_CONTEXT@@PEAUFuncInfo4@FH4@@K1H@Z 0000000180213500 f i libvcruntime:risctrnsctrl.obj
 0001:00212554       ?CatchTryBlock@__FrameHandler3@@SAPEBU_s_TryBlockMapEntry@@PEBU_s_FuncInfo@@H@Z 0000000180213554 f   libvcruntime:risctrnsctrl.obj
 0001:002125b8       ?DecompFuncInfo@FH4@@YA_JPEAEAEAUFuncInfo4@1@_KH_N@Z 00000001802135b8 f i libvcruntime:risctrnsctrl.obj
 0001:002126f0       ?ExecutionInCatch@__FrameHandler3@@SA_NPEAU_xDISPATCHER_CONTEXT@@PEBU_s_FuncInfo@@@Z 00000001802136f0 f   libvcruntime:risctrnsctrl.obj
 0001:0021271c       ?ExecutionInCatch@__FrameHandler4@@SA_NPEAU_xDISPATCHER_CONTEXT@@PEAUFuncInfo4@FH4@@@Z 000000018021371c f   libvcruntime:risctrnsctrl.obj
 0001:00212724       ?FrameUnwindToEmptyState@__FrameHandler3@@SAXPEA_KPEAU_xDISPATCHER_CONTEXT@@PEBU_s_FuncInfo@@@Z 0000000180213724 f   libvcruntime:risctrnsctrl.obj
 0001:00212788       ?FrameUnwindToEmptyState@__FrameHandler4@@SAXPEA_KPEAU_xDISPATCHER_CONTEXT@@PEAUFuncInfo4@FH4@@@Z 0000000180213788 f   libvcruntime:risctrnsctrl.obj
 0001:002127bc       ?GetEstablisherFrame@__FrameHandler3@@SAPEA_KPEA_KPEAU_xDISPATCHER_CONTEXT@@PEBU_s_FuncInfo@@0@Z 00000001802137bc f   libvcruntime:risctrnsctrl.obj
 0001:0021288c       ?GetEstablisherFrame@__FrameHandler4@@SAPEA_KPEA_KPEAU_xDISPATCHER_CONTEXT@@PEAUFuncInfo4@FH4@@0@Z 000000018021388c f   libvcruntime:risctrnsctrl.obj
 0001:002128b0       ?GetRangeOfTrysToCheck@__FrameHandler3@@SA?AU?$pair@Viterator@TryBlockMap@__FrameHandler3@@V123@@std@@AEAVTryBlockMap@1@HPEAU_xDISPATCHER_CONTEXT@@PEBU_s_FuncInfo@@H@Z 00000001802138b0 f   libvcruntime:risctrnsctrl.obj
 0001:002129e4       ?GetRangeOfTrysToCheck@__FrameHandler4@@SA?AU?$pair@Viterator@TryBlockMap4@FH4@@V123@@std@@AEAVTryBlockMap4@FH4@@HPEAU_xDISPATCHER_CONTEXT@@PEAUFuncInfo4@5@H@Z 00000001802139e4 f   libvcruntime:risctrnsctrl.obj
 0001:00212b50       ?UnwindNestedFrames@__FrameHandler3@@SAXPEA_KPEAUEHExceptionRecord@@PEAU_CONTEXT@@0PEAXPEBU_s_FuncInfo@@HHPEBU_s_HandlerType@@PEAU_xDISPATCHER_CONTEXT@@E@Z 0000000180213b50 f   libvcruntime:risctrnsctrl.obj
 0001:00212c54       ?UnwindNestedFrames@__FrameHandler4@@SAXPEA_KPEAUEHExceptionRecord@@PEAU_CONTEXT@@0PEAXPEAUFuncInfo4@FH4@@HHPEAUHandlerType4@5@PEAU_xDISPATCHER_CONTEXT@@E@Z 0000000180213c54 f   libvcruntime:risctrnsctrl.obj
 0001:00212d74       ?setBuffer@TryBlockMap4@FH4@@QEAAXViterator@12@@Z 0000000180213d74 f i libvcruntime:risctrnsctrl.obj
 0001:00212f38       _CreateFrameInfo           0000000180213f38 f   libvcruntime:risctrnsctrl.obj
 0001:00212f74       _FindAndUnlinkFrame        0000000180213f74 f   libvcruntime:risctrnsctrl.obj
 0001:00212fc8       _GetImageBase              0000000180213fc8 f   libvcruntime:risctrnsctrl.obj
 0001:00212fdc       _GetThrowImageBase         0000000180213fdc f   libvcruntime:risctrnsctrl.obj
 0001:00212ff0       _SetImageBase              0000000180213ff0 f   libvcruntime:risctrnsctrl.obj
 0001:00213008       _SetThrowImageBase         0000000180214008 f   libvcruntime:risctrnsctrl.obj
 0001:00213020       __CxxFrameHandler3         0000000180214020 f   libvcruntime:risctrnsctrl.obj
 0001:002130a8       __CxxFrameHandler4         00000001802140a8 f   libvcruntime:risctrnsctrl.obj
 0001:002132b8       __vcrt_FlsAlloc            00000001802142b8 f   libvcruntime:winapi_downlevel.obj
 0001:00213300       __vcrt_FlsFree             0000000180214300 f   libvcruntime:winapi_downlevel.obj
 0001:00213348       __vcrt_FlsGetValue         0000000180214348 f   libvcruntime:winapi_downlevel.obj
 0001:00213390       __vcrt_FlsSetValue         0000000180214390 f   libvcruntime:winapi_downlevel.obj
 0001:002133e4       __vcrt_InitializeCriticalSectionEx 00000001802143e4 f   libvcruntime:winapi_downlevel.obj
 0001:00213448       ?GetCurrentState@__FrameHandler3@@SAHPEA_KPEAU_xDISPATCHER_CONTEXT@@PEBU_s_FuncInfo@@@Z 0000000180214448 f   libvcruntime:ehstate.obj
 0001:00213470       ?GetUnwindTryBlock@__FrameHandler3@@SAHPEA_KPEAU_xDISPATCHER_CONTEXT@@PEBU_s_FuncInfo@@@Z 0000000180214470 f   libvcruntime:ehstate.obj
 0001:0021349c       ?SetState@__FrameHandler3@@SAXPEA_KPEBU_s_FuncInfo@@H@Z 000000018021449c f   libvcruntime:ehstate.obj
 0001:002134a8       ?SetUnwindTryBlock@__FrameHandler3@@SAXPEA_KPEAU_xDISPATCHER_CONTEXT@@PEBU_s_FuncInfo@@H@Z 00000001802144a8 f   libvcruntime:ehstate.obj
 0001:002134e4       ?StateFromControlPc@__FrameHandler3@@SAHPEBU_s_FuncInfo@@PEAU_xDISPATCHER_CONTEXT@@@Z 00000001802144e4 f   libvcruntime:ehstate.obj
 0001:002134ec       ?StateFromControlPc@__FrameHandler4@@SAHPEAUFuncInfo4@FH4@@PEAU_xDISPATCHER_CONTEXT@@@Z 00000001802144ec f   libvcruntime:ehstate.obj
 0001:002134f4       ?StateFromIp@__FrameHandler3@@SAHPEBU_s_FuncInfo@@PEAU_xDISPATCHER_CONTEXT@@_K@Z 00000001802144f4 f   libvcruntime:ehstate.obj
 0001:0021355c       ?StateFromIp@__FrameHandler4@@SAHPEAUFuncInfo4@FH4@@PEAU_xDISPATCHER_CONTEXT@@_K@Z 000000018021455c f   libvcruntime:ehstate.obj
 0001:00214cb4       ??$TypeMatchHelper@V__FrameHandler3@@@@YAHPEBU_s_HandlerType@@PEBU_s_CatchableType@@PEBU_s_ThrowInfo@@@Z 0000000180215cb4 f i libvcruntime:frame.obj
 0001:00214df4       ??$TypeMatchHelper@V__FrameHandler4@@@@YAHPEAUHandlerType4@FH4@@PEBU_s_CatchableType@@PEBU_s_ThrowInfo@@@Z 0000000180215df4 f i libvcruntime:frame.obj
 0001:00214f40       ??$__InternalCxxFrameHandler@V__FrameHandler3@@@@YA?AW4_EXCEPTION_DISPOSITION@@PEAUEHExceptionRecord@@PEA_KPEAU_CONTEXT@@PEAU_xDISPATCHER_CONTEXT@@PEBU_s_FuncInfo@@H1E@Z 0000000180215f40 f i libvcruntime:frame.obj
 0001:00215178       ??$__InternalCxxFrameHandler@V__FrameHandler4@@@@YA?AW4_EXCEPTION_DISPOSITION@@PEAUEHExceptionRecord@@PEA_KPEAU_CONTEXT@@PEAU_xDISPATCHER_CONTEXT@@PEAUFuncInfo4@FH4@@H1E@Z 0000000180216178 f i libvcruntime:frame.obj
 0001:0021540c       ??$__InternalCxxFrameHandlerWrapper@V__FrameHandler3@@@@YA?AW4_EXCEPTION_DISPOSITION@@PEAUEHExceptionRecord@@PEA_KPEAU_CONTEXT@@PEAU_xDISPATCHER_CONTEXT@@PEBU_s_FuncInfo@@H1E@Z 000000018021640c f i libvcruntime:frame.obj
 0001:00215414       ??$__InternalCxxFrameHandlerWrapper@V__FrameHandler4@@@@YA?AW4_EXCEPTION_DISPOSITION@@PEAUEHExceptionRecord@@PEA_KPEAU_CONTEXT@@PEAU_xDISPATCHER_CONTEXT@@PEAUFuncInfo4@FH4@@H1E@Z 0000000180216414 f i libvcruntime:frame.obj
 0001:00215460       ??0HandlerMap4@FH4@@QEAA@PEBUTryBlockMapEntry4@1@_KH@Z 0000000180216460 f i libvcruntime:frame.obj
 0001:002154e4       ??0TryBlockMap4@FH4@@QEAA@PEBUFuncInfo4@1@_K@Z 00000001802164e4 f i libvcruntime:frame.obj
 0001:002155c8       ??0bad_exception@std@@QEAA@AEBV01@@Z 00000001802165c8 f i libvcruntime:frame.obj
 0001:00215604       ??0bad_exception@std@@QEAA@XZ 0000000180216604 f i libvcruntime:frame.obj
 0001:00215624       ??0exception@std@@QEAA@AEBV01@@Z 0000000180216624 f i libvcruntime:frame.obj
 0001:00215658       ??1bad_exception@std@@UEAA@XZ 0000000180216658 f i libvcruntime:frame.obj
 0001:0021566c       ??_Ebad_exception@std@@UEAAPEAXI@Z 000000018021666c f i libvcruntime:frame.obj
 0001:0021566c       ??_Eexception@std@@UEAAPEAXI@Z 000000018021666c f i libvcruntime:frame.obj
 0001:0021566c       ??_Gbad_exception@std@@UEAAPEAXI@Z 000000018021666c f i libvcruntime:frame.obj
 0001:0021566c       ??_Gexception@std@@UEAAPEAXI@Z 000000018021666c f i libvcruntime:frame.obj
 0001:002156b0       ?CxxCallCatchBlock@__FrameHandler3@@SAPEAXPEAU_EXCEPTION_RECORD@@@Z 00000001802166b0 f   libvcruntime:frame.obj
 0001:0021589c       ?CxxCallCatchBlock@__FrameHandler4@@SAPEAXPEAU_EXCEPTION_RECORD@@@Z 000000018021689c f   libvcruntime:frame.obj
 0001:00215aec       ?DecompHandler@HandlerMap4@FH4@@AEAAXXZ 0000000180216aec f i libvcruntime:frame.obj
 0001:00215d34       ?FrameUnwindToState@__FrameHandler3@@SAXPEA_KPEAU_xDISPATCHER_CONTEXT@@PEBU_s_FuncInfo@@H@Z 0000000180216d34 f   libvcruntime:frame.obj
 0001:00215ec0       ?FrameUnwindToState@__FrameHandler4@@SAXPEA_KPEAU_xDISPATCHER_CONTEXT@@PEAUFuncInfo4@FH4@@H@Z 0000000180216ec0 f   libvcruntime:frame.obj
 0001:002161c8       ?GetHandlerSearchState@__FrameHandler3@@SAHPEA_KPEAU_xDISPATCHER_CONTEXT@@PEBU_s_FuncInfo@@@Z 00000001802171c8 f i libvcruntime:frame.obj
 0001:002163d8       ?ReadEntry@UWMap4@FH4@@AEAAXPEAPEAE@Z 00000001802173d8 f i libvcruntime:frame.obj
 0001:00216474       ?_CallMemberFunction1@@YAXQEAX00@Z 0000000180217474 f i libvcruntime:frame.obj
 0001:00216480       ?_CallMemberFunction2@@YAXQEAX00H@Z 0000000180217480 f i libvcruntime:frame.obj
 0001:00216490       ?getStartStop@UWMap4@FH4@@QEAAXHHAEAViterator@12@0@Z 0000000180217490 f i libvcruntime:frame.obj
 0001:00216560       ?getStateFromIterators@UWMap4@FH4@@SAHAEBViterator@12@H0H0@Z 0000000180217560 f i libvcruntime:frame.obj
 0001:00216610       ?what@exception@std@@UEBAPEBDXZ 0000000180217610 f i libvcruntime:frame.obj
 0001:00216670       _CallSettingFrame          0000000180217670 f   libvcruntime:handlers.obj
 0001:002166b0       _CallSettingFrame_LookupContinuationIndex 00000001802176b0 f   libvcruntime:handlers.obj
 0001:002166e0       _CallSettingFrame_NotifyContinuationAddr 00000001802176e0 f   libvcruntime:handlers.obj
 0001:00216710       _CallSettingFrameEncoded   0000000180217710 f   libvcruntime:handlers.obj
 0001:00216758       __std_exception_copy       0000000180217758 f   libvcruntime:std_exception.obj
 0001:002167e8       __std_exception_destroy    00000001802177e8 f   libvcruntime:std_exception.obj
 0001:00216810       _CxxThrowException         0000000180217810 f   libvcruntime:throw.obj
 0001:002168c0       cosf                       00000001802178c0 f   libucrt:cosf.obj
 0001:00216dc0       sinf                       0000000180217dc0 f   libucrt:sinf.obj
 0001:002174c0       tanf                       00000001802184c0 f   libucrt:tanf.obj
 0001:00217b34       __acrt_initialize_stdio    0000000180218b34 f   libucrt:_file.obj
 0001:00217c54       __acrt_iob_func            0000000180218c54 f   libucrt:_file.obj
 0001:00217c68       __acrt_uninitialize_stdio  0000000180218c68 f   libucrt:_file.obj
 0001:00217cc4       _lock_file                 0000000180218cc4 f   libucrt:_file.obj
 0001:00217cd0       _unlock_file               0000000180218cd0 f   libucrt:_file.obj
 0001:00217ecc       ??$ensure_buffer_is_big_enough@D@formatting_buffer@__crt_stdio_output@@QEAA_N_KAEAV__crt_cached_ptd_host@@@Z 0000000180218ecc f i libucrt:output.obj
 0001:00217f74       ??$parse_integer@KV?$c_string_character_source@D@__crt_strtox@@$0A@@__crt_strtox@@YAKAEAV__crt_cached_ptd_host@@V?$c_string_character_source@D@0@H_N@Z 0000000180218f74 f i libucrt:output.obj
 0001:00218228       ??$type_case_integer@$07@?$output_processor@DV?$stream_output_adapter@D@__crt_stdio_output@@V?$standard_base@DV?$stream_output_adapter@D@__crt_stdio_output@@@2@@__crt_stdio_output@@AEAA_N_N@Z 0000000180219228 f i libucrt:output.obj
 0001:00218228       ??$type_case_integer@$07@?$output_processor@DV?$string_output_adapter@D@__crt_stdio_output@@V?$format_validation_base@DV?$string_output_adapter@D@__crt_stdio_output@@@2@@__crt_stdio_output@@AEAA_N_N@Z 0000000180219228 f i libucrt:output.obj
 0001:00218228       ??$type_case_integer@$07@?$output_processor@DV?$string_output_adapter@D@__crt_stdio_output@@V?$standard_base@DV?$string_output_adapter@D@__crt_stdio_output@@@2@@__crt_stdio_output@@AEAA_N_N@Z 0000000180219228 f i libucrt:output.obj
 0001:0021842c       ??$type_case_integer@$09@?$output_processor@DV?$stream_output_adapter@D@__crt_stdio_output@@V?$standard_base@DV?$stream_output_adapter@D@__crt_stdio_output@@@2@@__crt_stdio_output@@AEAA_N_N@Z 000000018021942c f i libucrt:output.obj
 0001:0021842c       ??$type_case_integer@$09@?$output_processor@DV?$string_output_adapter@D@__crt_stdio_output@@V?$format_validation_base@DV?$string_output_adapter@D@__crt_stdio_output@@@2@@__crt_stdio_output@@AEAA_N_N@Z 000000018021942c f i libucrt:output.obj
 0001:0021842c       ??$type_case_integer@$09@?$output_processor@DV?$string_output_adapter@D@__crt_stdio_output@@V?$standard_base@DV?$string_output_adapter@D@__crt_stdio_output@@@2@@__crt_stdio_output@@AEAA_N_N@Z 000000018021942c f i libucrt:output.obj
 0001:00218630       ??$type_case_integer@$0BA@@?$output_processor@DV?$stream_output_adapter@D@__crt_stdio_output@@V?$standard_base@DV?$stream_output_adapter@D@__crt_stdio_output@@@2@@__crt_stdio_output@@AEAA_N_N@Z 0000000180219630 f i libucrt:output.obj
 0001:00218630       ??$type_case_integer@$0BA@@?$output_processor@DV?$string_output_adapter@D@__crt_stdio_output@@V?$format_validation_base@DV?$string_output_adapter@D@__crt_stdio_output@@@2@@__crt_stdio_output@@AEAA_N_N@Z 0000000180219630 f i libucrt:output.obj
 0001:00218630       ??$type_case_integer@$0BA@@?$output_processor@DV?$string_output_adapter@D@__crt_stdio_output@@V?$standard_base@DV?$string_output_adapter@D@__crt_stdio_output@@@2@@__crt_stdio_output@@AEAA_N_N@Z 0000000180219630 f i libucrt:output.obj
 0001:00218834       ??$type_case_integer_parse_into_buffer@I$07@?$output_processor@DV?$stream_output_adapter@D@__crt_stdio_output@@V?$standard_base@DV?$stream_output_adapter@D@__crt_stdio_output@@@2@@__crt_stdio_output@@AEAAXI_N@Z 0000000180219834 f i libucrt:output.obj
 0001:00218834       ??$type_case_integer_parse_into_buffer@I$07@?$output_processor@DV?$string_output_adapter@D@__crt_stdio_output@@V?$format_validation_base@DV?$string_output_adapter@D@__crt_stdio_output@@@2@@__crt_stdio_output@@AEAAXI_N@Z 0000000180219834 f i libucrt:output.obj
 0001:00218834       ??$type_case_integer_parse_into_buffer@I$07@?$output_processor@DV?$string_output_adapter@D@__crt_stdio_output@@V?$standard_base@DV?$string_output_adapter@D@__crt_stdio_output@@@2@@__crt_stdio_output@@AEAAXI_N@Z 0000000180219834 f i libucrt:output.obj
 0001:002188a4       ??$type_case_integer_parse_into_buffer@I$09@?$output_processor@DV?$stream_output_adapter@D@__crt_stdio_output@@V?$standard_base@DV?$stream_output_adapter@D@__crt_stdio_output@@@2@@__crt_stdio_output@@AEAAXI_N@Z 00000001802198a4 f i libucrt:output.obj
 0001:002188a4       ??$type_case_integer_parse_into_buffer@I$09@?$output_processor@DV?$string_output_adapter@D@__crt_stdio_output@@V?$format_validation_base@DV?$string_output_adapter@D@__crt_stdio_output@@@2@@__crt_stdio_output@@AEAAXI_N@Z 00000001802198a4 f i libucrt:output.obj
 0001:002188a4       ??$type_case_integer_parse_into_buffer@I$09@?$output_processor@DV?$string_output_adapter@D@__crt_stdio_output@@V?$standard_base@DV?$string_output_adapter@D@__crt_stdio_output@@@2@@__crt_stdio_output@@AEAAXI_N@Z 00000001802198a4 f i libucrt:output.obj
 0001:00218950       ??$type_case_integer_parse_into_buffer@I$0BA@@?$output_processor@DV?$stream_output_adapter@D@__crt_stdio_output@@V?$standard_base@DV?$stream_output_adapter@D@__crt_stdio_output@@@2@@__crt_stdio_output@@AEAAXI_N@Z 0000000180219950 f i libucrt:output.obj
 0001:00218950       ??$type_case_integer_parse_into_buffer@I$0BA@@?$output_processor@DV?$string_output_adapter@D@__crt_stdio_output@@V?$format_validation_base@DV?$string_output_adapter@D@__crt_stdio_output@@@2@@__crt_stdio_output@@AEAAXI_N@Z 0000000180219950 f i libucrt:output.obj
 0001:00218950       ??$type_case_integer_parse_into_buffer@I$0BA@@?$output_processor@DV?$string_output_adapter@D@__crt_stdio_output@@V?$standard_base@DV?$string_output_adapter@D@__crt_stdio_output@@@2@@__crt_stdio_output@@AEAAXI_N@Z 0000000180219950 f i libucrt:output.obj
 0001:002189d4       ??$type_case_integer_parse_into_buffer@_K$07@?$output_processor@DV?$stream_output_adapter@D@__crt_stdio_output@@V?$standard_base@DV?$stream_output_adapter@D@__crt_stdio_output@@@2@@__crt_stdio_output@@AEAAX_K_N@Z 00000001802199d4 f i libucrt:output.obj
 0001:002189d4       ??$type_case_integer_parse_into_buffer@_K$07@?$output_processor@DV?$string_output_adapter@D@__crt_stdio_output@@V?$format_validation_base@DV?$string_output_adapter@D@__crt_stdio_output@@@2@@__crt_stdio_output@@AEAAX_K_N@Z 00000001802199d4 f i libucrt:output.obj
 0001:002189d4       ??$type_case_integer_parse_into_buffer@_K$07@?$output_processor@DV?$string_output_adapter@D@__crt_stdio_output@@V?$standard_base@DV?$string_output_adapter@D@__crt_stdio_output@@@2@@__crt_stdio_output@@AEAAX_K_N@Z 00000001802199d4 f i libucrt:output.obj
 0001:00218a44       ??$type_case_integer_parse_into_buffer@_K$09@?$output_processor@DV?$stream_output_adapter@D@__crt_stdio_output@@V?$standard_base@DV?$stream_output_adapter@D@__crt_stdio_output@@@2@@__crt_stdio_output@@AEAAX_K_N@Z 0000000180219a44 f i libucrt:output.obj
 0001:00218a44       ??$type_case_integer_parse_into_buffer@_K$09@?$output_processor@DV?$string_output_adapter@D@__crt_stdio_output@@V?$format_validation_base@DV?$string_output_adapter@D@__crt_stdio_output@@@2@@__crt_stdio_output@@AEAAX_K_N@Z 0000000180219a44 f i libucrt:output.obj
 0001:00218a44       ??$type_case_integer_parse_into_buffer@_K$09@?$output_processor@DV?$string_output_adapter@D@__crt_stdio_output@@V?$standard_base@DV?$string_output_adapter@D@__crt_stdio_output@@@2@@__crt_stdio_output@@AEAAX_K_N@Z 0000000180219a44 f i libucrt:output.obj
 0001:00218af4       ??$type_case_integer_parse_into_buffer@_K$0BA@@?$output_processor@DV?$stream_output_adapter@D@__crt_stdio_output@@V?$standard_base@DV?$stream_output_adapter@D@__crt_stdio_output@@@2@@__crt_stdio_output@@AEAAX_K_N@Z 0000000180219af4 f i libucrt:output.obj
 0001:00218af4       ??$type_case_integer_parse_into_buffer@_K$0BA@@?$output_processor@DV?$string_output_adapter@D@__crt_stdio_output@@V?$format_validation_base@DV?$string_output_adapter@D@__crt_stdio_output@@@2@@__crt_stdio_output@@AEAAX_K_N@Z 0000000180219af4 f i libucrt:output.obj
 0001:00218af4       ??$type_case_integer_parse_into_buffer@_K$0BA@@?$output_processor@DV?$string_output_adapter@D@__crt_stdio_output@@V?$standard_base@DV?$string_output_adapter@D@__crt_stdio_output@@@2@@__crt_stdio_output@@AEAAX_K_N@Z 0000000180219af4 f i libucrt:output.obj
 0001:00218c94       ?crop_zeroes@__crt_stdio_output@@YAXPEADQEAU__crt_locale_pointers@@@Z 0000000180219c94 f i libucrt:output.obj
 0001:00218d00       ?get_raw_ptd@__crt_cached_ptd_host@@QEAAPEAU__acrt_ptd@@XZ 0000000180219d00 f i libucrt:output.obj
 0001:00218d68       ?parse_int_from_format_string@?$output_processor@DV?$stream_output_adapter@D@__crt_stdio_output@@V?$standard_base@DV?$stream_output_adapter@D@__crt_stdio_output@@@2@@__crt_stdio_output@@AEAA_NQEAH@Z 0000000180219d68 f i libucrt:output.obj
 0001:00218d68       ?parse_int_from_format_string@?$output_processor@DV?$string_output_adapter@D@__crt_stdio_output@@V?$format_validation_base@DV?$string_output_adapter@D@__crt_stdio_output@@@2@@__crt_stdio_output@@AEAA_NQEAH@Z 0000000180219d68 f i libucrt:output.obj
 0001:00218d68       ?parse_int_from_format_string@?$output_processor@DV?$string_output_adapter@D@__crt_stdio_output@@V?$standard_base@DV?$string_output_adapter@D@__crt_stdio_output@@@2@@__crt_stdio_output@@AEAA_NQEAH@Z 0000000180219d68 f i libucrt:output.obj
 0001:00218df8       ?process@?$output_processor@DV?$stream_output_adapter@D@__crt_stdio_output@@V?$standard_base@DV?$stream_output_adapter@D@__crt_stdio_output@@@2@@__crt_stdio_output@@QEAAHXZ 0000000180219df8 f i libucrt:output.obj
 0001:00219190       ?process@?$output_processor@DV?$string_output_adapter@D@__crt_stdio_output@@V?$format_validation_base@DV?$string_output_adapter@D@__crt_stdio_output@@@2@@__crt_stdio_output@@QEAAHXZ 000000018021a190 f i libucrt:output.obj
 0001:00219514       ?process@?$output_processor@DV?$string_output_adapter@D@__crt_stdio_output@@V?$standard_base@DV?$string_output_adapter@D@__crt_stdio_output@@@2@@__crt_stdio_output@@QEAAHXZ 000000018021a514 f i libucrt:output.obj
 0001:00219894       ?state_case_size@?$output_processor@DV?$stream_output_adapter@D@__crt_stdio_output@@V?$standard_base@DV?$stream_output_adapter@D@__crt_stdio_output@@@2@@__crt_stdio_output@@AEAA_NXZ 000000018021a894 f i libucrt:output.obj
 0001:00219a1c       ?state_case_size@?$output_processor@DV?$string_output_adapter@D@__crt_stdio_output@@V?$format_validation_base@DV?$string_output_adapter@D@__crt_stdio_output@@@2@@__crt_stdio_output@@AEAA_NXZ 000000018021aa1c f i libucrt:output.obj
 0001:00219a1c       ?state_case_size@?$output_processor@DV?$string_output_adapter@D@__crt_stdio_output@@V?$standard_base@DV?$string_output_adapter@D@__crt_stdio_output@@@2@@__crt_stdio_output@@AEAA_NXZ 000000018021aa1c f i libucrt:output.obj
 0001:00219ba4       ?state_case_type@?$output_processor@DV?$stream_output_adapter@D@__crt_stdio_output@@V?$standard_base@DV?$stream_output_adapter@D@__crt_stdio_output@@@2@@__crt_stdio_output@@AEAA_NXZ 000000018021aba4 f i libucrt:output.obj
 0001:00219fdc       ?state_case_type@?$output_processor@DV?$string_output_adapter@D@__crt_stdio_output@@V?$format_validation_base@DV?$string_output_adapter@D@__crt_stdio_output@@@2@@__crt_stdio_output@@AEAA_NXZ 000000018021afdc f i libucrt:output.obj
 0001:00219fdc       ?state_case_type@?$output_processor@DV?$string_output_adapter@D@__crt_stdio_output@@V?$standard_base@DV?$string_output_adapter@D@__crt_stdio_output@@@2@@__crt_stdio_output@@AEAA_NXZ 000000018021afdc f i libucrt:output.obj
 0001:0021a3e0       ?type_case_Z@?$output_processor@DV?$stream_output_adapter@D@__crt_stdio_output@@V?$standard_base@DV?$stream_output_adapter@D@__crt_stdio_output@@@2@@__crt_stdio_output@@AEAA_NXZ 000000018021b3e0 f i libucrt:output.obj
 0001:0021a3e0       ?type_case_Z@?$output_processor@DV?$string_output_adapter@D@__crt_stdio_output@@V?$format_validation_base@DV?$string_output_adapter@D@__crt_stdio_output@@@2@@__crt_stdio_output@@AEAA_NXZ 000000018021b3e0 f i libucrt:output.obj
 0001:0021a3e0       ?type_case_Z@?$output_processor@DV?$string_output_adapter@D@__crt_stdio_output@@V?$standard_base@DV?$string_output_adapter@D@__crt_stdio_output@@@2@@__crt_stdio_output@@AEAA_NXZ 000000018021b3e0 f i libucrt:output.obj
 0001:0021a45c       ?type_case_a@?$output_processor@DV?$stream_output_adapter@D@__crt_stdio_output@@V?$standard_base@DV?$stream_output_adapter@D@__crt_stdio_output@@@2@@__crt_stdio_output@@AEAA_NXZ 000000018021b45c f i libucrt:output.obj
 0001:0021a45c       ?type_case_a@?$output_processor@DV?$string_output_adapter@D@__crt_stdio_output@@V?$format_validation_base@DV?$string_output_adapter@D@__crt_stdio_output@@@2@@__crt_stdio_output@@AEAA_NXZ 000000018021b45c f i libucrt:output.obj
 0001:0021a45c       ?type_case_a@?$output_processor@DV?$string_output_adapter@D@__crt_stdio_output@@V?$standard_base@DV?$string_output_adapter@D@__crt_stdio_output@@@2@@__crt_stdio_output@@AEAA_NXZ 000000018021b45c f i libucrt:output.obj
 0001:0021a6b0       ?type_case_c_tchar@?$output_processor@DV?$stream_output_adapter@D@__crt_stdio_output@@V?$standard_base@DV?$stream_output_adapter@D@__crt_stdio_output@@@2@@__crt_stdio_output@@AEAA_ND@Z 000000018021b6b0 f i libucrt:output.obj
 0001:0021a6b0       ?type_case_c_tchar@?$output_processor@DV?$string_output_adapter@D@__crt_stdio_output@@V?$format_validation_base@DV?$string_output_adapter@D@__crt_stdio_output@@@2@@__crt_stdio_output@@AEAA_ND@Z 000000018021b6b0 f i libucrt:output.obj
 0001:0021a6b0       ?type_case_c_tchar@?$output_processor@DV?$string_output_adapter@D@__crt_stdio_output@@V?$standard_base@DV?$string_output_adapter@D@__crt_stdio_output@@@2@@__crt_stdio_output@@AEAA_ND@Z 000000018021b6b0 f i libucrt:output.obj
 0001:0021a784       ?type_case_n@?$output_processor@DV?$stream_output_adapter@D@__crt_stdio_output@@V?$standard_base@DV?$stream_output_adapter@D@__crt_stdio_output@@@2@@__crt_stdio_output@@AEAA_NXZ 000000018021b784 f i libucrt:output.obj
 0001:0021a784       ?type_case_n@?$output_processor@DV?$string_output_adapter@D@__crt_stdio_output@@V?$format_validation_base@DV?$string_output_adapter@D@__crt_stdio_output@@@2@@__crt_stdio_output@@AEAA_NXZ 000000018021b784 f i libucrt:output.obj
 0001:0021a784       ?type_case_n@?$output_processor@DV?$string_output_adapter@D@__crt_stdio_output@@V?$standard_base@DV?$string_output_adapter@D@__crt_stdio_output@@@2@@__crt_stdio_output@@AEAA_NXZ 000000018021b784 f i libucrt:output.obj
 0001:0021a83c       ?type_case_s@?$output_processor@DV?$stream_output_adapter@D@__crt_stdio_output@@V?$standard_base@DV?$stream_output_adapter@D@__crt_stdio_output@@@2@@__crt_stdio_output@@AEAA_NXZ 000000018021b83c f i libucrt:output.obj
 0001:0021a83c       ?type_case_s@?$output_processor@DV?$string_output_adapter@D@__crt_stdio_output@@V?$format_validation_base@DV?$string_output_adapter@D@__crt_stdio_output@@@2@@__crt_stdio_output@@AEAA_NXZ 000000018021b83c f i libucrt:output.obj
 0001:0021a83c       ?type_case_s@?$output_processor@DV?$string_output_adapter@D@__crt_stdio_output@@V?$standard_base@DV?$string_output_adapter@D@__crt_stdio_output@@@2@@__crt_stdio_output@@AEAA_NXZ 000000018021b83c f i libucrt:output.obj
 0001:0021a8e0       ?update_locale_slow@__crt_cached_ptd_host@@AEAAXXZ 000000018021b8e0 f i libucrt:output.obj
 0001:0021a958       ?validate_stream_is_ansi_if_required@?$__acrt_stdio_char_traits@D@@SA_NQEAU_iobuf@@@Z 000000018021b958 f i libucrt:output.obj
 0001:0021a9f4       ?write_string@?$string_output_adapter@D@__crt_stdio_output@@QEBAXQEBDHQEAHAEAV__crt_cached_ptd_host@@@Z 000000018021b9f4 f i libucrt:output.obj
 0001:0021aa98       ?write_string_impl@?$output_adapter_common@DV?$stream_output_adapter@D@__crt_stdio_output@@@__crt_stdio_output@@IEBAXQEBDHQEAHAEAV__crt_cached_ptd_host@@@Z 000000018021ba98 f i libucrt:output.obj
 0001:0021ab64       __stdio_common_vfprintf    000000018021bb64 f   libucrt:output.obj
 0001:0021ac88       __stdio_common_vsprintf    000000018021bc88 f   libucrt:output.obj
 0001:0021aedc       __stdio_common_vsprintf_s  000000018021bedc f   libucrt:output.obj
 0001:0021aff0       _fpclass                   000000018021bff0 f   libucrt:ieeemisc.obj
 0001:0021b080       powf                       000000018021c080 f   libucrt:powf.obj
 0001:0021bf48       atan2f                     000000018021cf48 f   libucrt:atan2f.obj
 0001:0021c340       acosf                      000000018021d340 f   libucrt:acosf.obj
 0001:0021c56c       free                       000000018021d56c f   libucrt:free.obj
 0001:0021c580       _seh_filter_dll            000000018021d580 f   libucrt:exception_filter.obj
 0001:0021c594       _seh_filter_exe            000000018021d594 f   libucrt:exception_filter.obj
 0001:0021c9ac       __acrt_initialize_thread_local_exit_callback 000000018021d9ac f   libucrt:exit.obj
 0001:0021c9b4       _cexit                     000000018021d9b4 f   libucrt:exit.obj
 0001:0021c9c4       _exit                      000000018021d9c4 f   libucrt:exit.obj
 0001:0021c9d0       _is_c_termination_complete 000000018021d9d0 f   libucrt:exit.obj
 0001:0021cba0       __acrt_allocate_buffer_for_argv 000000018021dba0 f   libucrt:argv_parsing.obj
 0001:0021cc00       _configure_narrow_argv     000000018021dc00 f   libucrt:argv_parsing.obj
 0001:0021cf88       __dcrt_uninitialize_environments_nolock 000000018021df88 f   libucrt:environment_initialization.obj
 0001:0021cfcc       _initialize_narrow_environment 000000018021dfcc f   libucrt:environment_initialization.obj
 0001:0021d31c       _crt_atexit                000000018021e31c f   libucrt:onexit.obj
 0001:0021d32c       _execute_onexit_table      000000018021e32c f   libucrt:onexit.obj
 0001:0021d370       _initialize_onexit_table   000000018021e370 f   libucrt:onexit.obj
 0001:0021d398       _register_onexit_function  000000018021e398 f   libucrt:onexit.obj
 0001:0021d418       __acrt_uninitialize_command_line 000000018021e418 f   libucrt:argv_data.obj
 0001:0021d510       __acrt_initialize          000000018021e510 f   libucrt:initialization.obj
 0001:0021d524       __acrt_thread_attach       000000018021e524 f   libucrt:initialization.obj
 0001:0021d538       __acrt_thread_detach       000000018021e538 f   libucrt:initialization.obj
 0001:0021d548       __acrt_uninitialize        000000018021e548 f   libucrt:initialization.obj
 0001:0021d580       __acrt_uninitialize_critical 000000018021e580 f   libucrt:initialization.obj
 0001:0021d590       _initterm                  000000018021e590 f   libucrt:initterm.obj
 0001:0021d5d4       _initterm_e                000000018021e5d4 f   libucrt:initterm.obj
 0001:0021d61c       terminate                  000000018021e61c f   libucrt:terminate.obj
 0001:0021d648       abort                      000000018021e648 f   libucrt:abort.obj
 0001:0021d6a0       malloc                     000000018021e6a0 f   libucrt:malloc.obj
 0001:0021d6a8       strcpy_s                   000000018021e6a8 f   libucrt:strcpy_s.obj
 0001:0021d708       ??$parse_integer@KV?$c_string_character_source@D@__crt_strtox@@$00@__crt_strtox@@YAKAEAV__crt_cached_ptd_host@@V?$c_string_character_source@D@0@H_N@Z 000000018021e708 f i libucrt:atox.obj
 0001:0021d9f8       _ischartype_l              000000018021e9f8 f i libucrt:atox.obj
 0001:0021da70       atol                       000000018021ea70 f   libucrt:atox.obj
 0001:0021db30       strncmp                    000000018021eb30 f   libucrt:strncmp.obj
 0001:0021dbb0       calloc                     000000018021ebb0 f   libucrt:calloc.obj
 0001:0021dbb8       wcsncmp                    000000018021ebb8 f   libucrt:wcsncmp.obj
 0001:0021dbf0       __remainder_piby2d2f_forAsm 000000018021ebf0 f   libucrt:remainder_piby2f_forasm.obj
 0001:0021dd40       __remainder_piby2_fma3     000000018021ed40 f   libucrt:remainder_piby2_forfma3.obj
 0001:0021df30       __remainder_piby2_fma3_bdl 000000018021ef30 f   libucrt:remainder_piby2_forfma3.obj
 0001:0021dfa8       _cosf_special              000000018021efa8 f   libucrt:sincos_special.obj
 0001:0021e048       _sinf_special              000000018021f048 f   libucrt:sincos_special.obj
 0001:0021e05c       _tanf_special              000000018021f05c f   libucrt:sincos_special.obj
 0001:0021e070       _clrfp                     000000018021f070 f   libucrt:fpctrl.obj
 0001:0021e090       _ctrlfp                    000000018021f090 f   libucrt:fpctrl.obj
 0001:0021e10c       _set_statfp                000000018021f10c f   libucrt:fpctrl.obj
 0001:0021e12c       _statfp                    000000018021f12c f   libucrt:fpctrl.obj
 0001:0021e140       __acrt_initialize_fma3     000000018021f140 f   libucrt:fma3_available.obj
 0001:0021e1b0       __remainder_piby2d2f_forC  000000018021f1b0 f   libucrt:remainder_piby2f_forc.obj
 0001:0021e33c       ?get_raw_ptd_noexit@__crt_cached_ptd_host@@QEAAPEAU__acrt_ptd@@XZ 000000018021f33c f i libucrt:invalid_parameter.obj
 0001:0021e3a8       ?value@?$dual_state_global@P6AXPEB_W00I_K@Z@__crt_state_management@@QEAAAEAP6AXPEB_W00I_K@ZAEAV__crt_cached_ptd_host@@@Z 000000018021f3a8 f i libucrt:invalid_parameter.obj
 0001:0021e3f4       __acrt_call_reportfault    000000018021f3f4 f   libucrt:invalid_parameter.obj
 0001:0021e550       __acrt_initialize_invalid_parameter_handler 000000018021f550 f   libucrt:invalid_parameter.obj
 0001:0021e558       _invalid_parameter         000000018021f558 f   libucrt:invalid_parameter.obj
 0001:0021e5f4       _invalid_parameter_internal 000000018021f5f4 f   libucrt:invalid_parameter.obj
 0001:0021e6c0       _invalid_parameter_noinfo  000000018021f6c0 f   libucrt:invalid_parameter.obj
 0001:0021e6e0       _invoke_watson             000000018021f6e0 f   libucrt:invalid_parameter.obj
 0001:0021e728       __acrt_errno_from_os_error 000000018021f728 f   libucrt:errno.obj
 0001:0021e770       __acrt_errno_map_os_error  000000018021f770 f   libucrt:errno.obj
 0001:0021e7b8       __acrt_errno_map_os_error_ptd 000000018021f7b8 f   libucrt:errno.obj
 0001:0021e7dc       __doserrno                 000000018021f7dc f   libucrt:errno.obj
 0001:0021e7fc       _errno                     000000018021f7fc f   libucrt:errno.obj
 0001:0021e81c       _calloc_base               000000018021f81c f   libucrt:calloc_base.obj
 0001:0021e894       _free_base                 000000018021f894 f   libucrt:free_base.obj
 0001:0021ea8c       __acrt_AppPolicyGetProcessTerminationMethodInternal 000000018021fa8c f   libucrt:winapi_thunks.obj
 0001:0021eae4       __acrt_AreFileApisANSI     000000018021fae4 f   libucrt:winapi_thunks.obj
 0001:0021eb28       __acrt_FlsAlloc            000000018021fb28 f   libucrt:winapi_thunks.obj
 0001:0021eb30       __acrt_FlsFree             000000018021fb30 f   libucrt:winapi_thunks.obj
 0001:0021eb38       __acrt_FlsGetValue         000000018021fb38 f   libucrt:winapi_thunks.obj
 0001:0021eb40       __acrt_FlsSetValue         000000018021fb40 f   libucrt:winapi_thunks.obj
 0001:0021eb48       __acrt_InitializeCriticalSectionEx 000000018021fb48 f   libucrt:winapi_thunks.obj
 0001:0021ebb8       __acrt_LCMapStringEx       000000018021fbb8 f   libucrt:winapi_thunks.obj
 0001:0021eca4       __acrt_LocaleNameToLCID    000000018021fca4 f   libucrt:winapi_thunks.obj
 0001:0021ed04       __acrt_initialize_winapi_thunks 000000018021fd04 f   libucrt:winapi_thunks.obj
 0001:0021ed28       __acrt_uninitialize_winapi_thunks 000000018021fd28 f   libucrt:winapi_thunks.obj
 0001:0021ed6c       _fcloseall                 000000018021fd6c f   libucrt:closeall.obj
 0001:0021f000       __acrt_stdio_flush_nolock  0000000180220000 f   libucrt:fflush.obj
 0001:0021f08c       _fflush_nolock             000000018022008c f   libucrt:fflush.obj
 0001:0021f160       _flushall                  0000000180220160 f   libucrt:fflush.obj
 0001:0021f168       __acrt_stdio_free_buffer_nolock 0000000180220168 f   libucrt:_freebuf.obj
 0001:0021f3a4       __acrt_initialize_lowio    00000001802203a4 f   libucrt:ioinit.obj
 0001:0021f3e0       __acrt_uninitialize_lowio  00000001802203e0 f   libucrt:ioinit.obj
 0001:0021f420       _malloc_base               0000000180220420 f   libucrt:malloc_base.obj
 0001:0021f480       strnlen                    0000000180220480 f   libucrt:strnlen.obj
 0001:0021f5d0       wcsnlen                    00000001802205d0 f   libucrt:strnlen.obj
 0001:0021f7a8       __acrt_update_locale_info  00000001802207a8 f   libucrt:locale_update.obj
 0001:0021f7dc       __acrt_update_locale_info_explicit 00000001802207dc f   libucrt:locale_update.obj
 0001:0021f814       __acrt_update_multibyte_info 0000000180220814 f   libucrt:locale_update.obj
 0001:0021f848       __acrt_update_multibyte_info_explicit 0000000180220848 f   libucrt:locale_update.obj
 0001:00220394       __acrt_fp_format           0000000180221394 f   libucrt:cvt.obj
 0001:0022067c       _wctomb_internal           000000018022167c f   libucrt:wctomb.obj
 0001:0022082c       _mbtowc_internal           000000018022182c f   libucrt:mbtowc.obj
 0001:002209a4       _fileno                    00000001802219a4 f   libucrt:fileno.obj
 0001:002209cc       _get_printf_count_output   00000001802219cc f   libucrt:printf_count_output.obj
 0001:002209e4       _fputc_nolock_internal     00000001802219e4 f   libucrt:fputc.obj
 0001:002209fc       __acrt_should_use_temporary_buffer 00000001802219fc f   libucrt:_sftbuf.obj
 0001:00220a48       __acrt_stdio_begin_temporary_buffering_nolock 0000000180221a48 f   libucrt:_sftbuf.obj
 0001:00220b10       __acrt_stdio_end_temporary_buffering_nolock 0000000180221b10 f   libucrt:_sftbuf.obj
 0001:00220ec8       __acrt_freeptd             0000000180221ec8 f   libucrt:per_thread_data.obj
 0001:00220f0c       __acrt_getptd              0000000180221f0c f   libucrt:per_thread_data.obj
 0001:00220fe0       __acrt_getptd_head         0000000180221fe0 f   libucrt:per_thread_data.obj
 0001:00221084       __acrt_getptd_noexit       0000000180222084 f   libucrt:per_thread_data.obj
 0001:0022114c       __acrt_getptd_noexit_explicit 000000018022214c f   libucrt:per_thread_data.obj
 0001:0022120c       __acrt_initialize_ptd      000000018022220c f   libucrt:per_thread_data.obj
 0001:00221248       __acrt_uninitialize_ptd    0000000180222248 f   libucrt:per_thread_data.obj
 0001:002212dc       __acrt_set_locale_changed  00000001802222dc f   libucrt:wsetlocale.obj
 0001:002212e8       __acrt_uninitialize_locale 00000001802222e8 f   libucrt:wsetlocale.obj
 0001:0022143c       _handle_error              000000018022243c f   libucrt:libm_error.obj
 0001:00221564       _handle_errorf             0000000180222564 f   libucrt:libm_error.obj
 0001:00221698       _handle_nan                0000000180222698 f   libucrt:libm_error.obj
 0001:002216b4       _handle_nanf               00000001802226b4 f   libucrt:libm_error.obj
 0001:002216d0       _powf_special              00000001802226d0 f   libucrt:pow_special.obj
 0001:00221840       __acrt_initialize_locks    0000000180222840 f   libucrt:locks.obj
 0001:00221888       __acrt_lock                0000000180222888 f   libucrt:locks.obj
 0001:002218a4       __acrt_uninitialize_locks  00000001802228a4 f   libucrt:locks.obj
 0001:002218dc       __acrt_unlock              00000001802228dc f   libucrt:locks.obj
 0001:002218f8       __acrt_app_verifier_enabled 00000001802228f8 f   libucrt:peb_access.obj
 0001:00221914       __acrt_is_secure_process   0000000180222914 f   libucrt:peb_access.obj
 0001:0022192c       __acrt_get_process_end_policy 000000018022292c f   libucrt:win_policies.obj
 0001:00221970       ??$__acrt_convert_wcs_mbs_cp@D_WV<lambda_7c9dea7b4ca7285d2cdb541a38da6275>@@U__crt_win32_buffer_internal_dynamic_resizing@@@@YAHQEBDAEAV?$__crt_win32_buffer@_WU__crt_win32_buffer_internal_dynamic_resizing@@@@AEBV<lambda_7c9dea7b4ca7285d2cdb541a38da6275>@@I@Z 0000000180222970 f i libucrt:argv_wildcards.obj
 0001:00221aec       ??$__acrt_convert_wcs_mbs_cp@_WDV<lambda_d8593a27d1aa8c02be35c86a17d324c4>@@U__crt_win32_buffer_internal_dynamic_resizing@@@@YAHQEB_WAEAV?$__crt_win32_buffer@DU__crt_win32_buffer_internal_dynamic_resizing@@@@AEBV<lambda_d8593a27d1aa8c02be35c86a17d324c4>@@I@Z 0000000180222aec f i libucrt:argv_wildcards.obj
 0001:00222390       ??0_LocaleUpdate@@QEAA@QEAU__crt_locale_pointers@@@Z 0000000180223390 f i libucrt:argv_wildcards.obj
 0001:0022242c       __acrt_expand_narrow_argv_wildcards 000000018022342c f   libucrt:argv_wildcards.obj
 0001:00222434       ??$__acrt_convert_wcs_mbs_cp@_WDV<lambda_f788ae46380686e8b737efdd8c720d07>@@U__crt_win32_buffer_no_resizing@@@@YAHQEB_WAEAV?$__crt_win32_buffer@DU__crt_win32_buffer_no_resizing@@@@AEBV<lambda_f788ae46380686e8b737efdd8c720d07>@@I@Z 0000000180223434 f i libucrt:getmodulefilenamea.obj
 0001:00222550       __acrt_GetModuleFileNameA  0000000180223550 f   libucrt:getmodulefilenamea.obj
 0001:00222e6c       __acrt_initialize_multibyte 0000000180223e6c f   libucrt:mbctype.obj
 0001:00222ecc       __acrt_update_thread_multibyte_data 0000000180223ecc f   libucrt:mbctype.obj
 0001:00222ee8       _setmbcp_nolock            0000000180223ee8 f   libucrt:mbctype.obj
 0001:0022321c       _ismbblead                 000000018022421c f   libucrt:ismbbyte.obj
 0001:00223230       __acrt_initialize_command_line 0000000180224230 f   libucrt:argv_data.obj
 0001:00223258       __acrt_MultiByteToWideChar 0000000180224258 f   libucrt:multibytetowidechar.obj
 0001:002232e8       __acrt_WideCharToMultiByte 00000001802242e8 f   libucrt:widechartomultibyte.obj
 0001:002233c8       __dcrt_get_narrow_environment_from_os 00000001802243c8 f   libucrt:get_environment_from_os.obj
 0001:002234d8       _recalloc_base             00000001802244d8 f   libucrt:recalloc.obj
 0001:00223570       __acrt_initialize_heap     0000000180224570 f   libucrt:heap_handle.obj
 0001:0022358c       __acrt_uninitialize_heap   000000018022458c f   libucrt:heap_handle.obj
 0001:00223598       __acrt_execute_initializers 0000000180224598 f   libucrt:shared_initialization.obj
 0001:0022362c       __acrt_execute_uninitializers 000000018022462c f   libucrt:shared_initialization.obj
 0001:00223674       __acrt_initialize_new_handler 0000000180224674 f   libucrt:new_handler.obj
 0001:0022367c       _callnewh                  000000018022467c f   libucrt:new_handler.obj
 0001:002236bc       _query_new_handler         00000001802246bc f   libucrt:new_handler.obj
 0001:0022373c       __acrt_get_sigabrt_handler 000000018022473c f   libucrt:signal.obj
 0001:0022376c       __acrt_initialize_signal_handlers 000000018022476c f   libucrt:signal.obj
 0001:0022378c       raise                      000000018022478c f   libucrt:signal.obj
 0001:00223a08       __acrt_has_user_matherr    0000000180224a08 f   libucrt:matherr.obj
 0001:00223a28       __acrt_initialize_user_matherr 0000000180224a28 f   libucrt:matherr.obj
 0001:00223a30       __acrt_invoke_user_matherr 0000000180224a30 f   libucrt:matherr.obj
 0001:00223a6c       __pctype_func              0000000180224a6c f   libucrt:ctype.obj
 0001:00223a9c       _isctype_l                 0000000180224a9c f   libucrt:isctype.obj
 0001:00223bc0       _get_fpsr                  0000000180224bc0 f   libucrt:fpsr.obj
 0001:00223bd0       _set_fpsr                  0000000180224bd0 f   libucrt:fpsr.obj
 0001:00223bda       _fclrf                     0000000180224bda f   libucrt:fpsr.obj
 0001:00223bee       _frnd                      0000000180224bee f   libucrt:fpsr.obj
 0001:00223c10       _query_new_mode            0000000180224c10 f   libucrt:new_mode.obj
 0001:00223c18       __acrt_DownlevelLocaleNameToLCID 0000000180224c18 f   libucrt:lcidtoname_downlevel.obj
 0001:00223de0       fclose                     0000000180224de0 f   libucrt:fclose.obj
 0001:00223f04       _commit                    0000000180224f04 f   libucrt:commit.obj
 0001:002247a0       _write_internal            00000001802257a0 f   libucrt:write.obj
 0001:002248c0       _write_nolock              00000001802258c0 f   libucrt:write.obj
 0001:00224bc8       __acrt_lowio_create_handle_array 0000000180225bc8 f   libucrt:osfinfo.obj
 0001:00224c70       __acrt_lowio_destroy_handle_array 0000000180225c70 f   libucrt:osfinfo.obj
 0001:00224cc0       __acrt_lowio_ensure_fh_exists 0000000180225cc0 f   libucrt:osfinfo.obj
 0001:00224d68       __acrt_lowio_lock_fh       0000000180225d68 f   libucrt:osfinfo.obj
 0001:00224d90       __acrt_lowio_unlock_fh     0000000180225d90 f   libucrt:osfinfo.obj
 0001:00224db8       _free_osfhnd               0000000180225db8 f   libucrt:osfinfo.obj
 0001:00224e74       _get_osfhandle             0000000180225e74 f   libucrt:osfinfo.obj
 0001:00224eec       __acrt_add_locale_ref      0000000180225eec f   libucrt:locale_refcounting.obj
 0001:00224f78       __acrt_free_locale         0000000180225f78 f   libucrt:locale_refcounting.obj
 0001:002250f0       __acrt_locale_add_lc_time_reference 00000001802260f0 f   libucrt:locale_refcounting.obj
 0001:00225118       __acrt_locale_free_lc_time_if_unreferenced 0000000180226118 f   libucrt:locale_refcounting.obj
 0001:00225150       __acrt_locale_release_lc_time_reference 0000000180226150 f   libucrt:locale_refcounting.obj
 0001:00225178       __acrt_release_locale_ref  0000000180226178 f   libucrt:locale_refcounting.obj
 0001:00225220       __acrt_update_thread_locale_data 0000000180226220 f   libucrt:locale_refcounting.obj
 0001:00225290       _updatetlocinfoEx_nolock   0000000180226290 f   libucrt:locale_refcounting.obj
 0001:002253c8       __acrt_fp_strflt_to_string 00000001802263c8 f   libucrt:_fptostr.obj
 0001:002254e0       ?divide@__crt_strtox@@YA_KAEAUbig_integer@1@AEBU21@@Z 00000001802264e0 f i libucrt:cfout.obj
 0001:0022597c       __acrt_fltout              000000018022697c f   libucrt:cfout.obj
 0001:00226c94       fegetround                 0000000180227c94 f   libucrt:fegetround.obj
 0001:00226ca8       ?__c32rtomb_utf8@__crt_mbstring@@YA_KPEAD_UPEAU_Mbstatet@@AEAV__crt_cached_ptd_host@@@Z 0000000180227ca8 f   libucrt:c32rtomb.obj
 0001:00226d4c       ?__mbrtowc_utf8@__crt_mbstring@@YA_KPEA_WPEBD_KPEAU_Mbstatet@@AEAV__crt_cached_ptd_host@@@Z 0000000180227d4c f   libucrt:mbrtowc.obj
 0001:00226d90       ?__mbsrtowcs_utf8@__crt_mbstring@@YA_KPEA_WPEAPEBD_KPEAU_Mbstatet@@AEAV__crt_cached_ptd_host@@@Z 0000000180227d90 f   libucrt:mbrtowc.obj
 0001:002270a8       __acrt_stdio_flush_and_write_narrow_nolock 00000001802280a8 f   libucrt:_flsbuf.obj
 0001:00227174       _isatty                    0000000180228174 f   libucrt:isatty.obj
 0001:002271d4       __acrt_locale_free_monetary 00000001802281d4 f   libucrt:initmon.obj
 0001:002272e0       __acrt_locale_free_numeric 00000001802282e0 f   libucrt:initnum.obj
 0001:00227380       __acrt_locale_free_time    0000000180228380 f   libucrt:inittime.obj
 0001:00227488       __acrt_GetStringTypeA      0000000180228488 f   libucrt:getstringtypea.obj
 0001:00227618       _raise_exc                 0000000180228618 f   libucrt:fpexcept.obj
 0001:00227640       _raise_exc_ex              0000000180228640 f   libucrt:fpexcept.obj
 0001:00227948       _raise_excf                0000000180228948 f   libucrt:fpexcept.obj
 0001:00227974       _set_errno_from_matherr    0000000180228974 f   libucrt:fpexcept.obj
 0001:002279b0       qsort                      00000001802289b0 f   libucrt:qsort.obj
 0001:00227dc0       strncpy_s                  0000000180228dc0 f   libucrt:strncpy_s.obj
 0001:00227f50       strpbrk                    0000000180228f50 f   libucrt:strpbrk.obj
 0001:00228318       _mbsdec                    0000000180229318 f   libucrt:mbsdec.obj
 0001:00228320       _mbsdec_l                  0000000180229320 f   libucrt:mbsdec.obj
 0001:002286e8       __acrt_LCMapStringA        00000001802296e8 f   libucrt:lcmapstringa.obj
 0001:00228798       _msize_base                0000000180229798 f   libucrt:msize.obj
 0001:002287d4       _realloc_base              00000001802297d4 f   libucrt:realloc_base.obj
 0001:00228850       __ascii_wcsnicmp           0000000180229850 f   libucrt:wcsnicmp.obj
 0001:00228914       _close_internal            0000000180229914 f   libucrt:close.obj
 0001:002289d8       _close_nolock_internal     00000001802299d8 f   libucrt:close.obj
 0001:00228aa8       ?__acrt_stdio_free_stream@@YAXV__crt_stdio_stream@@@Z 0000000180229aa8 f   libucrt:stream.obj
 0001:00228c90       _lseeki64                  0000000180229c90 f   libucrt:lseek.obj
 0001:00228d2c       _lseeki64_nolock_internal  0000000180229d2c f   libucrt:lseek.obj
 0001:00228d34       _putwch_nolock             0000000180229d34 f   libucrt:putwch.obj
 0001:00228d70       _query_app_type            0000000180229d70 f   libucrt:report_runtime_error.obj
 0001:00228d78       _controlfp_s               0000000180229d78 f   libucrt:contrlfp.obj
 0001:00228ddc       fegetenv                   0000000180229ddc f   libucrt:fegetenv.obj
 0001:00228dfc       fesetenv                   0000000180229dfc f   libucrt:fesetenv.obj
 0001:00228e54       feholdexcept               0000000180229e54 f   libucrt:feholdexcept.obj
 0001:00228ea4       ceil                       0000000180229ea4 f   libucrt:ceil.obj
 0001:00228f70       log10                      0000000180229f70 f   libucrt:log10.obj
 0001:0022951c       __acrt_fenv_get_common_round_control 000000018022a51c f   libucrt:_fenvutils.obj
 0001:00229528       __acrt_fenv_get_control    000000018022a528 f   libucrt:_fenvutils.obj
 0001:0022960c       __acrt_fenv_get_status     000000018022a60c f   libucrt:_fenvutils.obj
 0001:00229664       __acrt_fenv_set_control    000000018022a664 f   libucrt:_fenvutils.obj
 0001:0022979c       __acrt_fenv_set_status     000000018022a79c f   libucrt:_fenvutils.obj
 0001:00229810       ?reset_and_return@__crt_mbstring@@YA_K_KPEAU_Mbstatet@@@Z 000000018022a810 f   libucrt:common_utf8.obj
 0001:00229818       ?return_illegal_sequence@__crt_mbstring@@YA_KPEAU_Mbstatet@@AEAV__crt_cached_ptd_host@@@Z 000000018022a818 f   libucrt:common_utf8.obj
 0001:0022982c       ?__mbrtoc32_utf8@__crt_mbstring@@YA_KPEA_UPEBD_KPEAU_Mbstatet@@AEAV__crt_cached_ptd_host@@@Z 000000018022a82c f   libucrt:mbrtoc32.obj
 0001:00229a08       __acrt_stdio_allocate_buffer_nolock 000000018022aa08 f   libucrt:_getbuf.obj
 0001:00229a74       __strncnt                  000000018022aa74 f   libucrt:strncnt.obj
 0001:00229a8c       __dcrt_lowio_ensure_console_output_initialized 000000018022aa8c f   libucrt:initcon.obj
 0001:00229ae0       __dcrt_terminate_console_output 000000018022aae0 f   libucrt:initcon.obj
 0001:00229afc       __dcrt_write_console       000000018022aafc f   libucrt:initcon.obj
 0001:00229bbc       _clearfp                   000000018022abbc f   libucrt:ieee.obj
 0001:00229c28       _control87                 000000018022ac28 f   libucrt:ieee.obj
 0001:00229ed0       _log10_special             000000018022aed0 f   libucrt:log_special.obj
 0001:00229f90       _FindPESection             000000018022af90 f   LIBCMT:pesect.obj
 0001:00229fe0       _IsNonwritableInCurrentImage 000000018022afe0 f   LIBCMT:pesect.obj
 0001:0022a030       _ValidateImageBase         000000018022b030 f   LIBCMT:pesect.obj
 0001:0022a05c       __GSHandlerCheck           000000018022b05c f   LIBCMT:gshandler.obj
 0001:0022a07c       __GSHandlerCheckCommon     000000018022b07c f   LIBCMT:gshandler.obj
 0001:0022a0f0       __security_check_cookie    000000018022b0f0 f   LIBCMT:amdsecgs.obj
 0001:0022a110       __GSHandlerCheck_SEH       000000018022b110 f   LIBCMT:gshandlerseh.obj
 0001:0022a198       __raise_securityfailure    000000018022b198 f   LIBCMT:gs_report.obj
 0001:0022a1cc       __report_gsfailure         000000018022b1cc f   LIBCMT:gs_report.obj
 0001:0022a2a0       __report_rangecheckfailure 000000018022b2a0 f   LIBCMT:gs_report.obj
 0001:0022a2b4       __report_securityfailure   000000018022b2b4 f   LIBCMT:gs_report.obj
 0001:0022a438       __GSHandlerCheck_EH        000000018022b438 f   LIBCMT:gshandlereh.obj
 0001:0022a4b8       __C_specific_handler_noexcept 000000018022b4b8 f   libvcruntime:chandler_noexcept.obj
 0001:0022a504       strrchr                    000000018022b504 f   libvcruntime:strrchr.obj
 0001:0022a650       _guard_dispatch_icall_nop  000000018022b650 f   LIBCMT:guard_dispatch.obj
 0001:0022a670       _guard_xfg_dispatch_icall_nop 000000018022b670 f   LIBCMT:guard_xfg_dispatch.obj
 0001:0022a6a0       memcpy_repmovs             000000018022b6a0 f   libvcruntime:memcpy.obj
 0001:0022a6b0       memcpy                     000000018022b6b0 f   libvcruntime:memcpy.obj
 0001:0022a6b0       memcpy_$fo_default$        000000018022b6b0     libvcruntime:memcpy.obj
 0001:0022a6b0       memmove                    000000018022b6b0 f   libvcruntime:memcpy.obj
 0001:0022ad40       memset_repstos             000000018022bd40 f   libvcruntime:memset.obj
 0001:0022ad50       memset                     000000018022bd50 f   libvcruntime:memset.obj
 0002:00000000       __imp_GetLastError         000000018022d000     kernel32:KERNEL32.dll
 0002:00000008       __imp_FreeLibrary          000000018022d008     kernel32:KERNEL32.dll
 0002:00000010       __imp_GetProcAddress       000000018022d010     kernel32:KERNEL32.dll
 0002:00000018       __imp_LoadLibraryA         000000018022d018     kernel32:KERNEL32.dll
 0002:00000020       __imp_RaiseException       000000018022d020     kernel32:KERNEL32.dll
 0002:00000028       __imp_GetSystemInfo        000000018022d028     kernel32:KERNEL32.dll
 0002:00000030       __imp_VirtualProtect       000000018022d030     kernel32:KERNEL32.dll
 0002:00000038       __imp_VirtualQuery         000000018022d038     kernel32:KERNEL32.dll
 0002:00000040       __imp_GetModuleHandleW     000000018022d040     kernel32:KERNEL32.dll
 0002:00000048       __imp_LoadLibraryExA       000000018022d048     kernel32:KERNEL32.dll
 0002:00000050       __imp_InitializeSListHead  000000018022d050     kernel32:KERNEL32.dll
 0002:00000058       __imp_RtlCaptureContext    000000018022d058     kernel32:KERNEL32.dll
 0002:00000060       __imp_RtlLookupFunctionEntry 000000018022d060     kernel32:KERNEL32.dll
 0002:00000068       __imp_RtlVirtualUnwind     000000018022d068     kernel32:KERNEL32.dll
 0002:00000070       __imp_IsDebuggerPresent    000000018022d070     kernel32:KERNEL32.dll
 0002:00000078       __imp_UnhandledExceptionFilter 000000018022d078     kernel32:KERNEL32.dll
 0002:00000080       __imp_SetUnhandledExceptionFilter 000000018022d080     kernel32:KERNEL32.dll
 0002:00000088       __imp_GetStartupInfoW      000000018022d088     kernel32:KERNEL32.dll
 0002:00000090       __imp_IsProcessorFeaturePresent 000000018022d090     kernel32:KERNEL32.dll
 0002:00000098       __imp_QueryPerformanceCounter 000000018022d098     kernel32:KERNEL32.dll
 0002:000000a0       __imp_GetCurrentProcessId  000000018022d0a0     kernel32:KERNEL32.dll
 0002:000000a8       __imp_GetCurrentThreadId   000000018022d0a8     kernel32:KERNEL32.dll
 0002:000000b0       __imp_GetSystemTimeAsFileTime 000000018022d0b0     kernel32:KERNEL32.dll
 0002:000000b8       __imp_InterlockedPushEntrySList 000000018022d0b8     kernel32:KERNEL32.dll
 0002:000000c0       __imp_InterlockedFlushSList 000000018022d0c0     kernel32:KERNEL32.dll
 0002:000000c8       __imp_RtlUnwindEx          000000018022d0c8     kernel32:KERNEL32.dll
 0002:000000d0       __imp_SetLastError         000000018022d0d0     kernel32:KERNEL32.dll
 0002:000000d8       __imp_EnterCriticalSection 000000018022d0d8     kernel32:KERNEL32.dll
 0002:000000e0       __imp_LeaveCriticalSection 000000018022d0e0     kernel32:KERNEL32.dll
 0002:000000e8       __imp_DeleteCriticalSection 000000018022d0e8     kernel32:KERNEL32.dll
 0002:000000f0       __imp_InitializeCriticalSectionAndSpinCount 000000018022d0f0     kernel32:KERNEL32.dll
 0002:000000f8       __imp_TlsAlloc             000000018022d0f8     kernel32:KERNEL32.dll
 0002:00000100       __imp_TlsGetValue          000000018022d100     kernel32:KERNEL32.dll
 0002:00000108       __imp_TlsSetValue          000000018022d108     kernel32:KERNEL32.dll
 0002:00000110       __imp_TlsFree              000000018022d110     kernel32:KERNEL32.dll
 0002:00000118       __imp_LoadLibraryExW       000000018022d118     kernel32:KERNEL32.dll
 0002:00000120       __imp_EncodePointer        000000018022d120     kernel32:KERNEL32.dll
 0002:00000128       __imp_RtlPcToFileHeader    000000018022d128     kernel32:KERNEL32.dll
 0002:00000130       __imp_GetCurrentProcess    000000018022d130     kernel32:KERNEL32.dll
 0002:00000138       __imp_ExitProcess          000000018022d138     kernel32:KERNEL32.dll
 0002:00000140       __imp_TerminateProcess     000000018022d140     kernel32:KERNEL32.dll
 0002:00000148       __imp_GetModuleHandleExW   000000018022d148     kernel32:KERNEL32.dll
 0002:00000150       __imp_GetModuleFileNameW   000000018022d150     kernel32:KERNEL32.dll
 0002:00000158       __imp_HeapAlloc            000000018022d158     kernel32:KERNEL32.dll
 0002:00000160       __imp_HeapFree             000000018022d160     kernel32:KERNEL32.dll
 0002:00000168       __imp_FlsAlloc             000000018022d168     kernel32:KERNEL32.dll
 0002:00000170       __imp_FlsGetValue          000000018022d170     kernel32:KERNEL32.dll
 0002:00000178       __imp_FlsSetValue          000000018022d178     kernel32:KERNEL32.dll
 0002:00000180       __imp_FlsFree              000000018022d180     kernel32:KERNEL32.dll
 0002:00000188       __imp_LCMapStringW         000000018022d188     kernel32:KERNEL32.dll
 0002:00000190       __imp_GetStdHandle         000000018022d190     kernel32:KERNEL32.dll
 0002:00000198       __imp_GetFileType          000000018022d198     kernel32:KERNEL32.dll
 0002:000001a0       __imp_FindClose            000000018022d1a0     kernel32:KERNEL32.dll
 0002:000001a8       __imp_FindFirstFileExW     000000018022d1a8     kernel32:KERNEL32.dll
 0002:000001b0       __imp_FindNextFileW        000000018022d1b0     kernel32:KERNEL32.dll
 0002:000001b8       __imp_IsValidCodePage      000000018022d1b8     kernel32:KERNEL32.dll
 0002:000001c0       __imp_GetACP               000000018022d1c0     kernel32:KERNEL32.dll
 0002:000001c8       __imp_GetOEMCP             000000018022d1c8     kernel32:KERNEL32.dll
 0002:000001d0       __imp_GetCPInfo            000000018022d1d0     kernel32:KERNEL32.dll
 0002:000001d8       __imp_GetCommandLineA      000000018022d1d8     kernel32:KERNEL32.dll
 0002:000001e0       __imp_GetCommandLineW      000000018022d1e0     kernel32:KERNEL32.dll
 0002:000001e8       __imp_MultiByteToWideChar  000000018022d1e8     kernel32:KERNEL32.dll
 0002:000001f0       __imp_WideCharToMultiByte  000000018022d1f0     kernel32:KERNEL32.dll
 0002:000001f8       __imp_GetEnvironmentStringsW 000000018022d1f8     kernel32:KERNEL32.dll
 0002:00000200       __imp_FreeEnvironmentStringsW 000000018022d200     kernel32:KERNEL32.dll
 0002:00000208       __imp_GetProcessHeap       000000018022d208     kernel32:KERNEL32.dll
 0002:00000210       __imp_FlushFileBuffers     000000018022d210     kernel32:KERNEL32.dll
 0002:00000218       __imp_WriteFile            000000018022d218     kernel32:KERNEL32.dll
 0002:00000220       __imp_GetConsoleOutputCP   000000018022d220     kernel32:KERNEL32.dll
 0002:00000228       __imp_GetConsoleMode       000000018022d228     kernel32:KERNEL32.dll
 0002:00000230       __imp_SetStdHandle         000000018022d230     kernel32:KERNEL32.dll
 0002:00000238       __imp_GetFileSizeEx        000000018022d238     kernel32:KERNEL32.dll
 0002:00000240       __imp_SetFilePointerEx     000000018022d240     kernel32:KERNEL32.dll
 0002:00000248       __imp_GetStringTypeW       000000018022d248     kernel32:KERNEL32.dll
 0002:00000250       __imp_HeapSize             000000018022d250     kernel32:KERNEL32.dll
 0002:00000258       __imp_HeapReAlloc          000000018022d258     kernel32:KERNEL32.dll
 0002:00000260       __imp_CloseHandle          000000018022d260     kernel32:KERNEL32.dll
 0002:00000268       __imp_CreateFileW          000000018022d268     kernel32:KERNEL32.dll
 0002:00000270       __imp_WriteConsoleW        000000018022d270     kernel32:KERNEL32.dll
 0002:00000278       \177KERNEL32_NULL_THUNK_DATA 000000018022d278     kernel32:KERNEL32.dll
 0002:00000280       __guard_check_icall_fptr   000000018022d280     LIBCMT:guard_support.obj
 0002:00000288       __guard_xfg_check_icall_fptr 000000018022d288     LIBCMT:guard_support.obj
 0002:00000290       __guard_dispatch_icall_fptr 000000018022d290     LIBCMT:guard_support.obj
 0002:00000298       __guard_xfg_dispatch_icall_fptr 000000018022d298     LIBCMT:guard_support.obj
 0002:000002a0       __guard_xfg_table_dispatch_icall_fptr 000000018022d2a0     LIBCMT:guard_support.obj
 0002:000002a8       __castguard_check_failure_os_handled_fptr 000000018022d2a8     LIBCMT:guard_support.obj
 0002:000002b0       __guard_memcpy_fptr        000000018022d2b0     libvcruntime:softmemtag.obj
 0002:000002b8       __xc_a                     000000018022d2b8     LIBCMT:initializers.obj
 0002:00001de0       __xc_z                     000000018022ede0     LIBCMT:initializers.obj
 0002:00001de8       __xi_a                     000000018022ede8     LIBCMT:initializers.obj
 0002:00001df0       __acrt_stdio_initializer   000000018022edf0     libucrt:stdio_initializer.obj
 0002:00001df8       __acrt_tran_fma3_initializer 000000018022edf8     libucrt:fma3_initializer.obj
 0002:00001e00       __acrt_multibyte_initializer 000000018022ee00     libucrt:multibyte_initializer.obj
 0002:00001e08       __xi_z                     000000018022ee08     LIBCMT:initializers.obj
 0002:00001e10       __xp_a                     000000018022ee10     LIBCMT:initializers.obj
 0002:00001e18       __acrt_locale_terminator   000000018022ee18     libucrt:locale_initializer.obj
 0002:00001e20       __dcrt_console_output_terminator 000000018022ee20     libucrt:console_output_initializer.obj
 0002:00001e28       __acrt_stdio_terminator    000000018022ee28     libucrt:stdio_initializer.obj
 0002:00001e30       __xp_z                     000000018022ee30     LIBCMT:initializers.obj
 0002:00001e38       __xt_a                     000000018022ee38     LIBCMT:initializers.obj
 0002:00001e40       __xt_z                     000000018022ee40     LIBCMT:initializers.obj
 0002:00001e50       ??_C@_08MDGMHCHN@PtrTable@ 000000018022ee50     CmPtrTable.obj
 0002:00001e5c       ??_C@_04GKJNKENE@void@     000000018022ee5c     CmPtrTable.obj
 0002:00001e68       ??_C@_07DFEBJDHE@mSingle@  000000018022ee68     CmPtrTable.obj
 0002:00001e70       ??_C@_05NLHHBMOH@PxU16@    000000018022ee70     CmPtrTable.obj
 0002:00001e78       ??_C@_06EPKHJPIM@mCount@   000000018022ee78     CmPtrTable.obj
 0002:00001e80       ??_C@_04DDKJGDCM@bool@     000000018022ee80     CmPtrTable.obj
 0002:00001e88       ??_C@_0M@DAGELID@mOwnsMemory@ 000000018022ee88     CmPtrTable.obj
 0002:00001e98       ??_C@_0M@MMPOMMLP@mBufferUsed@ 000000018022ee98     CmPtrTable.obj
 0002:00001ea4       ??_C@_05LMJPANIN@PxU32@    000000018022eea4     CmPtrTable.obj
 0002:00001eb0       ??_C@_09PMLNMEMN@mFreeSlot@ 000000018022eeb0     CmPtrTable.obj
 0002:00001ec0       ??_7PxCollection@physx@@6B@ 000000018022eec0     CmCollection.obj
 0002:00001f40       ??_C@_00CNPNBAHC@@         000000018022ef40     CmCollection.obj
 0002:00001f48       ??_7Collection@Cm@physx@@6B@ 000000018022ef48     CmCollection.obj
 0002:00001fd0       ??_C@_0GE@GBACBMOC@PxCollection?3?3add?5called?5for?5an@ 000000018022efd0     CmCollection.obj
 0002:00002038       ??_C@_0DG@BECKMLKO@C?3?2Dev?2PhysX?2physx?2source?2commo@ 000000018022f038     CmCollection.obj
 0002:00002070       ??_C@_0EM@OMMGDOMK@PxCollection?3?3add?5called?5with?5a@ 000000018022f070     CmCollection.obj
 0002:000020c0       ??_C@_0DI@KCPCOFDD@C?3?2Dev?2PhysX?2physx?2include?2foun@ 000000018022f0c0     CmCollection.obj
 0002:000020f8       ??_C@_0BM@OIFKLHDN@?$DMallocation?5names?5disabled?$DO@ 000000018022f0f8     CmCollection.obj
 0002:00002118       ??_7RadixSort@Cm@physx@@6B@ 000000018022f118     CmRadixSort.obj
 0002:00002120       ??_7RadixSortBuffered@Cm@physx@@6B@ 000000018022f120     CmRadixSort.obj
 0002:00002128       ??_C@_0DF@PDAHIDCN@C?3?2Dev?2PhysX?2physx?2source?2commo@ 000000018022f128     CmRadixSort.obj
 0002:00002160       __xmm@00000001000000010000000100000001 000000018022f160     CmRadixSort.obj
 0002:00002170       __xmm@00000003000000020000000100000000 000000018022f170     CmRadixSort.obj
 0002:00002180       __real@3d4ccccd            000000018022f180     CmVisualization.obj
 0002:00002184       __real@3e19999a            000000018022f184     CmVisualization.obj
 0002:00002188       __real@3e490fdb            000000018022f188     CmVisualization.obj
 0002:0000218c       __real@3e800000            000000018022f18c     CmVisualization.obj
 0002:00002190       __real@3e99999a            000000018022f190     CmVisualization.obj
 0002:00002194       __real@3ea0d97c            000000018022f194     CmVisualization.obj
 0002:00002198       __real@3f000000            000000018022f198     CmVisualization.obj
 0002:0000219c       __real@3f3504f3            000000018022f19c     CmVisualization.obj
 0002:000021a0       __real@3f800000            000000018022f1a0     CmVisualization.obj
 0002:000021a4       __real@3fc00000            000000018022f1a4     CmVisualization.obj
 0002:000021a8       __real@3fddb3d7            000000018022f1a8     CmVisualization.obj
 0002:000021ac       __real@40100000            000000018022f1ac     CmVisualization.obj
 0002:000021b0       __real@40c90fdb            000000018022f1b0     CmVisualization.obj
 0002:000021b4       __real@40d80000            000000018022f1b4     CmVisualization.obj
 0002:000021b8       __real@c0000000            000000018022f1b8     CmVisualization.obj
 0002:000021c0       __xmm@3f800000000000000000000000000000 000000018022f1c0     CmVisualization.obj
 0002:000021d0       __xmm@7fffffff7fffffff7fffffff7fffffff 000000018022f1d0     CmVisualization.obj
 0002:000021e0       __xmm@80000000800000008000000080000000 000000018022f1e0     CmVisualization.obj
 0002:000021f0       ??_C@_0BB@CPDDPFKD@GetUpdatedModule@ 000000018022f1f0     CmWindowsModuleUpdateLoader.obj
 0002:00002210       ??_C@_0EN@BJFFFDPP@C?3?2Dev?2PhysX?2physx?2source?2commo@ 000000018022f210     CmWindowsModuleUpdateLoader.obj
 0002:00002260       ??_C@_0CP@PGOIOJOO@?$CFs?3?$CFi?3?5loadLibrary?5error?5when?5l@ 000000018022f260     CmWindowsModuleUpdateLoader.obj
 0002:00002290       ??_C@_0BA@EGLNOO@PhysXFoundation@ 000000018022f290     CmWindowsDelayLoadHook.obj
 0002:000022a0       ??_C@_0M@ILKNCJKN@PhysXCommon@ 000000018022f2a0     CmWindowsDelayLoadHook.obj
 0002:000022d0       __real@3f7ff972            000000018022f2d0     GuBox.obj
 0002:000022e0       __xmm@000000003a83126f3a83126f3a83126f 000000018022f2e0     GuBox.obj
 0002:000022f0       __xmm@00000000ba83126fba83126fba83126f 000000018022f2f0     GuBox.obj
 0002:00002300       __xmm@3a83126f3a83126f3a83126f3a83126f 000000018022f300     GuBox.obj
 0002:00002310       __xmm@ba83126fba83126fba83126fba83126f 000000018022f310     GuBox.obj
 0002:00002340       ??_7EntityReport@Gu@physx@@6B@ 000000018022f340     GuSweepsHF.obj
 0002:00002340       ??_7OverlapCallback@PxBVH@physx@@6B@ 000000018022f340     GuQuerySystem.obj
 0002:00002340       ??_7OverlapReport@Gu@physx@@6B@ 000000018022f340     GuCCTSweepTests.obj
 0002:00002340       ??_7RaycastCallback@PxBVH@physx@@6B@ 000000018022f340     GuQuerySystem.obj
 0002:00002340       ??_7RemapCallback@RTreeCooker@physx@@6B@ 000000018022f340     GuCookingTriangleMesh.obj
 0002:00002360       __real@3b03126f            000000018022f360     GuCCTSweepTests.obj
 0002:00002364       __real@40000000            000000018022f364     GuCCTSweepTests.obj
 0002:000023a0       ??_7SupportLocal@Gu@physx@@6B@ 000000018022f3a0     GuGeometryQuery.obj
 0002:000023c0       ??_7?$SupportLocalImpl@VBoxV@Gu@physx@@@Gu@physx@@6B@ 000000018022f3c0     GuGeometryQuery.obj
 0002:000023e0       ??_7?$SupportLocalImpl@VConvexHullV@Gu@physx@@@Gu@physx@@6B@ 000000018022f3e0     GuGeometryQuery.obj
 0002:00002400       ??_C@_0DA@FEGDDCJG@C?3?2Dev?2PhysX?2physx?2include?2foun@ 000000018022f400     GuGeometryQuery.obj
 0002:00002430       __real@30d1b7e9            000000018022f430     GuGeometryQuery.obj
 0002:00002434       __real@322bcc77            000000018022f434     GuGeometryQuery.obj
 0002:00002438       __real@358637bd            000000018022f438     GuGeometryQuery.obj
 0002:0000243c       __real@3a83126f            000000018022f43c     GuGeometryQuery.obj
 0002:00002440       __real@3ccccccd            000000018022f440     GuGeometryQuery.obj
 0002:00002444       __real@3dcccccd            000000018022f444     GuGeometryQuery.obj
 0002:00002448       __real@49742400            000000018022f448     GuGeometryQuery.obj
 0002:0000244c       __real@7f7fffff            000000018022f44c     GuGeometryQuery.obj
 0002:00002450       __real@bf800000            000000018022f450     GuGeometryQuery.obj
 0002:00002460       __xmm@0000000000000000000000003f800000 000000018022f460     GuGeometryQuery.obj
 0002:00002470       __xmm@00000000000000003f80000000000000 000000018022f470     GuGeometryQuery.obj
 0002:00002480       __xmm@00000000000000003f8000003f800000 000000018022f480     GuGeometryQuery.obj
 0002:00002490       __xmm@000000003f8000000000000000000000 000000018022f490     GuGeometryQuery.obj
 0002:000024a0       __xmm@000000003f8000003f8000003f800000 000000018022f4a0     GuGeometryQuery.obj
 0002:000024b0       __xmm@00000000ffffffffffffffffffffffff 000000018022f4b0     GuGeometryQuery.obj
 0002:000024c0       __xmm@3d4ccccd3d4ccccd3d4ccccd3d4ccccd 000000018022f4c0     GuGeometryQuery.obj
 0002:000024d0       __xmm@3e19999a3e19999a3e19999a3e19999a 000000018022f4d0     GuGeometryQuery.obj
 0002:000024e0       __xmm@3e4ccccd3e4ccccd3e4ccccd3e4ccccd 000000018022f4e0     GuGeometryQuery.obj
 0002:000024f0       __xmm@3e8000003e8000003e8000003e800000 000000018022f4f0     GuGeometryQuery.obj
 0002:00002500       __xmm@3f7ef9db3f7ef9db3f7ef9db3f7ef9db 000000018022f500     GuGeometryQuery.obj
 0002:00002510       __xmm@3f7ff2e53f7ff2e53f7ff2e53f7ff2e5 000000018022f510     GuGeometryQuery.obj
 0002:00002520       __xmm@3f8000003f8000003f8000003f800000 000000018022f520     GuGeometryQuery.obj
 0002:00002530       __xmm@7f7fffff7f7fffff7f7fffff7f7fffff 000000018022f530     GuGeometryQuery.obj
 0002:00002540       __xmm@bf000000bf000000bf000000bf000000 000000018022f540     GuGeometryQuery.obj
 0002:00002590       ??_7CallbackRaycast@RTree@Gu@physx@@6B@ 000000018022f590     GuMidphaseRTree.obj
 0002:00002590       ??_7CallbackRefit@RTree@Gu@physx@@6B@ 000000018022f590     GuTriangleMeshRTree.obj
 0002:00002590       ??_7PxInsertionCallback@physx@@6B@ 000000018022f590     GuMeshFactory.obj
 0002:000025a0       ??_C@_0DK@KGHNNDOH@C?3?2Dev?2PhysX?2physx?2source?2geomu@ 000000018022f5a0     GuMeshFactory.obj
 0002:000025f0       ??_C@_0EM@BDFDGBD@Inserting?5object?5failed?3?5Object@ 000000018022f5f0     GuMeshFactory.obj
 0002:00002640       ??_7PxCollisionMeshMappingData@physx@@6B@ 000000018022f640     GuMeshFactory.obj
 0002:00002650       ??_7MeshFactory@Gu@physx@@6B@ 000000018022f650     GuMeshFactory.obj
 0002:00002658       ??_7MeshDataBase@Gu@physx@@6B@ 000000018022f658     GuMeshFactory.obj
 0002:00002660       ??_C@_0DK@EIKLNNGA@C?3?2Dev?2PhysX?2physx?2source?2geomu@ 000000018022f660     GuMeshFactory.obj
 0002:000026a0       ??_7TriangleMeshData@Gu@physx@@6B@ 000000018022f6a0     GuMeshFactory.obj
 0002:000026a8       ??_7RTreeTriangleData@Gu@physx@@6B@ 000000018022f6a8     GuMeshFactory.obj
 0002:000026b0       ??_7BV4TriangleData@Gu@physx@@6B@ 000000018022f6b0     GuMeshFactory.obj
 0002:000026b8       ??_7DeformableVolumeCollisionData@Gu@physx@@6B@ 000000018022f6b8     GuMeshFactory.obj
 0002:000026c0       ??_7CollisionMeshMappingData@Gu@physx@@6B@ 000000018022f6c0     GuMeshFactory.obj
 0002:000026d0       ??_7DeformableVolumeSimulationData@Gu@physx@@6B@ 000000018022f6d0     GuMeshFactory.obj
 0002:000026e0       ??_C@_0GP@NHELMDAL@Loading?5triangle?5mesh?5failed?3?5D@ 000000018022f6e0     GuMeshFactory.obj
 0002:00002750       ??_C@_0BP@CDOKDACA@RTree?5binary?5image?5load?5error?4@ 000000018022f750     GuMeshFactory.obj
 0002:00002770       ??_C@_0BN@MJPNIELF@BV4?5binary?5image?5load?5error?4@ 000000018022f770     GuMeshFactory.obj
 0002:00002790       ??_C@_0BO@JDPABAOF@BV32?5binary?5image?5load?5error?4@ 000000018022f790     GuMeshFactory.obj
 0002:000027b0       ??_C@_0DA@FNAODLOP@C?3?2Dev?2PhysX?2physx?2include?2foun@ 000000018022f7b0     GuMeshFactory.obj
 0002:000027e0       __xmm@fe7fffff7e7fffff7e7fffff7e7fffff 000000018022f7e0     GuMeshFactory.obj
 0002:00002810       ??_C@_06EJKDJEDO@PxBase@   000000018022f810     GuMetaData.obj
 0002:00002818       ??_C@_07GFCEJNGM@Valency@  000000018022f818     GuMetaData.obj
 0002:00002820       ??_C@_07NHGKEEIN@mOffset@  000000018022f820     GuMetaData.obj
 0002:00002828       ??_C@_0BB@BAGHBMNJ@BigConvexRawData@ 000000018022f828     GuMetaData.obj
 0002:00002840       ??_C@_07PBDEJAAC@mSubdiv@  000000018022f840     GuMetaData.obj
 0002:00002848       ??_C@_0L@HNPACPGH@mNbSamples@ 000000018022f848     GuMetaData.obj
 0002:00002854       ??_C@_04NCKNBPPK@PxU8@     000000018022f854     GuMetaData.obj
 0002:00002860       ??_C@_08DEPEKJNI@mSamples@ 000000018022f860     GuMetaData.obj
 0002:00002870       ??_C@_08IJDNJBMI@mNbVerts@ 000000018022f870     GuMetaData.obj
 0002:00002880       ??_C@_0M@MMKMIJAF@mNbAdjVerts@ 000000018022f880     GuMetaData.obj
 0002:00002890       ??_C@_0L@EOKMNILC@mValencies@ 000000018022f890     GuMetaData.obj
 0002:000028a0       ??_C@_0P@DLGEAMHJ@mAdjacentVerts@ 000000018022f8a0     GuMetaData.obj
 0002:000028b0       ??_C@_04GGOEHDKB@Dim3@     000000018022f8b0     GuMetaData.obj
 0002:000028b8       ??_C@_01FJMABOPO@x@        000000018022f8b8     GuMetaData.obj
 0002:000028bc       ??_C@_01EANLCPLP@y@        000000018022f8bc     GuMetaData.obj
 0002:000028c0       ??_C@_01GLPGHMHM@z@        000000018022f8c0     GuMetaData.obj
 0002:000028c4       ??_C@_03NGLDENDA@SDF@      000000018022f8c4     GuMetaData.obj
 0002:000028c8       ??_C@_06KDGGGLIJ@PxVec3@   000000018022f8c8     GuMetaData.obj
 0002:000028d0       ??_C@_0L@COALOJDH@mMeshLower@ 000000018022f8d0     GuMetaData.obj
 0002:000028dc       ??_C@_06GIEBFILM@PxReal@   000000018022f8dc     GuMetaData.obj
 0002:000028e8       ??_C@_08LAPKNLAN@mSpacing@ 000000018022f8e8     GuMetaData.obj
 0002:000028f4       ??_C@_05FFBHHGJO@mDims@    000000018022f8f4     GuMetaData.obj
 0002:00002900       ??_C@_08BEIPGJN@mNumSdfs@  000000018022f900     GuMetaData.obj
 0002:0000290c       ??_C@_04PNLOLEIP@mSdf@     000000018022f90c     GuMetaData.obj
 0002:00002918       ??_C@_0N@ILJLOAFB@mSubgridSize@ 000000018022f918     GuMetaData.obj
 0002:00002928       ??_C@_0P@EMNLEPPL@mNumStartSlots@ 000000018022f928     GuMetaData.obj
 0002:00002938       ??_C@_0BD@BIMMHJEO@mSubgridStartSlots@ 000000018022f938     GuMetaData.obj
 0002:00002950       ??_C@_0BA@OKNFKLGG@mNumSubgridSdfs@ 000000018022f950     GuMetaData.obj
 0002:00002960       ??_C@_0M@PGCPOAID@mSubgridSdf@ 000000018022f960     GuMetaData.obj
 0002:00002970       ??_C@_0BK@KJPHDIOI@mSdfSubgrids3DTexBlockDim@ 000000018022f970     GuMetaData.obj
 0002:00002990       ??_C@_0BF@PONLKCNL@mSubgridsMinSdfValue@ 000000018022f990     GuMetaData.obj
 0002:000029a8       ??_C@_0BF@GOKILCDB@mSubgridsMaxSdfValue@ 000000018022f9a8     GuMetaData.obj
 0002:000029c0       ??_C@_0BF@NMEHBGBK@mBytesPerSparsePixel@ 000000018022f9c0     GuMetaData.obj
 0002:000029d8       ??_C@_0O@PFOPBKAM@BigConvexData@ 000000018022f9d8     GuMetaData.obj
 0002:000029e8       ??_C@_05PLKALGFN@mData@    000000018022f9e8     GuMetaData.obj
 0002:000029f0       ??_C@_08PEMCLHEM@mVBuffer@ 000000018022f9f0     GuMetaData.obj
 0002:00002a00       ??_C@_09FBMAGD@Alignment@  000000018022fa00     GuMetaData.obj
 0002:00002a10       ??_C@_0BE@KFHIBEEA@InternalObjectsData@ 000000018022fa10     GuMetaData.obj
 0002:00002a28       ??_C@_0BB@FGDFDKPC@mInternalExtents@ 000000018022fa28     GuMetaData.obj
 0002:00002a40       ??_C@_0BA@LMFGPCMM@mInternalRadius@ 000000018022fa40     GuMetaData.obj
 0002:00002a50       ??_C@_0BA@LFMGGCBK@HullPolygonData@ 000000018022fa50     GuMetaData.obj
 0002:00002a60       ??_C@_06BOHHGLB@mPlane@    000000018022fa60     GuMetaData.obj
 0002:00002a68       ??_C@_06EHMLHGLN@mVRef8@   000000018022fa68     GuMetaData.obj
 0002:00002a70       ??_C@_09BAHHHINI@mMinIndex@ 000000018022fa70     GuMetaData.obj
 0002:00002a80       ??_C@_0P@GBLBPIPB@ConvexHullData@ 000000018022fa80     GuMetaData.obj
 0002:00002a90       ??_C@_09JDCJAPKD@PxBounds3@ 000000018022fa90     GuMetaData.obj
 0002:00002a9c       ??_C@_05NDNHIFA@mAABB@     000000018022fa9c     GuMetaData.obj
 0002:00002aa8       ??_C@_0O@LNOGEMJI@mCenterOfMass@ 000000018022faa8     GuMetaData.obj
 0002:00002ab8       ??_C@_09CNMCBBKH@mPolygons@ 000000018022fab8     GuMetaData.obj
 0002:00002ac8       ??_C@_0BC@KKPDCFJC@mBigConvexRawData@ 000000018022fac8     GuMetaData.obj
 0002:00002ae0       ??_C@_08MPNAAJLD@mSdfData@ 000000018022fae0     GuMetaData.obj
 0002:00002af0       ??_C@_08ELDMKGKH@mNbEdges@ 000000018022faf0     GuMetaData.obj
 0002:00002b00       ??_C@_0BA@CGLOHBAC@mNbHullVertices@ 000000018022fb00     GuMetaData.obj
 0002:00002b10       ??_C@_0M@HGFFLLDM@mNbPolygons@ 000000018022fb10     GuMetaData.obj
 0002:00002b20       ??_C@_09BHJEMDGO@mInternal@ 000000018022fb20     GuMetaData.obj
 0002:00002b30       ??_C@_0L@GMFHOMKA@ConvexMesh@ 000000018022fb30     GuMetaData.obj
 0002:00002b40       ??_C@_09ILEBDLJH@mHullData@ 000000018022fb40     GuMetaData.obj
 0002:00002b4c       ??_C@_03DKDIKGNC@mNb@      000000018022fb4c     GuMetaData.obj
 0002:00002b50       ??_C@_0P@ENLHFHMD@mBigConvexData@ 000000018022fb50     GuMetaData.obj
 0002:00002b60       ??_C@_05ILALLCHK@mMass@    000000018022fb60     GuMetaData.obj
 0002:00002b68       ??_C@_07DBPDADGB@PxMat33@  000000018022fb68     GuMetaData.obj
 0002:00002b70       ??_C@_08FNBHNDBI@mInertia@ 000000018022fb70     GuMetaData.obj
 0002:00002b80       ??_C@_0O@FCKNKLMJ@GuMeshFactory@ 000000018022fb80     GuMetaData.obj
 0002:00002b90       ??_C@_0N@EGBCLMAK@mMeshFactory@ 000000018022fb90     GuMetaData.obj
 0002:00002ba0       ??_C@_0BE@CJJAMAMK@PxHeightFieldSample@ 000000018022fba0     GuMetaData.obj
 0002:00002bb4       ??_C@_05MBLIPEMA@PxI16@    000000018022fbb4     GuMetaData.obj
 0002:00002bbc       ??_C@_06LNLHEAAG@height@   000000018022fbbc     GuMetaData.obj
 0002:00002bc8       ??_C@_0N@HHDGHJN@PxBitAndByte@ 000000018022fbc8     GuMetaData.obj
 0002:00002bd8       ??_C@_0P@MBBMLBO@materialIndex0@ 000000018022fbd8     GuMetaData.obj
 0002:00002be8       ??_C@_0P@BFAKPKFP@materialIndex1@ 000000018022fbe8     GuMetaData.obj
 0002:00002bf8       ??_C@_0BD@EBLPJEOE@PxHeightFieldFlags@ 000000018022fbf8     GuMetaData.obj
 0002:00002c10       ??_C@_0BK@FNNCFFCN@PxHeightFieldFormat?3?3Enum@ 000000018022fc10     GuMetaData.obj
 0002:00002c30       ??_C@_0BA@CLNFMAAA@HeightFieldData@ 000000018022fc30     GuMetaData.obj
 0002:00002c40       ??_C@_04IMCGAIPI@rows@     000000018022fc40     GuMetaData.obj
 0002:00002c48       ??_C@_07HIFEPIJN@columns@  000000018022fc48     GuMetaData.obj
 0002:00002c50       ??_C@_08MOAGOABI@rowLimit@ 000000018022fc50     GuMetaData.obj
 0002:00002c60       ??_C@_08BAGEHOBO@colLimit@ 000000018022fc60     GuMetaData.obj
 0002:00002c70       ??_C@_09LKDBLADF@nbColumns@ 000000018022fc70     GuMetaData.obj
 0002:00002c80       ??_C@_07ODIFGGLK@samples@  000000018022fc80     GuMetaData.obj
 0002:00002c88       ??_C@_0BE@POHEGOJG@convexEdgeThreshold@ 000000018022fc88     GuMetaData.obj
 0002:00002c9c       ??_C@_05GECEPKB@flags@     000000018022fc9c     GuMetaData.obj
 0002:00002ca4       ??_C@_06DLEPGFEF@format@   000000018022fca4     GuMetaData.obj
 0002:00002cb0       ??_C@_0BF@MOGDNMPL@PxMaterialTableIndex@ 000000018022fcb0     GuMetaData.obj
 0002:00002cc8       ??_C@_0M@JMJICJJO@HeightField@ 000000018022fcc8     GuMetaData.obj
 0002:00002cd8       ??_C@_0O@ENGHMLJP@mSampleStride@ 000000018022fcd8     GuMetaData.obj
 0002:00002ce8       ??_C@_0L@EBEEMFFB@mMinHeight@ 000000018022fce8     GuMetaData.obj
 0002:00002cf8       ??_C@_0L@EAEIFPOF@mMaxHeight@ 000000018022fcf8     GuMetaData.obj
 0002:00002d08       ??_C@_0N@FEFJOKKE@mModifyCount@ 000000018022fd08     GuMetaData.obj
 0002:00002d18       ??_C@_09PHDKHCK@RTreePage@ 000000018022fd18     GuMetaData.obj
 0002:00002d24       ??_C@_04LLPOBGED@minx@     000000018022fd24     GuMetaData.obj
 0002:00002d2c       ??_C@_04KCOFCHAC@miny@     000000018022fd2c     GuMetaData.obj
 0002:00002d34       ??_C@_04IJMIHEMB@minz@     000000018022fd34     GuMetaData.obj
 0002:00002d3c       ??_C@_04GGOBOBGO@maxx@     000000018022fd3c     GuMetaData.obj
 0002:00002d44       ??_C@_04HPPKNACP@maxy@     000000018022fd44     GuMetaData.obj
 0002:00002d4c       ??_C@_04FENHIDOM@maxz@     000000018022fd4c     GuMetaData.obj
 0002:00002d54       ??_C@_04HHDFEJON@ptrs@     000000018022fd54     GuMetaData.obj
 0002:00002d5c       ??_C@_05FFEIGAJF@RTree@    000000018022fd5c     GuMetaData.obj
 0002:00002d64       ??_C@_06OMCHPNEO@PxVec4@   000000018022fd64     GuMetaData.obj
 0002:00002d70       ??_C@_0L@NBIFEFLN@mBoundsMin@ 000000018022fd70     GuMetaData.obj
 0002:00002d80       ??_C@_0L@MDAOKBNC@mBoundsMax@ 000000018022fd80     GuMetaData.obj
 0002:00002d90       ??_C@_0N@NJEHLCOF@mInvDiagonal@ 000000018022fd90     GuMetaData.obj
 0002:00002da0       ??_C@_0BA@BEFIGPFG@mDiagonalScaler@ 000000018022fda0     GuMetaData.obj
 0002:00002db0       ??_C@_09DICGGKGO@mPageSize@ 000000018022fdb0     GuMetaData.obj
 0002:00002dc0       ??_C@_0O@BOFFCNOL@mNumRootPages@ 000000018022fdc0     GuMetaData.obj
 0002:00002dd0       ??_C@_0L@JKLGBKAE@mNumLevels@ 000000018022fdd0     GuMetaData.obj
 0002:00002de0       ??_C@_0M@PHDOHJGK@mTotalNodes@ 000000018022fde0     GuMetaData.obj
 0002:00002df0       ??_C@_0M@GDGHALAO@mTotalPages@ 000000018022fdf0     GuMetaData.obj
 0002:00002dfc       ??_C@_06MHCBBJGP@mFlags@   000000018022fdfc     GuMetaData.obj
 0002:00002e04       ??_C@_06MMNBLHOK@mPages@   000000018022fe04     GuMetaData.obj
 0002:00002e10       ??_C@_0P@JNLGHJNH@SourceMeshBase@ 000000018022fe10     GuMetaData.obj
 0002:00002e20       ??_C@_06JFCLJMNN@mVerts@   000000018022fe20     GuMetaData.obj
 0002:00002e28       ??_C@_05GNIIDDHH@mType@    000000018022fe28     GuMetaData.obj
 0002:00002e30       ??_C@_06DHAAKLFK@mRemap@   000000018022fe30     GuMetaData.obj
 0002:00002e38       ??_C@_0L@LEOGNOEC@SourceMesh@ 000000018022fe38     GuMetaData.obj
 0002:00002e48       ??_C@_07MPIKOOAP@mNbTris@  000000018022fe48     GuMetaData.obj
 0002:00002e50       ??_C@_0N@FBMOMEHF@mTriangles32@ 000000018022fe50     GuMetaData.obj
 0002:00002e60       ??_C@_0N@DGCGNFBP@mTriangles16@ 000000018022fe60     GuMetaData.obj
 0002:00002e70       ??_C@_0O@NLNHFNO@QuantizedAABB@ 000000018022fe70     GuMetaData.obj
 0002:00002e80       ??_C@_0BC@OOGBEMHH@mData?$FL0?$FN?4mExtents@ 000000018022fe80     GuMetaData.obj
 0002:00002e98       ??_C@_0BB@OCEDKIEF@mData?$FL0?$FN?4mCenter@ 000000018022fe98     GuMetaData.obj
 0002:00002eb0       ??_C@_0BC@HFMEAABI@mData?$FL1?$FN?4mExtents@ 000000018022feb0     GuMetaData.obj
 0002:00002ec8       ??_C@_0BB@CDMNHHIF@mData?$FL1?$FN?4mCenter@ 000000018022fec8     GuMetaData.obj
 0002:00002ee0       ??_C@_0BC@CFKNCOI@mData?$FL2?$FN?4mExtents@ 000000018022fee0     GuMetaData.obj
 0002:00002ef8       ??_C@_0BB@LKCPBBIE@mData?$FL2?$FN?4mCenter@ 000000018022fef8     GuMetaData.obj
 0002:00002f10       ??_C@_0O@MJJKKPFN@BVDataPackedQ@ 000000018022ff10     GuMetaData.obj
 0002:00002f20       ??_C@_0O@JFMLAIPJ@CenterExtents@ 000000018022ff20     GuMetaData.obj
 0002:00002f30       ??_C@_07GNKDIIKJ@mCenter@  000000018022ff30     GuMetaData.obj
 0002:00002f38       ??_C@_08EHFCACAE@mExtents@ 000000018022ff38     GuMetaData.obj
 0002:00002f48       ??_C@_0P@KBMJDPLO@BVDataPackedNQ@ 000000018022ff48     GuMetaData.obj
 0002:00002f58       ??_C@_0M@PNCEBOG@LocalBounds@ 000000018022ff58     GuMetaData.obj
 0002:00002f64       ??_C@_05KNFBNCOH@float@    000000018022ff64     GuMetaData.obj
 0002:00002f70       ??_C@_0BC@LADJKHPL@mExtentsMagnitude@ 000000018022ff70     GuMetaData.obj
 0002:00002f88       ??_C@_07HELIOLAF@BV4Tree@  000000018022ff88     GuMetaData.obj
 0002:00002f90       ??_C@_0P@EMMDNPMH@mMeshInterface@ 000000018022ff90     GuMetaData.obj
 0002:00002fa0       ??_C@_0N@DCKMHLCL@mLocalBounds@ 000000018022ffa0     GuMetaData.obj
 0002:00002fb0       ??_C@_08EEJOMIJL@mNbNodes@ 000000018022ffb0     GuMetaData.obj
 0002:00002fbc       ??_C@_06FIIIMFIO@mNodes@   000000018022ffbc     GuMetaData.obj
 0002:00002fc8       ??_C@_09FGKNPI@mInitData@  000000018022ffc8     GuMetaData.obj
 0002:00002fd8       ??_C@_0BC@CLDEHKCO@mCenterOrMinCoeff@ 000000018022ffd8     GuMetaData.obj
 0002:00002ff0       ??_C@_0BD@LAOLBNJ@mExtentsOrMaxCoeff@ 000000018022fff0     GuMetaData.obj
 0002:00003008       ??_C@_0P@JEECKKBL@mUserAllocated@ 0000000180230008     GuMetaData.obj
 0002:00003018       ??_C@_0L@GLIMNECG@mQuantized@ 0000000180230018     GuMetaData.obj
 0002:00003028       ??_C@_0L@CCOJDAID@mIsEdgeSet@ 0000000180230028     GuMetaData.obj
 0002:00003038       ??_C@_08BNDBAGDH@mPadding@ 0000000180230038     GuMetaData.obj
 0002:00003048       ??_C@_0N@OJNNNLIB@TriangleMesh@ 0000000180230048     GuMetaData.obj
 0002:00003058       ??_C@_0M@OGEDMEAL@mNbVertices@ 0000000180230058     GuMetaData.obj
 0002:00003068       ??_C@_0N@MGGDNHNI@mNbTriangles@ 0000000180230068     GuMetaData.obj
 0002:00003078       ??_C@_09LNNEGOJA@mVertices@ 0000000180230078     GuMetaData.obj
 0002:00003088       ??_C@_0L@KBOFAKLO@mTriangles@ 0000000180230088     GuMetaData.obj
 0002:00003098       ??_C@_0P@MHDFIHLD@mExtraTrigData@ 0000000180230098     GuMetaData.obj
 0002:000030a8       ??_C@_0N@MGIKKCI@mGeomEpsilon@ 00000001802300a8     GuMetaData.obj
 0002:000030b8       ??_C@_0BB@IFLOOCNA@mMaterialIndices@ 00000001802300b8     GuMetaData.obj
 0002:000030d0       ??_C@_0L@OPJMBFMI@mFaceRemap@ 00000001802300d0     GuMetaData.obj
 0002:000030e0       ??_C@_0N@BIOECAPM@mAdjacencies@ 00000001802300e0     GuMetaData.obj
 0002:000030f0       ??_C@_09CICJHLPI@mEdgeList@ 00000001802300f0     GuMetaData.obj
 0002:00003100       ??_C@_0BD@IPKCNNIK@mLocalCenterOfMass@ 0000000180230100     GuMetaData.obj
 0002:00003118       ??_C@_0BA@OCOIGPII@mGRB_triIndices@ 0000000180230118     GuMetaData.obj
 0002:00003128       ??_C@_0BE@JPINNDAH@mGRB_triAdjacencies@ 0000000180230128     GuMetaData.obj
 0002:00003140       ??_C@_0P@EDFJJHEF@mGRB_faceRemap@ 0000000180230140     GuMetaData.obj
 0002:00003150       ??_C@_0BG@EEALPPCP@mGRB_faceRemapInverse@ 0000000180230150     GuMetaData.obj
 0002:00003168       ??_C@_0N@NAKPIGJP@Gu?3?3BV32Tree@ 0000000180230168     GuMetaData.obj
 0002:00003178       ??_C@_0O@CKMBAIFN@mGRB_BV32Tree@ 0000000180230178     GuMetaData.obj
 0002:00003188       ??_C@_0BJ@LEBGJKBE@mAccumulatedTrianglesRef@ 0000000180230188     GuMetaData.obj
 0002:000031a8       ??_C@_0BF@OJMCNCDP@mTrianglesReferences@ 00000001802301a8     GuMetaData.obj
 0002:000031c0       ??_C@_0BH@LDGPOFA@mNbTrianglesReferences@ 00000001802301c0     GuMetaData.obj
 0002:000031d8       ??_C@_0BC@IFGECKF@RTreeTriangleMesh@ 00000001802301d8     GuMetaData.obj
 0002:000031ec       ??_C@_06JDIHDDGN@mRTree@   00000001802301ec     GuMetaData.obj
 0002:000031f8       ??_C@_0BA@LNNFPOKA@BV4TriangleMesh@ 00000001802301f8     GuMetaData.obj
 0002:00003208       ??_C@_08FKLPEGDB@mBV4Tree@ 0000000180230208     GuMetaData.obj
 0002:00003218       ??_7?$SupportLocalImpl@VConvexHullNoScaleV@Gu@physx@@@Gu@physx@@6B@ 0000000180230218     GuMTD.obj
 0002:00003260       ?absMask@?1??FAbs@aos@physx@@YA?AT__m128@@T4@@Z@4QBIB 0000000180230260     GuMTD.obj
 0002:00003270       ??_7GjkConvex@Gu@physx@@6B@ 0000000180230270     GuMTD.obj
 0002:000032a0       ??_7?$LocalConvex@VCapsuleV@Gu@physx@@@Gu@physx@@6B@ 00000001802302a0     GuMTD.obj
 0002:000032d0       ??_7?$LocalConvex@VConvexHullV@Gu@physx@@@Gu@physx@@6B@ 00000001802302d0     GuMTD.obj
 0002:00003300       __real@2edbe6ff            0000000180230300     GuMTD.obj
 0002:00003304       __real@34000000            0000000180230304     GuMTD.obj
 0002:00003308       __real@ff7fffff            0000000180230308     GuMTD.obj
 0002:00003310       __xmm@28800000288000002880000028800000 0000000180230310     GuMTD.obj
 0002:00003320       __xmm@34000000340000003400000034000000 0000000180230320     GuMTD.obj
 0002:00003330       __xmm@358637bd358637bd358637bd358637bd 0000000180230330     GuMTD.obj
 0002:00003340       __xmm@3dcccccd3dcccccd3dcccccd3dcccccd 0000000180230340     GuMTD.obj
 0002:00003350       __xmm@3f7ff1413f7ff1413f7ff1413f7ff141 0000000180230350     GuMTD.obj
 0002:00003360       ??_7?$RelativeConvex@VBoxV@Gu@physx@@@Gu@physx@@6B@ 0000000180230360     GuOverlapTests.obj
 0002:00003390       ??_7?$RelativeConvex@VConvexHullV@Gu@physx@@@Gu@physx@@6B@ 0000000180230390     GuOverlapTests.obj
 0002:000033e0       __real@3727c5ac            00000001802303e0     GuOverlapTests.obj
 0002:000033e4       __real@3c23d70a            00000001802303e4     GuOverlapTests.obj
 0002:000033e8       __real@3eb0c6f7a0b5ed8d    00000001802303e8     GuOverlapTests.obj
 0002:000033f0       __real@3f50624dd2f1a9fc    00000001802303f0     GuOverlapTests.obj
 0002:000033f8       __real@3ff0000000000000    00000001802303f8     GuOverlapTests.obj
 0002:00003400       __real@7fefffffffffffff    0000000180230400     GuOverlapTests.obj
 0002:00003408       __real@bf000000            0000000180230408     GuOverlapTests.obj
 0002:00003410       __real@bff0000000000000    0000000180230410     GuOverlapTests.obj
 0002:00003420       __xmm@80000000000000008000000000000000 0000000180230420     GuOverlapTests.obj
 0002:00003430       ??_7Support@PxGjkQuery@physx@@6B@ 0000000180230430     GuRaycastTests.obj
 0002:00003498       __real@1e3ce508            0000000180230498     GuRaycastTests.obj
 0002:0000349c       __real@28800000            000000018023049c     GuRaycastTests.obj
 0002:000034a0       __real@33d6bf95            00000001802304a0     GuRaycastTests.obj
 0002:000034a4       __real@38d1b717            00000001802304a4     GuRaycastTests.obj
 0002:000034a8       __real@3f0147ae            00000001802304a8     GuRaycastTests.obj
 0002:000034ac       __real@3f7ffffe            00000001802304ac     GuRaycastTests.obj
 0002:000034b0       __real@3f800347            00000001802304b0     GuRaycastTests.obj
 0002:000034b4       __real@41200000            00000001802304b4     GuRaycastTests.obj
 0002:000034b8       __real@80000000            00000001802304b8     GuRaycastTests.obj
 0002:000034bc       __real@b3d6bf95            00000001802304bc     GuRaycastTests.obj
 0002:000034c0       __real@b8d1b717            00000001802304c0     GuRaycastTests.obj
 0002:000034c4       __real@c1200000            00000001802304c4     GuRaycastTests.obj
 0002:00003500       ??_7?$MeshHitCallback@UPxGeomRaycastHit@physx@@@Gu@physx@@6B@ 0000000180230500     GuSweepMTD.obj
 0002:00003510       ??_7MeshMTDGenerationCallback@@6B@ 0000000180230510     GuSweepMTD.obj
 0002:00003520       ??_7MidPhaseQueryLocalReport@@6B@ 0000000180230520     GuSweepMTD.obj
 0002:00003530       __real@3f8147ae            0000000180230530     GuSweepMTD.obj
 0002:00003534       __real@3f933333            0000000180230534     GuSweepMTD.obj
 0002:00003560       __real@42c80000            0000000180230560     GuSweepSharedTests.obj
 0002:00003570       __xmm@000000ff000000ff000000ff000000ff 0000000180230570     GuSweepSharedTests.obj
 0002:00003580       __xmm@ffffffffffffffffffffffffffffffff 0000000180230580     GuSweepSharedTests.obj
 0002:00003600       ??_7?$LocalConvex@VBoxV@Gu@physx@@@Gu@physx@@6B@ 0000000180230600     GuSweepTests.obj
 0002:00003630       ??_7?$LocalConvex@VTriangleV@Gu@physx@@@Gu@physx@@6B@ 0000000180230630     GuSweepTests.obj
 0002:00003660       __xmm@00000002000000020000000200000002 0000000180230660     GuSweepTests.obj
 0002:00003670       __xmm@3eaaaa9f3eaaaa9f3eaaaa9f3eaaaa9f 0000000180230670     GuSweepTests.obj
 0002:00003728       ??_7PxRunnable@physx@@6B@  0000000180230728     GuSDF.obj
 0002:00003738       ??_C@_0DC@JOGCMCEG@C?3?2Dev?2PhysX?2physx?2source?2geomu@ 0000000180230738     GuSDF.obj
 0002:00003770       ??_7PointOntoTriangleMeshProjector@Gu@physx@@6B@ 0000000180230770     GuSDF.obj
 0002:00003788       ??_7?$PxThreadT@V?$PxReflectionAllocator@VPxThreadImpl@physx@@@physx@@@physx@@6B@ 0000000180230788     GuSDF.obj
 0002:00003798       ??_C@_06FJHNOCKE@thread@   0000000180230798     GuSDF.obj
 0002:000037a0       ??_C@_0BAK@OPLLKLNG@SDF?5creation?3?5Mesh?5is?5not?5suita@ 00000001802307a0     GuSDF.obj
 0002:000038b0       ??_C@_0FB@OMEANACP@SDF?5creation?3?5Input?5mesh?5is?5not@ 00000001802308b0     GuSDF.obj
 0002:00003910       ??_C@_0EC@LILMFABM@No?5distance?5data?5available?5?$CInul@ 0000000180230910     GuSDF.obj
 0002:00003960       ??_C@_0EF@PBPCGDDJ@No?5sparse?5grid?5data?5available?5?$CI@ 0000000180230960     GuSDF.obj
 0002:000039a8       ??_C@_0DB@PEIPEJEP@C?3?2Dev?2PhysX?2physx?2include?2foun@ 00000001802309a8     GuSDF.obj
 0002:000039e0       ??_C@_0CP@BJBCLNCF@C?3?2Dev?2PhysX?2physx?2include?2foun@ 00000001802309e0     GuSDF.obj
 0002:00003a10       ??_C@_0DI@EAMPBGDC@C?3?2Dev?2PhysX?2physx?2include?2foun@ 0000000180230a10     GuSDF.obj
 0002:00003a48       __real@37800080            0000000180230a48     GuSDF.obj
 0002:00003a4c       __real@3b808081            0000000180230a4c     GuSDF.obj
 0002:00003a50       __real@3e2aaaab            0000000180230a50     GuSDF.obj
 0002:00003a54       __real@3eaaaaab            0000000180230a54     GuSDF.obj
 0002:00003a58       __real@3f7d70a4            0000000180230a58     GuSDF.obj
 0002:00003a5c       __real@7e7fffff            0000000180230a5c     GuSDF.obj
 0002:00003a60       __real@fe7fffff            0000000180230a60     GuSDF.obj
 0002:00003a70       __xmm@00000001000000010000000100000000 0000000180230a70     GuSDF.obj
 0002:00003aa0       ??_7?$RelativeConvex@UCustomConvexV@@@Gu@physx@@6B@ 0000000180230aa0     GuGjkQuery.obj
 0002:00003ad0       ??_7?$LocalConvex@UCustomConvexV@@@Gu@physx@@6B@ 0000000180230ad0     GuGjkQuery.obj
 0002:00003b00       ??_7?$LocalConvex@UPointConvexV@@@Gu@physx@@6B@ 0000000180230b00     GuGjkQuery.obj
 0002:00003b50       __real@3da2f983            0000000180230b50     GuWindingNumber.obj
 0002:00003b54       __real@3e22f983            0000000180230b54     GuWindingNumber.obj
 0002:00003b58       __real@3f99999a            0000000180230b58     GuWindingNumber.obj
 0002:00003b80       __real@38aaaaab            0000000180230b80     GuConvexGeometry.obj
 0002:00003b84       __real@3d000000            0000000180230b84     GuConvexGeometry.obj
 0002:00003b88       __real@3daaaaab            0000000180230b88     GuConvexGeometry.obj
 0002:00003b8c       __real@3ecccccd            0000000180230b8c     GuConvexGeometry.obj
 0002:00003b90       __real@3fc90fdb            0000000180230b90     GuConvexGeometry.obj
 0002:00003b94       __real@40400000            0000000180230b94     GuConvexGeometry.obj
 0002:00003b98       __real@40490fdb            0000000180230b98     GuConvexGeometry.obj
 0002:00003b9c       __real@40860a92            0000000180230b9c     GuConvexGeometry.obj
 0002:00003ba0       __xmm@3f800000bf8000003f8000003f800000 0000000180230ba0     GuConvexGeometry.obj
 0002:00003bb0       __xmm@bf8000003f800000bf800000bf800000 0000000180230bb0     GuConvexGeometry.obj
 0002:00003c40       __real@3ca3d70a            0000000180230c40     GuCCDSweepConvexMesh.obj
 0002:00003c44       __real@3f8ccccd            0000000180230c44     GuCCDSweepConvexMesh.obj
 0002:00003c48       __real@b58637bd            0000000180230c48     GuCCDSweepConvexMesh.obj
 0002:00003c70       ??_7?$RelativeConvex@VCapsuleV@Gu@physx@@@Gu@physx@@6B@ 0000000180230c70     GuCCDSweepPrimitives.obj
 0002:00003ca0       ??_7?$RelativeConvex@VTriangleV@Gu@physx@@@Gu@physx@@6B@ 0000000180230ca0     GuCCDSweepPrimitives.obj
 0002:00003cd0       __real@3ba3d70a            0000000180230cd0     GuCCDSweepPrimitives.obj
 0002:00003cd4       __real@501502f9            0000000180230cd4     GuCCDSweepPrimitives.obj
 0002:00003d00       ??_C@_0EB@HJHKBIAB@C?3?2Dev?2PhysX?2physx?2source?2geomu@ 0000000180230d00     GuAdjacencies.obj
 0002:00003d48       ??_C@_0DA@FMEHLBKI@Adjacencies?3?3UpdateLink?3?5invali@ 0000000180230d48     GuAdjacencies.obj
 0002:00003d80       ??_C@_0EA@CPHOACLK@Adjacencies?3?3CreateDatabase?3?5ca@ 0000000180230d80     GuAdjacencies.obj
 0002:00003dc0       ??_C@_0DO@LDIJICDO@C?3?2Dev?2PhysX?2physx?2source?2geomu@ 0000000180230dc0     GuEdgeList.obj
 0002:00003e00       ??_C@_0CO@GBNJFPN@EdgeList?3?3CreateFacesToEdges?3?5N@ 0000000180230e00     GuEdgeList.obj
 0002:00003e30       ??_C@_0CO@EHJBBMNK@EdgeList?3?3ComputeActiveEdges?3?5N@ 0000000180230e30     GuEdgeList.obj
 0002:00003e60       ??_C@_0DI@GBHLFOFP@ActiveEdges?3?3ComputeConvexEdges@ 0000000180230e60     GuEdgeList.obj
 0002:00003e98       ??_C@_0DM@JOGBLHDI@ActiveEdges?3?3ComputeConvexEdges@ 0000000180230e98     GuEdgeList.obj
 0002:00003ee0       ??_C@_0ED@FEMJKPEL@ActiveEdges?3?3ComputeConvexEdges@ 0000000180230ee0     GuEdgeList.obj
 0002:00003f30       ??_C@_0EB@BFDPMFCD@ActiveEdges?3?3ComputeConvexEdges@ 0000000180230f30     GuEdgeList.obj
 0002:00003f74       __real@bf7fbe77            0000000180230f74     GuEdgeList.obj
 0002:00003f78       ??_7Quantizer@Gu@physx@@6B@ 0000000180230f78     GuQuantizer.obj
 0002:00003fa0       ??_7QuantizerImpl@@6B@     0000000180230fa0     GuQuantizer.obj
 0002:00003fc8       ??_C@_0DP@IDPOBML@C?3?2Dev?2PhysX?2physx?2source?2geomu@ 0000000180230fc8     GuQuantizer.obj
 0002:00004008       __real@3f8020c5            0000000180231008     GuQuantizer.obj
 0002:00004010       ??_C@_0EB@FMCBDFFF@C?3?2Dev?2PhysX?2physx?2source?2geomu@ 0000000180231010     GuMeshCleaner.obj
 0002:00004054       __real@40800000            0000000180231054     GuMeshCleaner.obj
 0002:00004060       ??_C@_0ED@EHLAGBLJ@C?3?2Dev?2PhysX?2physx?2source?2geomu@ 0000000180231060     GuVertexReducer.obj
 0002:000041a0       __real@3f7fbe77            00000001802311a0     GuContactBoxBox.obj
 0002:000041f0       __real@3f7ff2e5            00000001802311f0     GuContactCapsuleCapsule.obj
 0002:00004280       __real@358637be            0000000180231280     GuContactCapsuleMesh.obj
 0002:00004284       __real@ba83126f            0000000180231284     GuContactCapsuleMesh.obj
 0002:000042e0       ??_7ConvexMeshContactGenerationCallback@@6B@ 00000001802312e0     GuContactConvexMesh.obj
 0002:00004350       __real@2edbe6fe            0000000180231350     GuContactConvexCoreMesh.obj
 0002:00004354       __real@3e0f5c29            0000000180231354     GuContactConvexCoreMesh.obj
 0002:00004358       __real@3e80000000000000    0000000180231358     GuContactConvexCoreMesh.obj
 0002:00004360       __real@3ee4f8b588e368f1    0000000180231360     GuContactConvexCoreMesh.obj
 0002:00004368       __real@3f7fff58            0000000180231368     GuContactConvexCoreMesh.obj
 0002:0000436c       __real@b4000000            000000018023136c     GuContactConvexCoreMesh.obj
 0002:00004370       __real@b727c5ac            0000000180231370     GuContactConvexCoreMesh.obj
 0002:00004374       __real@bf7d70a4            0000000180231374     GuContactConvexCoreMesh.obj
 0002:00004378       __real@ffefffffffffffff    0000000180231378     GuContactConvexCoreMesh.obj
 0002:00004380       __xmm@00000000000000003ff0000000000000 0000000180231380     GuContactConvexCoreMesh.obj
 0002:00004390       __xmm@7fffffffffffffff7fffffffffffffff 0000000180231390     GuContactConvexCoreMesh.obj
 0002:00004440       ??_C@_0DB@LAKLAAID@C?3?2Dev?2PhysX?2physx?2include?2foun@ 0000000180231440     GuContactPlaneMesh.obj
 0002:000044a0       __real@333bbd2e            00000001802314a0     GuContactPolygonPolygon.obj
 0002:000044a4       __real@3ec3ef15            00000001802314a4     GuContactPolygonPolygon.obj
 0002:000044a8       __real@3ec3ef16            00000001802314a8     GuContactPolygonPolygon.obj
 0002:000044ac       __real@3ec3ef17            00000001802314ac     GuContactPolygonPolygon.obj
 0002:000044b0       __real@3ec3ef18            00000001802314b0     GuContactPolygonPolygon.obj
 0002:000044b4       __real@3f6c835e            00000001802314b4     GuContactPolygonPolygon.obj
 0002:000044c0       __xmm@000000003ec3ef17bf6c835e00000000 00000001802314c0     GuContactPolygonPolygon.obj
 0002:000044d0       __xmm@000000003f6c835e3ec3ef1500000000 00000001802314d0     GuContactPolygonPolygon.obj
 0002:000044e0       __xmm@3f3504f33f3504f3000000003ec3ef16 00000001802314e0     GuContactPolygonPolygon.obj
 0002:000044f0       __xmm@3f3504f3bf3504f3000000003f6c835e 00000001802314f0     GuContactPolygonPolygon.obj
 0002:00004500       __xmm@3f6c835e00000000000000003f800000 0000000180231500     GuContactPolygonPolygon.obj
 0002:00004510       __xmm@bec3ef18000000003f800000b33bbd2e 0000000180231510     GuContactPolygonPolygon.obj
 0002:00004540       __real@3b800000            0000000180231540     GuContactMeshMesh.obj
 0002:00004544       __real@3ed64e4c            0000000180231544     GuContactMeshMesh.obj
 0002:00004548       __real@3f12648a            0000000180231548     GuContactMeshMesh.obj
 0002:0000454c       __real@3f349e9b            000000018023154c     GuContactMeshMesh.obj
 0002:00004550       __real@3f4ccccd            0000000180231550     GuContactMeshMesh.obj
 0002:00004554       __real@3f59999a            0000000180231554     GuContactMeshMesh.obj
 0002:00004558       __real@3f7fdf3b            0000000180231558     GuContactMeshMesh.obj
 0002:000045c0       ??_C@_0ED@BFDDAFJN@C?3?2Dev?2PhysX?2physx?2source?2geomu@ 00000001802315c0     GuBigConvexData.obj
 0002:00004630       ??_C@_0N@CDGINLLF@PxConvexMesh@ 0000000180231630     GuConvexMesh.obj
 0002:00004640       ??_7PxBase@physx@@6B@      0000000180231640     GuConvexMesh.obj
 0002:00004668       ??_C@_0CE@IDAGNPDH@isKindOf?5called?5with?5invalid?5st@ 0000000180231668     GuConvexMesh.obj
 0002:00004690       ??_C@_0N@OPPDBGAG@PxRefCounted@ 0000000180231690     GuConvexMesh.obj
 0002:000046a0       ??_C@_0DD@HMDKGMCC@C?3?2Dev?2PhysX?2physx?2include?2geom@ 00000001802316a0     GuConvexMesh.obj
 0002:000046d8       ??_7ConvexMesh@Gu@physx@@6B@ 00000001802316d8     GuConvexMesh.obj
 0002:00004770       ??_C@_0EA@NDICKFKF@C?3?2Dev?2PhysX?2physx?2source?2geomu@ 0000000180231770     GuConvexMesh.obj
 0002:000047b0       ??_C@_0DM@NEJKOFIP@Loading?5convex?5mesh?5failed?3?5Dep@ 00000001802317b0     GuConvexMesh.obj
 0002:000047f0       ??_C@_0DB@PAHEPIEL@PxConvexMesh?3?3release?3?5double?5d@ 00000001802317f0     GuConvexMesh.obj
 0002:00004828       ??_C@_0DI@FGGMKGLJ@C?3?2Dev?2PhysX?2physx?2source?2geomu@ 0000000180231828     GuConvexMesh.obj
 0002:00004880       __xmm@000000000000000000000000ffffffff 0000000180231880     GuConvexSupportTable.obj
 0002:00004890       __xmm@0000000000000000ffffffff00000000 0000000180231890     GuConvexSupportTable.obj
 0002:000048a0       __xmm@0000000000000000ffffffffffffffff 00000001802318a0     GuConvexSupportTable.obj
 0002:000048b0       __xmm@00000000ffffffff0000000000000000 00000001802318b0     GuConvexSupportTable.obj
 0002:000048c0       __xmm@00000000ffffffff00000000ffffffff 00000001802318c0     GuConvexSupportTable.obj
 0002:000048d0       __xmm@00000000ffffffffffffffff00000000 00000001802318d0     GuConvexSupportTable.obj
 0002:00004960       __xmm@2b8cbccc2b8cbccc2b8cbccc2b8cbccc 0000000180231960     GuDistancePointTriangle.obj
 0002:000049b0       __xmm@3f0000003f0000003f0000003f000000 00000001802319b0     GuDistanceSegmentSegment.obj
 0002:000049e0       __real@2b8cbccc            00000001802319e0     GuDistanceSegmentTriangle.obj
 0002:000049f0       __xmm@3f8000013f8000013f8000013f800001 00000001802319f0     GuDistanceSegmentTriangle.obj
 0002:00004a00       __xmm@b4000000b4000000b4000000b4000000 0000000180231a00     GuDistanceSegmentTriangle.obj
 0002:00004a30       __real@26901d7d            0000000180231a30     GuDistanceTriangleTriangle.obj
 0002:00004ab0       __xmm@38d1b71738d1b71738d1b71738d1b717 0000000180231ab0     GuGJKSimplex.obj
 0002:00004ae0       ??_C@_0O@PBAKPCEC@PxHeightField@ 0000000180231ae0     GuHeightField.obj
 0002:00004af0       ??_C@_0DE@DPAODFID@C?3?2Dev?2PhysX?2physx?2include?2geom@ 0000000180231af0     GuHeightField.obj
 0002:00004b28       ??_7HeightField@Gu@physx@@6B@ 0000000180231b28     GuHeightField.obj
 0002:00004be0       ??_C@_0DC@BDMMBOKH@PxHeightField?3?3release?3?5double?5@ 0000000180231be0     GuHeightField.obj
 0002:00004c18       ??_C@_0DN@HMEEMAOL@C?3?2Dev?2PhysX?2physx?2source?2geomu@ 0000000180231c18     GuHeightField.obj
 0002:00004c58       ??_C@_0CI@DMKEKGNK@Gu?3?3HeightField?3?3load?3?5PX_ALLOC@ 0000000180231c58     GuHeightField.obj
 0002:00004ca0       __real@3a03126f            0000000180231ca0     GuHeightFieldUtil.obj
 0002:00004ca4       __real@3f19999a            0000000180231ca4     GuHeightFieldUtil.obj
 0002:00004d30       ??_7HeightFieldTraceSegmentReport@@6B@ 0000000180231d30     GuSweepsHF.obj
 0002:00004d40       ??_7CapsuleTraceSegmentReport@@6B@ 0000000180231d40     GuSweepsHF.obj
 0002:00004d50       ??_7ConvexTraceSegmentReport@@6B@ 0000000180231d50     GuSweepsHF.obj
 0002:00004d60       ??_7BoxTraceSegmentReport@@6B@ 0000000180231d60     GuSweepsHF.obj
 0002:00004d70       __real@aedbe6ff            0000000180231d70     GuSweepsHF.obj
 0002:00004da0       __real@3089705f            0000000180231da0     GuIntersectionRayBox.obj
 0002:00004db0       __xmm@000000003089705f3089705f3089705f 0000000180231db0     GuIntersectionRayBox.obj
 0002:00004dc0       __xmm@00000000bf800000bf800000bf800000 0000000180231dc0     GuIntersectionRayBox.obj
 0002:00004e10       ??_7SourceMeshBase@Gu@physx@@6B@ 0000000180231e10     GuBV4.obj
 0002:00004e38       ??_7SourceMesh@Gu@physx@@6B@ 0000000180231e38     GuBV4.obj
 0002:00004e60       ??_7TetrahedronSourceMesh@Gu@physx@@6B@ 0000000180231e60     GuBV4.obj
 0002:00004e88       ??_C@_0DH@OOOINMOL@C?3?2Dev?2PhysX?2physx?2source?2geomu@ 0000000180231e88     GuBV4.obj
 0002:00004ec0       __xmm@ff7fffffff7fffffff7fffffff7fffff 0000000180231ec0     GuBV4.obj
 0002:00004ef0       ??_C@_0DM@DMMIDJEI@C?3?2Dev?2PhysX?2physx?2source?2geomu@ 0000000180231ef0     GuBV4Build.obj
 0002:00004f2c       __real@38000100            0000000180231f2c     GuBV4Build.obj
 0002:00004f30       __real@3e93cd3a            0000000180231f30     GuBV4Build.obj
 0002:00004f34       __real@46fffe00            0000000180231f34     GuBV4Build.obj
 0002:00004f38       __real@be93cd3a            0000000180231f38     GuBV4Build.obj
 0002:00004f60       __xmm@0000ffff0000ffff0000ffff0000ffff 0000000180231f60     GuBV4_AABBSweep.obj
 0002:00004f70       __xmm@3089705f3089705f3089705f3089705f 0000000180231f70     GuBV4_AABBSweep.obj
 0002:00004f80       __xmm@33d6bf9533d6bf9533d6bf9533d6bf95 0000000180231f80     GuBV4_AABBSweep.obj
 0002:00004f90       __xmm@40000000400000004000000040000000 0000000180231f90     GuBV4_AABBSweep.obj
 0002:00005020       __xmm@322bcc77322bcc77322bcc77322bcc77 0000000180232020     GuBV4_MeshMeshOverlap.obj
 0002:00005070       __real@00000000            0000000180232070     GuBV4_Raycast.obj
 0002:000050a0       __real@4f7fffff            00000001802320a0     GuBV4_SphereOverlap.obj
 0002:000050f0       __xmm@000000007f7fffff0000000000000000 00000001802320f0     GuMidphaseBV4.obj
 0002:00005160       ??_C@_0FD@EHCCILIF@Adjacency?5information?5not?5creat@ 0000000180232160     GuMeshQuery.obj
 0002:000051b8       ??_C@_0DN@HPKMDIIA@C?3?2Dev?2PhysX?2physx?2source?2geomu@ 00000001802321b8     GuMeshQuery.obj
 0002:00005200       ??_C@_0FL@BKNMAHIA@PxMeshQuery?3?3findOverlapTriangl@ 0000000180232200     GuMeshQuery.obj
 0002:0000525c       __real@4cbebc20            000000018023225c     GuMeshQuery.obj
 0002:00005280       ??_7Callback@RTree@Gu@physx@@6B@ 0000000180232280     GuMidphaseRTree.obj
 0002:00005298       ??_7?$RayRTreeCallback@$00$0A@@@6BCallbackRaycast@RTree@Gu@physx@@@ 0000000180232298     GuMidphaseRTree.obj
 0002:00005298       ??_7?$RayRTreeCallback@$0A@$0A@@@6BCallbackRaycast@RTree@Gu@physx@@@ 0000000180232298     GuMidphaseRTree.obj
 0002:000052a8       ??_7?$RayRTreeCallback@$00$0A@@@6BCallback@RTree@Gu@physx@@@ 00000001802322a8     GuMidphaseRTree.obj
 0002:000052a8       ??_7?$RayRTreeCallback@$0A@$0A@@@6BCallback@RTree@Gu@physx@@@ 00000001802322a8     GuMidphaseRTree.obj
 0002:000052c0       ??_7RayMeshColliderCallback@@6B@ 00000001802322c0     GuMidphaseRTree.obj
 0002:000052d0       ??_C@_0EN@DPPFLBLF@Point?9mesh?5distance?5query?5not?5s@ 00000001802322d0     GuMidphaseRTree.obj
 0002:00005320       ??_C@_0EB@DNKCPGHD@C?3?2Dev?2PhysX?2physx?2source?2geomu@ 0000000180232320     GuMidphaseRTree.obj
 0002:00005368       ??_7?$RayRTreeCallback@$0A@$00@@6BCallbackRaycast@RTree@Gu@physx@@@ 0000000180232368     GuMidphaseRTree.obj
 0002:00005378       ??_7?$RayRTreeCallback@$0A@$00@@6BCallback@RTree@Gu@physx@@@ 0000000180232378     GuMidphaseRTree.obj
 0002:00005390       ??_7?$RayRTreeCallback@$00$00@@6BCallbackRaycast@RTree@Gu@physx@@@ 0000000180232390     GuMidphaseRTree.obj
 0002:000053a0       ??_7?$RayRTreeCallback@$00$00@@6BCallback@RTree@Gu@physx@@@ 00000001802323a0     GuMidphaseRTree.obj
 0002:00005420       __xmm@7f7fffff000000000000000000000000 0000000180232420     GuMidphaseRTree.obj
 0002:00005490       ??_7PxReportCallbackBase@physx@@6B@ 0000000180232490     GuOverlapTestsMesh.obj
 0002:000054c0       ??_C@_0EP@CEFGCJKJ@PxGeometryQuery?3?3overlap?$CI?$CJ?3?5onl@ 00000001802324c0     GuOverlapTestsMesh.obj
 0002:00005510       ??_C@_0EE@BGNDLDCI@C?3?2Dev?2PhysX?2physx?2source?2geomu@ 0000000180232510     GuOverlapTestsMesh.obj
 0002:00005580       ?MN@RTreePage@Gu@physx@@2MB 0000000180232580     GuRTree.obj
 0002:00005584       ?MX@RTreePage@Gu@physx@@2MB 0000000180232584     GuRTree.obj
 0002:00005588       ??_C@_0DJ@PKFBGCNH@C?3?2Dev?2PhysX?2physx?2source?2geomu@ 0000000180232588     GuRTree.obj
 0002:00005640       ??_7SweepShapeMeshHitCallback@Gu@physx@@6B@ 0000000180232640     GuSweepsMesh.obj
 0002:00005650       ??_7SweepCapsuleMeshHitCallback@Gu@physx@@6B@ 0000000180232650     GuSweepsMesh.obj
 0002:00005660       ??_7SweepBoxMeshHitCallback@Gu@physx@@6B@ 0000000180232660     GuSweepsMesh.obj
 0002:00005670       ??_7SweepConvexMeshHitCallback@Gu@physx@@6B@ 0000000180232670     GuSweepsMesh.obj
 0002:000056a0       ??_C@_0P@GGNFNHKF@PxTriangleMesh@ 00000001802326a0     GuTriangleMesh.obj
 0002:000056b0       ??_C@_0DF@JDNGEOAP@C?3?2Dev?2PhysX?2physx?2include?2geom@ 00000001802326b0     GuTriangleMesh.obj
 0002:000056e8       ??_7TriangleMesh@Gu@physx@@6B@ 00000001802326e8     GuTriangleMesh.obj
 0002:000057c0       ??_C@_0DD@LOOPMCGG@PxTriangleMesh?3?3release?3?5double@ 00000001802327c0     GuTriangleMesh.obj
 0002:00005800       ??_C@_0FH@PMPAJDGI@PxTriangleMesh?3?3getVerticesForM@ 0000000180232800     GuTriangleMesh.obj
 0002:00005860       ??_C@_0EA@ONNCAKEE@C?3?2Dev?2PhysX?2physx?2source?2geomu@ 0000000180232860     GuTriangleMesh.obj
 0002:000058a0       ??_C@_0EF@GMNFLDH@PxTriangleMesh?3?3refitBVH?$CI?$CJ?5is?5n@ 00000001802328a0     GuTriangleMesh.obj
 0002:000058f0       __xmm@38383838383838383838383838383838 00000001802328f0     GuTriangleMesh.obj
 0002:00005920       ??_C@_0BE@CNJKIINO@PxBVH34TriangleMesh@ 0000000180232920     GuTriangleMeshBV4.obj
 0002:00005938       ??_7BV4TriangleMesh@Gu@physx@@6B@ 0000000180232938     GuTriangleMeshBV4.obj
 0002:00005a10       ??_C@_0EF@JLFNNPLP@BVH34?5trees?3?5refit?5operation?5on@ 0000000180232a10     GuTriangleMeshBV4.obj
 0002:00005a60       ??_C@_0ED@NJAJDBBJ@C?3?2Dev?2PhysX?2physx?2source?2geomu@ 0000000180232a60     GuTriangleMeshBV4.obj
 0002:00005aa4       __real@3951b717            0000000180232aa4     GuTriangleMeshBV4.obj
 0002:00005ad0       ??_C@_0BE@EIFHCCBO@PxBVH33TriangleMesh@ 0000000180232ad0     GuTriangleMeshRTree.obj
 0002:00005ae8       ??_7RTreeTriangleMesh@Gu@physx@@6B@ 0000000180232ae8     GuTriangleMeshRTree.obj
 0002:00005bc0       ??_7?$RefitCallback@G@physx@@6B@ 0000000180232bc0     GuTriangleMeshRTree.obj
 0002:00005bd0       ??_7?$RefitCallback@I@physx@@6B@ 0000000180232bd0     GuTriangleMeshRTree.obj
 0002:00005c00       ??_C@_0DI@ELHFDCDN@C?3?2Dev?2PhysX?2physx?2source?2geomu@ 0000000180232c00     GuBV32.obj
 0002:00005c60       ??_C@_0DN@CKGGOGLF@C?3?2Dev?2PhysX?2physx?2source?2geomu@ 0000000180232c60     GuBV32Build.obj
 0002:00005cc0       ??_C@_0BC@FDAIDHBP@PxTetrahedronMesh@ 0000000180232cc0     GuTetrahedronMesh.obj
 0002:00005cd8       ??_C@_0DI@MPEDNCOO@C?3?2Dev?2PhysX?2physx?2include?2geom@ 0000000180232cd8     GuTetrahedronMesh.obj
 0002:00005d10       ??_C@_0BK@EPBIEMIB@PxDeformableVolumeAuxData@ 0000000180232d10     GuTetrahedronMesh.obj
 0002:00005d30       ??_C@_0BH@OHONILPI@PxDeformableVolumeMesh@ 0000000180232d30     GuTetrahedronMesh.obj
 0002:00005d48       ??_7DeformableVolumeAuxData@Gu@physx@@6B@ 0000000180232d48     GuTetrahedronMesh.obj
 0002:00005d90       ??_7TetrahedronMesh@Gu@physx@@6B@ 0000000180232d90     GuTetrahedronMesh.obj
 0002:00005e08       ??_7BVTetrahedronMesh@Gu@physx@@6B@ 0000000180232e08     GuTetrahedronMesh.obj
 0002:00005e80       ??_7DeformableVolumeMesh@Gu@physx@@6B@ 0000000180232e80     GuTetrahedronMesh.obj
 0002:00005f00       ??_C@_0DG@JJNMDPMD@PxTetrahedronMesh?3?3release?3?5dou@ 0000000180232f00     GuTetrahedronMesh.obj
 0002:00005f38       ??_C@_0DL@IHNCIOFH@PxDeformableVolumeMesh?3?3release@ 0000000180232f38     GuTetrahedronMesh.obj
 0002:00005f80       ??_C@_0ED@DLEKNLIN@C?3?2Dev?2PhysX?2physx?2source?2geomu@ 0000000180232f80     GuTetrahedronMesh.obj
 0002:00006010       __xmm@00000000358637bd358637bd358637bd 0000000180233010     GuPCMContactBoxBox.obj
 0002:00006020       __xmm@3f4ccccd3f4ccccd3f4ccccd3f4ccccd 0000000180233020     GuPCMContactBoxBox.obj
 0002:00006030       __xmm@3f8003473f8003473f8003473f800347 0000000180233030     GuPCMContactBoxBox.obj
 0002:00006040       __xmm@ffffffff00000000ffffffffffffffff 0000000180233040     GuPCMContactBoxBox.obj
 0002:00006070       ??_7?$LocalConvex@VConvexHullNoScaleV@Gu@physx@@@Gu@physx@@6B@ 0000000180233070     GuPCMContactBoxConvex.obj
 0002:000060a0       __xmm@3f3504f33f3504f33f3504f33f3504f3 00000001802330a0     GuPCMContactBoxConvex.obj
 0002:000060f0       __xmm@ffffffffffffffffffffffff00000000 00000001802330f0     GuPCMContactCapsuleCapsule.obj
 0002:00006120       __xmm@3fa000003fa000003fa000003fa00000 0000000180233120     GuPCMContactCapsuleConvex.obj
 0002:00006150       ??_7PCMCapsuleVsHeightfieldContactGenerationCallback@@6B@ 0000000180233150     GuPCMContactCapsuleHeightField.obj
 0002:00006160       __real@3f7f3b64            0000000180233160     GuPCMContactCapsuleHeightField.obj
 0002:000061b0       __xmm@3f7ff9723f7ff9723f7ff9723f7ff972 00000001802331b0     GuPCMContactCapsuleMesh.obj
 0002:000061c0       __xmm@3f7fffef3f7fffef3f7fffef3f7fffef 00000001802331c0     GuPCMContactCapsuleMesh.obj
 0002:000061d0       __xmm@60ad78ec60ad78ec60ad78ec60ad78ec 00000001802331d0     GuPCMContactCapsuleMesh.obj
 0002:00006200       ??_7?$SupportLocalImpl@VTriangleV@Gu@physx@@@Gu@physx@@6B@ 0000000180233200     GuPCMContactConvexCommon.obj
 0002:00006220       __xmm@3cf5c2803cf5c2803cf5c2803cf5c280 0000000180233220     GuPCMContactConvexCommon.obj
 0002:00006230       __xmm@3f7851ec3f7851ec3f7851ec3f7851ec 0000000180233230     GuPCMContactConvexCommon.obj
 0002:00006260       ??_7?$RelativeConvex@VConvexHullNoScaleV@Gu@physx@@@Gu@physx@@6B@ 0000000180233260     GuPCMContactConvexConvex.obj
 0002:000062c0       __xmm@3f19999a3f19999a3f19999a3f19999a 00000001802332c0     GuPCMContactConvexHeightField.obj
 0002:00006330       __xmm@3f34fdf43f34fdf43f34fdf43f34fdf4 0000000180233330     GuPCMContactGenBoxConvex.obj
 0002:00006360       __xmm@3f80a3d73f80a3d73f80a3d73f80a3d7 0000000180233360     GuPCMContactGenSphereCapsule.obj
 0002:00006370       __xmm@bba3d70abba3d70abba3d70abba3d70a 0000000180233370     GuPCMContactGenSphereCapsule.obj
 0002:000063a0       __xmm@3f7ffd613f7ffd613f7ffd613f7ffd61 00000001802333a0     GuPCMContactPlaneBox.obj
 0002:000063d0       __real@3b23d70b            00000001802333d0     GuPCMContactPlaneCapsule.obj
 0002:000063e0       __xmm@3ca3d70a3ca3d70a3ca3d70a3ca3d70a 00000001802333e0     GuPCMContactPlaneCapsule.obj
 0002:00006410       __xmm@3a03126f3a03126f3a03126f3a03126f 0000000180233410     GuPCMContactPlaneConvex.obj
 0002:00006530       __xmm@3727c5ac3727c5ac3727c5ac3727c5ac 0000000180233530     GuPCMContactSphereSphere.obj
 0002:00006560       __xmm@3f7f06f73f7f06f73f7f06f73f7f06f7 0000000180233560     GuPCMContactCustomGeometry.obj
 0002:00006570       ?gPCMBoxPolygonData@Gu@physx@@3QBEB 0000000180233570     GuPCMShapeConvex.obj
 0002:000065f0       ?invalidateThresholds@Gu@physx@@3QBMB 00000001802335f0     GuPersistentContactManifold.obj
 0002:00006608       ?invalidateQuatThresholds@Gu@physx@@3QBMB 0000000180233608     GuPersistentContactManifold.obj
 0002:00006620       ?invalidateThresholds2@Gu@physx@@3QBMB 0000000180233620     GuPersistentContactManifold.obj
 0002:00006630       ?invalidateQuatThresholds2@Gu@physx@@3QBMB 0000000180233630     GuPersistentContactManifold.obj
 0002:00006640       __xmm@00000000340000003400000034000000 0000000180233640     GuPersistentContactManifold.obj
 0002:00006650       __xmm@ffffffffffffffff00000000ffffffff 0000000180233650     GuPersistentContactManifold.obj
 0002:00006680       __xmm@c1200000c1200000c1200000c1200000 0000000180233680     GuPCMContactGenUtil.obj
 0002:000067d0       ??_C@_0CH@DHJGKCPD@Gu?3?3computeBounds?3?5Unknown?5shap@ 00000001802337d0     GuBounds.obj
 0002:000067f8       ??_C@_0DF@FOMOONED@C?3?2Dev?2PhysX?2physx?2source?2geomu@ 00000001802337f8     GuBounds.obj
 0002:00006830       __real@34800000            0000000180233830     GuBounds.obj
 0002:00006834       __real@3f7fffef            0000000180233834     GuBounds.obj
 0002:00006840       __xmm@3f8147ae3f8147ae3f8147ae3f8147ae 0000000180233840     GuBounds.obj
 0002:00006870       ??_C@_0DH@NBJKJPIL@C?3?2Dev?2PhysX?2physx?2source?2geomu@ 0000000180233870     GuAABBTree.obj
 0002:000068b0       __xmm@5a60b17f5a60b17f5a60b17f5a60b17f 00000001802338b0     GuAABBTree.obj
 0002:000068c0       __xmm@da60b17fda60b17fda60b17fda60b17f 00000001802338c0     GuAABBTree.obj
 0002:00006930       ??_C@_0EC@LPKMPJLO@C?3?2Dev?2PhysX?2physx?2source?2geomu@ 0000000180233930     GuIncrementalAABBTree.obj
 0002:00006978       ??_C@_0CP@CFCHILPL@C?3?2Dev?2PhysX?2physx?2include?2foun@ 0000000180233978     GuIncrementalAABBTree.obj
 0002:000069a8       ??_C@_0DC@PGFAIMJB@C?3?2Dev?2PhysX?2physx?2source?2geomu@ 00000001802339a8     GuSAH.obj
 0002:00006a00       ??_7PxBVH@physx@@6B@       0000000180233a00     GuBVH.obj
 0002:00006a78       ??_C@_05OKJNPKBM@PxBVH@    0000000180233a78     GuBVH.obj
 0002:00006a80       ??_C@_0CM@LOBIMKHD@C?3?2Dev?2PhysX?2physx?2include?2geom@ 0000000180233a80     GuBVH.obj
 0002:00006ab0       ??_7RefCountable@Cm@physx@@6B@ 0000000180233ab0     GuBVH.obj
 0002:00006ac0       ??_7BVH@Gu@physx@@6BPxBVH@2@@ 0000000180233ac0     GuBVH.obj
 0002:00006b38       ??_7BVH@Gu@physx@@6BRefCountable@Cm@2@@ 0000000180233b38     GuBVH.obj
 0002:00006b48       ??_C@_0DC@OEDIBPGE@C?3?2Dev?2PhysX?2physx?2source?2geomu@ 0000000180233b48     GuBVH.obj
 0002:00006b80       ??_C@_0CK@HAIOEINI@PxBVH?3?3release?3?5double?5deletion@ 0000000180233b80     GuBVH.obj
 0002:00006bd0       ??_C@_0EI@GDPCBECG@C?3?2Dev?2PhysX?2physx?2source?2geomu@ 0000000180233bd0     GuIncrementalAABBPrunerCore.obj
 0002:00006c18       __real@3f80a3d7            0000000180233c18     GuIncrementalAABBPrunerCore.obj
 0002:00006c40       ??_7BasePruner@Gu@physx@@6B@ 0000000180233c40     GuIncrementalAABBPruner.obj
 0002:00006c58       ??_7IncrementalAABBPruner@Gu@physx@@6B@ 0000000180233c58     GuIncrementalAABBPruner.obj
 0002:00006ce0       ??_C@_0EE@MPJDDDEH@C?3?2Dev?2PhysX?2physx?2source?2geomu@ 0000000180233ce0     GuIncrementalAABBPruner.obj
 0002:00006d50       ??_C@_0DK@LEONAGKC@C?3?2Dev?2PhysX?2physx?2source?2geomu@ 0000000180233d50     GuPruningPool.obj
 0002:00006dd0       ??_7BucketPruner@Gu@physx@@6B@ 0000000180233dd0     GuBucketPruner.obj
 0002:00006e58       ??_C@_0DL@EMPJCJI@C?3?2Dev?2PhysX?2physx?2source?2geomu@ 0000000180233e58     GuBucketPruner.obj
 0002:00006e94       __real@bf13cd3a            0000000180233e94     GuBucketPruner.obj
 0002:00006ea0       __xmm@000000007e7fffff7e7fffff7e7fffff 0000000180233ea0     GuBucketPruner.obj
 0002:00006eb0       __xmm@00000000fe7ffffffe7ffffffe7fffff 0000000180233eb0     GuBucketPruner.obj
 0002:00006ec0       __xmm@3f13cd3a3f13cd3a3f13cd3a3f13cd3a 0000000180233ec0     GuBucketPruner.obj
 0002:00006ed0       __xmm@bf13cd3abf13cd3abf13cd3a3f13cd3a 0000000180233ed0     GuBucketPruner.obj
 0002:00006ee0       __xmm@bf8000003f8000003f800000bf800000 0000000180233ee0     GuBucketPruner.obj
 0002:00006ef0       __xmm@bf8000003f800000bf8000003f800000 0000000180233ef0     GuBucketPruner.obj
 0002:00006f00       __xmm@bf800000bf8000003f8000003f800000 0000000180233f00     GuBucketPruner.obj
 0002:00006f10       __xmm@bf800000bf800000bf8000003f800000 0000000180233f10     GuBucketPruner.obj
 0002:00006f20       ?mIndices@MaverickNode@Gu@physx@@2QBIB 0000000180233f20     GuMaverickNode.obj
 0002:00006f80       ??_C@_0ED@GPAABIGA@C?3?2Dev?2PhysX?2physx?2source?2geomu@ 0000000180233f80     GuExtendedBucketPruner.obj
 0002:00006ff0       ??_7CompanionPruner@Gu@physx@@6B@ 0000000180233ff0     GuSecondaryPruner.obj
 0002:00007070       ??_7CompanionPrunerBucket@@6B@ 0000000180234070     GuSecondaryPruner.obj
 0002:000070f0       ??_7CompanionPrunerIncremental@@6B@ 00000001802340f0     GuSecondaryPruner.obj
 0002:00007170       ??_7CompanionPrunerAABBTree@@6B@ 0000000180234170     GuSecondaryPruner.obj
 0002:000071f0       ??_C@_0DO@HKNJPHJN@C?3?2Dev?2PhysX?2physx?2source?2geomu@ 00000001802341f0     GuSecondaryPruner.obj
 0002:00007250       ??_7AABBPruner@Gu@physx@@6B@ 0000000180234250     GuAABBPruner.obj
 0002:000072f0       ??_C@_0LA@IHBEIKND@SceneQuery?5static?5AABB?5Tree?5reb@ 00000001802342f0     GuAABBPruner.obj
 0002:000073a0       ??_C@_0DJ@MJHDFLKK@C?3?2Dev?2PhysX?2physx?2source?2geomu@ 00000001802343a0     GuAABBPruner.obj
 0002:000073e0       ??_C@_0DM@DOHPGDJL@C?3?2Dev?2PhysX?2physx?2source?2geomu@ 00000001802343e0     GuActorShapeMap.obj
 0002:00007440       ??_C@_0BF@DNABLJAF@Invalid?5pruner?5index@ 0000000180234440     GuQuerySystem.obj
 0002:00007458       ??_C@_0DK@OKILPOCI@C?3?2Dev?2PhysX?2physx?2source?2geomu@ 0000000180234458     GuQuerySystem.obj
 0002:000074f0       ??_C@_0DG@IKMDMFCM@C?3?2Dev?2PhysX?2physx?2source?2geomu@ 00000001802344f0     GuFactory.obj
 0002:00007540       ?reductionFactors@SubSortQuick@physx@@2QBMB 0000000180234540     GuRTreeCooking.obj
 0002:00007550       ?stopAtTrisPerLeaf1@SubSortQuick@physx@@2QBIB 0000000180234550     GuRTreeCooking.obj
 0002:00007610       ??_C@_0ED@IJNEFCJF@C?3?2Dev?2PhysX?2physx?2source?2geomu@ 0000000180234610     GuRTreeCooking.obj
 0002:00007654       __real@41100000            0000000180234654     GuRTreeCooking.obj
 0002:00007658       __real@41700000            0000000180234658     GuRTreeCooking.obj
 0002:0000765c       __real@42200000            000000018023465c     GuRTreeCooking.obj
 0002:00007660       __xmm@00000004000000030000000200000001 0000000180234660     GuRTreeCooking.obj
 0002:00007670       __xmm@37800080378000803780008037800080 0000000180234670     GuRTreeCooking.obj
 0002:000076a0       ??_C@_0EB@PLNDIPAD@C?3?2Dev?2PhysX?2physx?2source?2geomu@ 00000001802346a0     GuCookingBVH.obj
 0002:000076e8       ??_C@_0DL@JHPKHGFA@Cooking?3?3cookBVH?3?5user?9provided@ 00000001802346e8     GuCookingBVH.obj
 0002:00007728       ??_C@_0DN@PLNPGFEB@Cooking?3?3createBVH?3?5user?9provid@ 0000000180234728     GuCookingBVH.obj
 0002:00007770       ??_C@_0EL@JCJBAPHL@Cooking?3?3cookHeightField?3?5user?9@ 0000000180234770     GuCookingHF.obj
 0002:000077c0       ??_C@_0EA@JBAMFFJC@C?3?2Dev?2PhysX?2physx?2source?2geomu@ 00000001802347c0     GuCookingHF.obj
 0002:00007800       ??_C@_0EN@FCEPCAFC@Cooking?3?3createHeightField?3?5use@ 0000000180234800     GuCookingHF.obj
 0002:00007850       ??_C@_0EK@EKAIJEBL@Cooking?3?3cookConvexMesh?3?5user?9p@ 0000000180234850     GuCookingConvexMesh.obj
 0002:000078a0       ??_C@_0FA@GFFGAPML@Cooking?3?3cookConvexMesh?3?5provid@ 00000001802348a0     GuCookingConvexMesh.obj
 0002:000078f0       ??_C@_0EP@PKDCPNNO@Cooking?3?3cookConvexMesh?3?5provid@ 00000001802348f0     GuCookingConvexMesh.obj
 0002:00007940       ??_C@_0EO@LKFMMDE@Cooking?3?3cookConvexMesh?3?5user?9p@ 0000000180234940     GuCookingConvexMesh.obj
 0002:00007990       ??_C@_0EL@KJEPJALG@Cooking?3?3cookConvexMesh?3?5user?9p@ 0000000180234990     GuCookingConvexMesh.obj
 0002:000079e0       ??_C@_0FM@LHMEBKMM@Cooking?3?3cookConvexMesh?3?5GPU?9co@ 00000001802349e0     GuCookingConvexMesh.obj
 0002:00007a40       ??_C@_0FJ@FHCFFABE@Cooking?3?3cookConvexMesh?3?5GPU?9co@ 0000000180234a40     GuCookingConvexMesh.obj
 0002:00007aa0       ??_C@_0LM@CHONPBFM@Cooking?3?3cookConvexMesh?3?5GPU?9co@ 0000000180234aa0     GuCookingConvexMesh.obj
 0002:00007b60       ??_C@_0EI@HNDHGMDL@C?3?2Dev?2PhysX?2physx?2source?2geomu@ 0000000180234b60     GuCookingConvexMesh.obj
 0002:00007bd0       ??_7TriangleMeshBuilder@physx@@6B@ 0000000180234bd0     GuCookingTriangleMesh.obj
 0002:00007bf8       ??_7RTreeTriangleMeshBuilder@physx@@6B@ 0000000180234bf8     GuCookingTriangleMesh.obj
 0002:00007c20       ??_7BV4TriangleMeshBuilder@physx@@6B@ 0000000180234c20     GuCookingTriangleMesh.obj
 0002:00007c50       ??_C@_0EK@NEDMMFK@C?3?2Dev?2PhysX?2physx?2source?2geomu@ 0000000180234c50     GuCookingTriangleMesh.obj
 0002:00007ca0       ??_C@_0EM@DBPINPE@TriangleMeshBuilder?3?3cleanMesh?3@ 0000000180234ca0     GuCookingTriangleMesh.obj
 0002:00007cf0       ??_C@_0EF@MLNDPEDJ@TriangleMeshBuilder?3?3cleanMesh?3@ 0000000180234cf0     GuCookingTriangleMesh.obj
 0002:00007d40       ??_C@_0FJ@HHJLKGDF@TriangleMesh?3?5triangles?5are?5too@ 0000000180234d40     GuCookingTriangleMesh.obj
 0002:00007da0       ??_C@_0CN@KGPHHHLK@TriangleMesh?3?5mesh?5is?5too?5big?5f@ 0000000180234da0     GuCookingTriangleMesh.obj
 0002:00007dd0       ??_C@_0DD@CMJGDCNN@TriangleMesh?3?3loadFromDesc?3?5des@ 0000000180234dd0     GuCookingTriangleMesh.obj
 0002:00007e10       ??_C@_0ED@ILJJNHIP@TriangleMesh?3?3loadFromDesc?3?5mPa@ 0000000180234e10     GuCookingTriangleMesh.obj
 0002:00007e60       ??_C@_0EP@FHJBNFFH@Requesting?5SDF?5for?5mesh?5without@ 0000000180234e60     GuCookingTriangleMesh.obj
 0002:00007eb0       ??_C@_0BK@JIDHMMCE@BV4?5tree?5failed?5to?5build?4@ 0000000180234eb0     GuCookingTriangleMesh.obj
 0002:00007ed0       ??_C@_0BL@DHNECNBE@BV32?5tree?5failed?5to?5build?4@ 0000000180234ed0     GuCookingTriangleMesh.obj
 0002:00007ef0       ??_7RTreeCookerRemap@@6B@  0000000180234ef0     GuCookingTriangleMesh.obj
 0002:00007f00       ??_C@_0FC@PJIHAFK@Cooking?3?3validateTriangleMesh?3?5@ 0000000180234f00     GuCookingTriangleMesh.obj
 0002:00007fe0       ??_7PxCollisionTetrahedronMeshData@physx@@6B@ 0000000180234fe0     GuCookingTetrahedronMesh.obj
 0002:00008010       ??_7PxSimulationTetrahedronMeshData@physx@@6B@ 0000000180235010     GuCookingTetrahedronMesh.obj
 0002:00008030       ??_7CollisionTetrahedronMeshData@Gu@physx@@6B@ 0000000180235030     GuCookingTetrahedronMesh.obj
 0002:00008060       ??_7SimulationTetrahedronMeshData@Gu@physx@@6B@ 0000000180235060     GuCookingTetrahedronMesh.obj
 0002:00008080       ??_C@_0EN@DHFKIGAN@C?3?2Dev?2PhysX?2physx?2source?2geomu@ 0000000180235080     GuCookingTetrahedronMesh.obj
 0002:000080d0       ??_7?$LocalConvex@VTetrahedronV@Gu@physx@@@Gu@physx@@6B@ 00000001802350d0     GuCookingTetrahedronMesh.obj
 0002:00008100       ??_C@_0CD@OJGNHLOE@BV4_AABBTree?5tree?5failed?5to?5bui@ 0000000180235100     GuCookingTetrahedronMesh.obj
 0002:00008128       ??_C@_0DG@NCNIEEHB@TetrahedronMesh?3?3loadFromDesc?3?5@ 0000000180235128     GuCookingTetrahedronMesh.obj
 0002:00008160       ??_C@_0EG@CJIFGLMC@TetrahedronMesh?3?3loadFromDesc?3?5@ 0000000180235160     GuCookingTetrahedronMesh.obj
 0002:000081a8       __real@be2aaaab            00000001802351a8     GuCookingTetrahedronMesh.obj
 0002:000081b0       __xmm@00000003000000030000000300000003 00000001802351b0     GuCookingTetrahedronMesh.obj
 0002:000081e0       __real@3bc79ca10c924223    00000001802351e0     GuCookingVolumeIntegration.obj
 0002:000081e8       __real@3f91111111111111    00000001802351e8     GuCookingVolumeIntegration.obj
 0002:000081f0       __real@3fa5555555555555    00000001802351f0     GuCookingVolumeIntegration.obj
 0002:000081f8       __real@3fa999999999999a    00000001802351f8     GuCookingVolumeIntegration.obj
 0002:00008200       __real@3fb5555555555555    0000000180235200     GuCookingVolumeIntegration.obj
 0002:00008208       __real@3fc5555555555555    0000000180235208     GuCookingVolumeIntegration.obj
 0002:00008210       __real@3fe0000000000000    0000000180235210     GuCookingVolumeIntegration.obj
 0002:00008218       __real@4008000000000000    0000000180235218     GuCookingVolumeIntegration.obj
 0002:00008220       __real@4010000000000000    0000000180235220     GuCookingVolumeIntegration.obj
 0002:00008228       __real@bf91111111111111    0000000180235228     GuCookingVolumeIntegration.obj
 0002:00008230       __real@bfa999999999999a    0000000180235230     GuCookingVolumeIntegration.obj
 0002:00008238       __real@bfb5555555555555    0000000180235238     GuCookingVolumeIntegration.obj
 0002:00008240       __real@bfc5555555555555    0000000180235240     GuCookingVolumeIntegration.obj
 0002:00008250       __xmm@3c0888893c0888893c0888893c088889 0000000180235250     GuCookingVolumeIntegration.obj
 0002:00008260       __xmm@3c8888893c8888893c8888893c888889 0000000180235260     GuCookingVolumeIntegration.obj
 0002:00008270       __xmm@3d2aaaab3d2aaaab3d2aaaab3d2aaaab 0000000180235270     GuCookingVolumeIntegration.obj
 0002:00008280       __xmm@3e2aaaab3e2aaaab3e2aaaab3e2aaaab 0000000180235280     GuCookingVolumeIntegration.obj
 0002:00008290       __xmm@3f811111111111113f81111111111111 0000000180235290     GuCookingVolumeIntegration.obj
 0002:000082a0       __xmm@3f811111111111113f91111111111111 00000001802352a0     GuCookingVolumeIntegration.obj
 0002:000082b0       __xmm@3f911111111111113f91111111111111 00000001802352b0     GuCookingVolumeIntegration.obj
 0002:000082c0       __xmm@3fa55555555555553fa5555555555555 00000001802352c0     GuCookingVolumeIntegration.obj
 0002:000082d0       __xmm@3fa55555555555553fc5555555555555 00000001802352d0     GuCookingVolumeIntegration.obj
 0002:000082e0       __xmm@3fd55555555555553fd5555555555555 00000001802352e0     GuCookingVolumeIntegration.obj
 0002:000082f0       __xmm@3fe00000000000003fe0000000000000 00000001802352f0     GuCookingVolumeIntegration.obj
 0002:00008300       ??_7ConvexHullLib@physx@@6B@ 0000000180235300     GuCookingQuickHullConvexHullLib.obj
 0002:00008320       ??_7QuickHullConvexHullLib@physx@@6B@ 0000000180235320     GuCookingQuickHullConvexHullLib.obj
 0002:00008340       ??_C@_0FE@ILGKGLLL@C?3?2Dev?2PhysX?2physx?2source?2geomu@ 0000000180235340     GuCookingQuickHullConvexHullLib.obj
 0002:000083a0       ??_C@_0GA@EPPAEJPM@QuickHullConvexHullLib?3?3findSim@ 00000001802353a0     GuCookingQuickHullConvexHullLib.obj
 0002:00008400       ??_C@_0FB@NEBIJMML@QuickHullConvexHullLib?3?3findSim@ 0000000180235400     GuCookingQuickHullConvexHullLib.obj
 0002:00008460       ??_C@_0FB@CLLCBEMM@QuickHullConvexHullLib?3?3findSim@ 0000000180235460     GuCookingQuickHullConvexHullLib.obj
 0002:000084b4       __real@34c00000            00000001802354b4     GuCookingQuickHullConvexHullLib.obj
 0002:000084b8       ??_C@_0DP@PJBJBEGF@Meshmerizer?3?3extractHullPolygon@ 00000001802354b8     GuCookingConvexPolygonsBuilder.obj
 0002:00008500       ??_C@_0FD@FLMOHKJP@C?3?2Dev?2PhysX?2physx?2source?2geomu@ 0000000180235500     GuCookingConvexPolygonsBuilder.obj
 0002:00008558       ??_C@_0DL@IAFKOCCK@ConvexHullBuilder?3?5convex?5hull?5@ 0000000180235558     GuCookingConvexPolygonsBuilder.obj
 0002:000085a0       ??_C@_0GF@OJLJHAMH@ConvexHullBuilder?3?3CreateTriang@ 00000001802355a0     GuCookingConvexPolygonsBuilder.obj
 0002:00008630       ??_C@_0DF@LLFJIJGM@Gu?3?3ConvexMesh?3?3loadFromDesc?3?5d@ 0000000180235630     GuCookingConvexMeshBuilder.obj
 0002:00008670       ??_C@_0HK@JOGKIEAA@Gu?3?3ConvexMesh?3?5Mesh?5has?5a?5nega@ 0000000180235670     GuCookingConvexMeshBuilder.obj
 0002:000086f0       ??_C@_0DH@NJPPHFFD@Gu?3?3ConvexMesh?3?5Error?5computing@ 00000001802356f0     GuCookingConvexMeshBuilder.obj
 0002:00008728       ??_C@_0DJ@LJDLGLDJ@Gu?3?3ConvexMesh?3?3loadConvexHull?3@ 0000000180235728     GuCookingConvexMeshBuilder.obj
 0002:00008770       ??_C@_0HJ@KJANPPOE@ConvexMeshBuilder?3?3computeHullP@ 0000000180235770     GuCookingConvexMeshBuilder.obj
 0002:000087f0       ??_C@_0EP@ECDLKPPP@C?3?2Dev?2PhysX?2physx?2source?2geomu@ 00000001802357f0     GuCookingConvexMeshBuilder.obj
 0002:00008840       ??_C@_0O@JMAGMMGG@PxHullPolygon@ 0000000180235840     GuCookingConvexMeshBuilder.obj
 0002:00008850       __real@3f13cd3a            0000000180235850     GuCookingConvexMeshBuilder.obj
 0002:00008880       ??_C@_0EN@EGNNNGBG@C?3?2Dev?2PhysX?2physx?2source?2geomu@ 0000000180235880     GuCookingConvexHullUtils.obj
 0002:000088d0       __real@3e20d97c            00000001802358d0     GuCookingConvexHullUtils.obj
 0002:000088e0       ??_C@_0EL@EJAJNAOD@C?3?2Dev?2PhysX?2physx?2source?2geomu@ 00000001802358e0     GuCookingConvexHullLib.obj
 0002:00008930       ??_C@_0JE@PABBNGEL@ConvexHullLib?3?3cleanupVertices?3@ 0000000180235930     GuCookingConvexHullLib.obj
 0002:000089f0       ??_C@_0EP@IMJPAPKK@C?3?2Dev?2PhysX?2physx?2source?2geomu@ 00000001802359f0     GuCookingConvexHullBuilder.obj
 0002:00008a40       ??_C@_0EB@DCEIFDGC@ConvexHullBuilder?3?3init?3?5convex@ 0000000180235a40     GuCookingConvexHullBuilder.obj
 0002:00008a90       ??_C@_0FM@KICBLCBH@Gu?3?3ConvexMesh?3?3checkHullPolygo@ 0000000180235a90     GuCookingConvexHullBuilder.obj
 0002:00008af0       ??_C@_0GO@HBFIOGLL@Gu?3?3ConvexMesh?3?3checkHullPolygo@ 0000000180235af0     GuCookingConvexHullBuilder.obj
 0002:00008b60       ??_C@_0HF@OLJFBIEL@ConvexHullBuilder?3?5convex?5hull?5@ 0000000180235b60     GuCookingConvexHullBuilder.obj
 0002:00008be0       ??_C@_0OG@JNHFOIL@ConvexHullBuilder?3?5convex?5hull?5@ 0000000180235be0     GuCookingConvexHullBuilder.obj
 0002:00008cd0       ??_C@_0EJ@NIOIBAKH@Cooking?3?3cookConvexMesh?3?5non?9ma@ 0000000180235cd0     GuCookingConvexHullBuilder.obj
 0002:00008d40       ??_C@_0FC@CNBDKM@C?3?2Dev?2PhysX?2physx?2source?2geomu@ 0000000180235d40     GuCookingBigConvexDataBuilder.obj
 0002:00008d94       __real@437f0000            0000000180235d94     GuCookingSDF.obj
 0002:00008d98       __real@477fff00            0000000180235d98     GuCookingSDF.obj
 0002:00008da0       __sz_PhysXFoundation_64_dll 0000000180235da0     PhysXFoundation_64:PhysXFoundation_64.dll
 0002:00008db8       ??_C@_1BK@DBDEIDLH@?$AAK?$AAE?$AAR?$AAN?$AAE?$AAL?$AA3?$AA2?$AA?4?$AAD?$AAL?$AAL@ 0000000180235db8     Delayimp:delayhlp.obj
 0002:00008dd8       ??_C@_0BI@OMNLIJDB@AcquireSRWLockExclusive@ 0000000180235dd8     Delayimp:delayhlp.obj
 0002:00008df0       ??_C@_0BI@HMIEPCNJ@ReleaseSRWLockExclusive@ 0000000180235df0     Delayimp:delayhlp.obj
 0002:00008e08       __pfnDliFailureHook2       0000000180235e08     Delayimp:delayhk1.obj
 0002:00008e10       __bChangeProtectionOfWholeDloadSection 0000000180235e10     Delayimp:delaygv1.obj
 0002:00008e20       ??_7type_info@@6B@         0000000180235e20     LIBCMT:std_type_info_static.obj
 0002:00008e90       _pDefaultRawDllMain        0000000180235e90     LIBCMT:dll_dllmain.obj
 0002:00008e90       _pRawDllMain               0000000180235e90     LIBCMT:dll_dllmain.obj
 0002:00008ea0       _load_config_used          0000000180235ea0     LIBCMT:loadcfg.obj
 0002:00008fe0       _pDestructExceptionObject  0000000180235fe0     libvcruntime:ehhelpers.obj
 0002:00009700       ??_C@_08EHJDFFNH@__based?$CI@ 0000000180236700     libvcruntime:undname.obj
 0002:00009710       ??_C@_07KOLFKCDI@__cdecl@  0000000180236710     libvcruntime:undname.obj
 0002:00009718       ??_C@_08GHMPAG@__pascal@   0000000180236718     libvcruntime:undname.obj
 0002:00009728       ??_C@_09IFJBGAPI@__stdcall@ 0000000180236728     libvcruntime:undname.obj
 0002:00009738       ??_C@_0L@NPHFGOKO@__thiscall@ 0000000180236738     libvcruntime:undname.obj
 0002:00009748       ??_C@_0L@JMKHOMEK@__fastcall@ 0000000180236748     libvcruntime:undname.obj
 0002:00009758       ??_C@_0N@BCKKPABJ@__vectorcall@ 0000000180236758     libvcruntime:undname.obj
 0002:00009768       ??_C@_09HIJEGCPM@__clrcall@ 0000000180236768     libvcruntime:undname.obj
 0002:00009774       ??_C@_06GHPCKEAG@__eabi@   0000000180236774     libvcruntime:undname.obj
 0002:00009780       ??_C@_09IOPIDJLG@__swift_1@ 0000000180236780     libvcruntime:undname.obj
 0002:00009790       ??_C@_09KFNFGKHF@__swift_2@ 0000000180236790     libvcruntime:undname.obj
 0002:000097a0       ??_C@_09LMMOFLDE@__swift_3@ 00000001802367a0     libvcruntime:undname.obj
 0002:000097b0       ??_C@_07JOMMBBKO@__ptr64@  00000001802367b0     libvcruntime:undname.obj
 0002:000097b8       ??_C@_0L@PILCLIHE@__restrict@ 00000001802367b8     libvcruntime:undname.obj
 0002:000097c8       ??_C@_0M@GFIIJFMG@__unaligned@ 00000001802367c8     libvcruntime:undname.obj
 0002:000097d8       ??_C@_09DHDLOLLB@restrict?$CI@ 00000001802367d8     libvcruntime:undname.obj
 0002:000097e4       ??_C@_04NIHEBCM@?5new@     00000001802367e4     libvcruntime:undname.obj
 0002:000097f0       ??_C@_07FPCDHGMM@?5delete@ 00000001802367f0     libvcruntime:undname.obj
 0002:000097f8       ??_C@_01NEMOKFLO@?$DN@     00000001802367f8     libvcruntime:undname.obj
 0002:000097fc       ??_C@_02GPIOPFAK@?$DO?$DO@ 00000001802367fc     libvcruntime:undname.obj
 0002:00009800       ??_C@_02FODMEDOG@?$DM?$DM@ 0000000180236800     libvcruntime:undname.obj
 0002:00009804       ??_C@_01DCLJPIOD@?$CB@     0000000180236804     libvcruntime:undname.obj
 0002:00009808       ??_C@_02EGOFBIJA@?$DN?$DN@ 0000000180236808     libvcruntime:undname.obj
 0002:0000980c       ??_C@_02FDNJECIE@?$CB?$DN@ 000000018023680c     libvcruntime:undname.obj
 0002:00009810       ??_C@_02GPECMEKF@?$FL?$FN@ 0000000180236810     libvcruntime:undname.obj
 0002:00009818       ??_C@_08LHJFAFGD@operator@ 0000000180236818     libvcruntime:undname.obj
 0002:00009824       ??_C@_02HBOOOICD@?9?$DO@   0000000180236824     libvcruntime:undname.obj
 0002:00009828       ??_C@_01NBENCBCI@?$CK@     0000000180236828     libvcruntime:undname.obj
 0002:0000982c       ??_C@_02ECNGHCIF@?$CL?$CL@ 000000018023682c     libvcruntime:undname.obj
 0002:00009830       ??_C@_02BAABKJLB@?9?9@     0000000180236830     libvcruntime:undname.obj
 0002:00009834       ??_C@_01JOAMLHOP@?9@       0000000180236834     libvcruntime:undname.obj
 0002:00009838       ??_C@_01MIFGBAGJ@?$CL@     0000000180236838     libvcruntime:undname.obj
 0002:0000983c       ??_C@_01HNPIGOCE@?$CG@     000000018023683c     libvcruntime:undname.obj
 0002:00009840       ??_C@_03MNHNFDLC@?9?$DO?$CK@ 0000000180236840     libvcruntime:undname.obj
 0002:00009844       ??_C@_01KMDKNFGN@?1@       0000000180236844     libvcruntime:undname.obj
 0002:00009848       ??_C@_01FGNFDNOH@?$CF@     0000000180236848     libvcruntime:undname.obj
 0002:0000984c       ??_C@_01MNNFJEPP@?$DM@     000000018023684c     libvcruntime:undname.obj
 0002:00009850       ??_C@_02EHCHHCKH@?$DM?$DN@ 0000000180236850     libvcruntime:undname.obj
 0002:00009854       ??_C@_01PPODPGHN@?$DO@     0000000180236854     libvcruntime:undname.obj
 0002:00009858       ??_C@_02EEKDKGMJ@?$DO?$DN@ 0000000180236858     libvcruntime:undname.obj
 0002:0000985c       ??_C@_01IHBHIGKO@?0@       000000018023685c     libvcruntime:undname.obj
 0002:00009860       ??_C@_02HCKGKOFO@?$CI?$CJ@ 0000000180236860     libvcruntime:undname.obj
 0002:00009864       ??_C@_01PJKLJHI@?$HO@      0000000180236864     libvcruntime:undname.obj
 0002:00009868       ??_C@_01JKBOJNNK@?$FO@     0000000180236868     libvcruntime:undname.obj
 0002:0000986c       ??_C@_01DNKMNLPK@?$HM@     000000018023686c     libvcruntime:undname.obj
 0002:00009870       ??_C@_02PPKAJPJL@?$CG?$CG@ 0000000180236870     libvcruntime:undname.obj
 0002:00009874       ??_C@_02NONPIBCD@?$HM?$HM@ 0000000180236874     libvcruntime:undname.obj
 0002:00009878       ??_C@_02FPIMKNGF@?$CK?$DN@ 0000000180236878     libvcruntime:undname.obj
 0002:0000987c       ??_C@_02FOEOMHFC@?$CL?$DN@ 000000018023687c     libvcruntime:undname.obj
 0002:00009880       ??_C@_02FKMDLLOA@?9?$DN@   0000000180236880     libvcruntime:undname.obj
 0002:00009884       ??_C@_02FJEHGPIO@?1?$DN@   0000000180236884     libvcruntime:undname.obj
 0002:00009888       ??_C@_02FENAOKFI@?$CF?$DN@ 0000000180236888     libvcruntime:undname.obj
 0002:0000988c       ??_C@_03IKFCCPFF@?$DO?$DO?$DN@ 000000018023688c     libvcruntime:undname.obj
 0002:00009890       ??_C@_03CDNPDDLA@?$DM?$DM?$DN@ 0000000180236890     libvcruntime:undname.obj
 0002:00009894       ??_C@_02FGJGFEAB@?$CG?$DN@ 0000000180236894     libvcruntime:undname.obj
 0002:00009898       ??_C@_02DHLNPPGH@?$HM?$DN@ 0000000180236898     libvcruntime:undname.obj
 0002:0000989c       ??_C@_02MHEGNOJ@?$FO?$DN@  000000018023689c     libvcruntime:undname.obj
 0002:000098a0       ??_C@_09IFPLHPGF@?$GAvftable?8@ 00000001802368a0     libvcruntime:undname.obj
 0002:000098b0       ??_C@_09BLBHBJP@?$GAvbtable?8@ 00000001802368b0     libvcruntime:undname.obj
 0002:000098c0       ??_C@_07FEEIOKP@?$GAvcall?8@ 00000001802368c0     libvcruntime:undname.obj
 0002:000098c8       ??_C@_08LLFFHHDJ@?$GAtypeof?8@ 00000001802368c8     libvcruntime:undname.obj
 0002:000098d8       ??_C@_0BF@KDPPACIK@?$GAlocal?5static?5guard?8@ 00000001802368d8     libvcruntime:undname.obj
 0002:000098f0       ??_C@_08OBABFOLI@?$GAstring?8@ 00000001802368f0     libvcruntime:undname.obj
 0002:00009900       ??_C@_0BD@JDLKDPAB@?$GAvbase?5destructor?8@ 0000000180236900     libvcruntime:undname.obj
 0002:00009918       ??_C@_0BN@DEGPLNFK@?$GAvector?5deleting?5destructor?8@ 0000000180236918     libvcruntime:undname.obj
 0002:00009938       ??_C@_0BO@OBMKPJIG@?$GAdefault?5constructor?5closure?8@ 0000000180236938     libvcruntime:undname.obj
 0002:00009958       ??_C@_0BN@IMDCHIKM@?$GAscalar?5deleting?5destructor?8@ 0000000180236958     libvcruntime:undname.obj
 0002:00009978       ??_C@_0BO@PFGOCPJJ@?$GAvector?5constructor?5iterator?8@ 0000000180236978     libvcruntime:undname.obj
 0002:00009998       ??_C@_0BN@LFPFMEDL@?$GAvector?5destructor?5iterator?8@ 0000000180236998     libvcruntime:undname.obj
 0002:000099b8       ??_C@_0CE@IKBNEHA@?$GAvector?5vbase?5constructor?5itera@ 00000001802369b8     libvcruntime:undname.obj
 0002:000099e0       ??_C@_0BL@NILFHHPC@?$GAvirtual?5displacement?5map?8@ 00000001802369e0     libvcruntime:undname.obj
 0002:00009a00       ??_C@_0CB@JONCMFFK@?$GAeh?5vector?5constructor?5iterator@ 0000000180236a00     libvcruntime:undname.obj
 0002:00009a28       ??_C@_0CA@GCEOPDGL@?$GAeh?5vector?5destructor?5iterator?8@ 0000000180236a28     libvcruntime:undname.obj
 0002:00009a48       ??_C@_0CH@OOJPLCPH@?$GAeh?5vector?5vbase?5constructor?5it@ 0000000180236a48     libvcruntime:undname.obj
 0002:00009a70       ??_C@_0BL@LLKPOHJI@?$GAcopy?5constructor?5closure?8@ 0000000180236a70     libvcruntime:undname.obj
 0002:00009a90       ??_C@_0BA@KBCDOMBN@?$GAudt?5returning?8@ 0000000180236a90     libvcruntime:undname.obj
 0002:00009aa0       ??_C@_03KLGMFNMG@?$GAEH@   0000000180236aa0     libvcruntime:undname.obj
 0002:00009aa4       ??_C@_05KHLCHHI@?$GARTTI@  0000000180236aa4     libvcruntime:undname.obj
 0002:00009ab0       ??_C@_0BA@KKLDJDLB@?$GAlocal?5vftable?8@ 0000000180236ab0     libvcruntime:undname.obj
 0002:00009ac0       ??_C@_0CE@IIHCMGGL@?$GAlocal?5vftable?5constructor?5clos@ 0000000180236ac0     libvcruntime:undname.obj
 0002:00009ae4       ??_C@_06FHBGPFGH@?5new?$FL?$FN@ 0000000180236ae4     libvcruntime:undname.obj
 0002:00009af0       ??_C@_09LBNFPBCA@?5delete?$FL?$FN@ 0000000180236af0     libvcruntime:undname.obj
 0002:00009b00       ??_C@_0P@HJKNJFNN@?$GAomni?5callsig?8@ 0000000180236b00     libvcruntime:undname.obj
 0002:00009b10       ??_C@_0BL@CNOONJFP@?$GAplacement?5delete?5closure?8@ 0000000180236b10     libvcruntime:undname.obj
 0002:00009b30       ??_C@_0BN@CKNJLHMB@?$GAplacement?5delete?$FL?$FN?5closure?8@ 0000000180236b30     libvcruntime:undname.obj
 0002:00009b50       ??_C@_0CG@CFDHKGGD@?$GAmanaged?5vector?5constructor?5ite@ 0000000180236b50     libvcruntime:undname.obj
 0002:00009b78       ??_C@_0CF@IMGKMJNO@?$GAmanaged?5vector?5destructor?5iter@ 0000000180236b78     libvcruntime:undname.obj
 0002:00009ba0       ??_C@_0CG@HLDDJMAG@?$GAeh?5vector?5copy?5constructor?5ite@ 0000000180236ba0     libvcruntime:undname.obj
 0002:00009bc8       ??_C@_0CM@FCBBDIGB@?$GAeh?5vector?5vbase?5copy?5construct@ 0000000180236bc8     libvcruntime:undname.obj
 0002:00009bf8       ??_C@_0BL@CLIPGLGB@?$GAdynamic?5initializer?5for?5?8@ 0000000180236bf8     libvcruntime:undname.obj
 0002:00009c18       ??_C@_0CB@PDBIFEP@?$GAdynamic?5atexit?5destructor?5for?5@ 0000000180236c18     libvcruntime:undname.obj
 0002:00009c40       ??_C@_0CD@CGAJBKEJ@?$GAvector?5copy?5constructor?5iterat@ 0000000180236c40     libvcruntime:undname.obj
 0002:00009c68       ??_C@_0CJ@GJELGAMM@?$GAvector?5vbase?5copy?5constructor?5@ 0000000180236c68     libvcruntime:undname.obj
 0002:00009c98       ??_C@_0CL@FGIJHLCE@?$GAmanaged?5vector?5copy?5constructo@ 0000000180236c98     libvcruntime:undname.obj
 0002:00009cc8       ??_C@_0BM@PMGGMLDN@?$GAlocal?5static?5thread?5guard?8@ 0000000180236cc8     libvcruntime:undname.obj
 0002:00009ce8       ??_C@_0N@BDNMDMOL@operator?5?$CC?$CC?5@ 0000000180236ce8     libvcruntime:undname.obj
 0002:00009cf8       ??_C@_0BC@GGEBGALA@operator?5co_await@ 0000000180236cf8     libvcruntime:undname.obj
 0002:00009d10       ??_C@_0M@GAAIMMOH@operator?$DM?$DN?$DO@ 0000000180236d10     libvcruntime:undname.obj
 0002:00009d20       ??_C@_0BC@DAFEJGAK@?5Type?5Descriptor?8@ 0000000180236d20     libvcruntime:undname.obj
 0002:00009d38       ??_C@_0BM@LDKODKLH@?5Base?5Class?5Descriptor?5at?5?$CI@ 0000000180236d38     libvcruntime:undname.obj
 0002:00009d58       ??_C@_0BD@LGICGFMM@?5Base?5Class?5Array?8@ 0000000180236d58     libvcruntime:undname.obj
 0002:00009d70       ??_C@_0BN@MECKDCOJ@?5Class?5Hierarchy?5Descriptor?8@ 0000000180236d70     libvcruntime:undname.obj
 0002:00009d90       ??_C@_0BK@CFCOFLF@?5Complete?5Object?5Locator?8@ 0000000180236d90     libvcruntime:undname.obj
 0002:00009db0       ??_C@_0BG@JNJLAMPM@?$GAanonymous?5namespace?8@ 0000000180236db0     libvcruntime:undname.obj
 0002:00009dc8       ??_C@_04HEJADOOB@CV?3?5@   0000000180236dc8     libvcruntime:undname.obj
 0002:00009dd0       ??_C@_02MOLJINC@?3?3@      0000000180236dd0     libvcruntime:undname.obj
 0002:00009dd8       ??_C@_0BE@JAEOCHPE@template?9parameter?9@ 0000000180236dd8     libvcruntime:undname.obj
 0002:00009df0       ??_C@_0BF@LNLGBBNL@?$GAtemplate?9parameter?9@ 0000000180236df0     libvcruntime:undname.obj
 0002:00009e08       ??_C@_0O@KHGCOMHP@generic?9type?9@ 0000000180236e08     libvcruntime:undname.obj
 0002:00009e18       ??_C@_0P@ODDENDLM@?$GAgeneric?9type?9@ 0000000180236e18     libvcruntime:undname.obj
 0002:00009e28       ??_C@_02OHHJMEON@?8?8@     0000000180236e28     libvcruntime:undname.obj
